 mp

 Timestamp is 637b1453 (Sun Nov 20 22:01:55 2022)

 Preferred load address is 10000000

 Start         Length     Name                   Class
 0001:00000000 00060e7cH .text                   CODE
 0001:00060e80 00000132H .text$x                 CODE
 0002:00000000 0000bad8H .rdata                  DATA
 0002:0000bad8 00000188H .xdata$x                DATA
 0002:0000bc60 00002d5cH .edata                  DATA
 0003:00000000 00000004H .CRT$XCA                DATA
 0003:00000004 00000014H .CRT$XCU                DATA
 0003:00000018 00000004H .CRT$XCZ                DATA
 0003:0000001c 00000004H .CRT$XIA                DATA
 0003:00000020 00000008H .CRT$XIC                DATA
 0003:00000028 00000004H .CRT$XIY                DATA
 0003:0000002c 00000004H .CRT$XIZ                DATA
 0003:00000030 00000004H .CRT$XPA                DATA
 0003:00000034 00000004H .CRT$XPX                DATA
 0003:00000038 00000004H .CRT$XPZ                DATA
 0003:0000003c 00000004H .CRT$XTA                DATA
 0003:00000040 00000004H .CRT$XTB                DATA
 0003:00000044 00000004H .CRT$XTZ                DATA
 0003:00000050 0000e574H .data                   DATA
 0003:0000e5c8 0000d238H .bss                    DATA
 0004:00000000 00000014H .idata$2                DATA
 0004:00000014 00000014H .idata$3                DATA
 0004:00000028 0000012cH .idata$4                DATA
 0004:00000154 0000012cH .idata$5                DATA
 0004:00000280 00000548H .idata$6                DATA

  Address         Publics by Value              Rva+Base     Lib:Object

 0001:00000000       _item_airtank              10001000 f   airtank.obj
 0001:00000010       ?Save@CAirtank@@EAEHAAVCSave@@@Z 10001010 f   airtank.obj
 0001:00000040       ?Restore@CAirtank@@EAEHAAVCRestore@@@Z 10001040 f   airtank.obj
 0001:00000070       ?Spawn@CAirtank@@EAEXXZ    10001070 f   airtank.obj
 0001:00000160       ?Precache@CAirtank@@EAEXXZ 10001160 f   airtank.obj
 0001:00000180       ?Killed@CAirtank@@EAEXPAUentvars_t@@H@Z 10001180 f   airtank.obj
 0001:000001e0       ?TankThink@CAirtank@@AAEXXZ 100011e0 f   airtank.obj
 0001:00000200       ?TankTouch@CAirtank@@AAEXPAVCBaseEntity@@@Z 10001200 f   airtank.obj
 0001:000002d0       ?GetClassPtr@@YAPAVCAirtank@@PAV1@@Z 100012d0 f i airtank.obj
 0001:00000330       ?BloodColor@CAirtank@@EAEHXZ 10001330 f i airtank.obj
 0001:00000340       ??0Vector@@QAE@MMM@Z       10001340 f i airtank.obj
 0001:00000360       ??0Vector@@QAE@ABV0@@Z     10001360 f i airtank.obj
 0001:00000380       ?ObjectCaps@CBaseEntity@@UAEHXZ 10001380 f i airtank.obj
 0001:00000390       ?Activate@CBaseEntity@@UAEXXZ 10001390 f i airtank.obj
 0001:000003a0       ?Classify@CBaseEntity@@UAEHXZ 100013a0 f i airtank.obj
 0001:000003b0       ?DeathNotice@CBaseEntity@@UAEXPAUentvars_t@@@Z 100013b0 f i airtank.obj
 0001:000003c0       ?IsTriggered@CBaseEntity@@UAEHPAV1@@Z 100013c0 f i airtank.obj
 0001:000003d0       ?MyMonsterPointer@CBaseEntity@@UAEPAVCBaseMonster@@XZ 100013d0 f i airtank.obj
 0001:000003e0       ?MySquadMonsterPointer@CBaseEntity@@UAEPAVCSquadMonster@@XZ 100013e0 f i airtank.obj
 0001:000003f0       ?AddPoints@CBaseEntity@@UAEXHH@Z 100013f0 f i airtank.obj
 0001:00000400       ?AddPointsToTeam@CBaseEntity@@UAEXHH@Z 10001400 f i airtank.obj
 0001:00000410       ?AddPlayerItem@CBaseEntity@@UAEHPAVCBasePlayerItem@@@Z 10001410 f i airtank.obj
 0001:00000420       ?RemovePlayerItem@CBaseEntity@@UAEHPAVCBasePlayerItem@@@Z 10001420 f i airtank.obj
 0001:00000430       ?GiveAmmo@CBaseEntity@@UAEHHPADH@Z 10001430 f i airtank.obj
 0001:00000440       ?IsMoving@CBaseEntity@@UAEHXZ 10001440 f i airtank.obj
 0001:00000490       ?OverrideReset@CBaseEntity@@UAEXXZ 10001490 f i airtank.obj
 0001:000004a0       ?SetToggleState@CBaseEntity@@UAEXH@Z 100014a0 f i airtank.obj
 0001:000004b0       ?StartSneaking@CBaseEntity@@UAEXXZ 100014b0 f i airtank.obj
 0001:000004c0       ?StopSneaking@CBaseEntity@@UAEXXZ 100014c0 f i airtank.obj
 0001:000004d0       ?OnControls@CBaseEntity@@UAEHPAUentvars_t@@@Z 100014d0 f i airtank.obj
 0001:000004e0       ?IsSneaking@CBaseEntity@@UAEHXZ 100014e0 f i airtank.obj
 0001:000004f0       ?IsBSPModel@CBaseEntity@@UAEHXZ 100014f0 f i airtank.obj
 0001:00000510       ?ReflectGauss@CBaseEntity@@UAEHXZ 10001510 f i airtank.obj
 0001:00000540       ?HasTarget@CBaseEntity@@UAEHH@Z 10001540 f i airtank.obj
 0001:000005b0       ?IsPlayer@CBaseEntity@@UAEHXZ 100015b0 f i airtank.obj
 0001:000005c0       ?IsNetClient@CBaseEntity@@UAEHXZ 100015c0 f i airtank.obj
 0001:000005d0       ?TeamID@CBaseEntity@@UAEPBDXZ 100015d0 f i airtank.obj
 0001:000005e0       ?Think@CBaseEntity@@UAEXXZ 100015e0 f i airtank.obj
 0001:000005f0       ?Touch@CBaseEntity@@UAEXPAV1@@Z 100015f0 f i airtank.obj
 0001:00000610       ?Use@CBaseEntity@@UAEXPAV1@0W4USE_TYPE@@M@Z 10001610 f i airtank.obj
 0001:00000630       ?Blocked@CBaseEntity@@UAEXPAV1@@Z 10001630 f i airtank.obj
 0001:00000650       ?SUB_CallUseToggle@CBaseEntity@@QAEXXZ 10001650 f i airtank.obj
 0001:00000660       ?Respawn@CBaseEntity@@UAEPAV1@XZ 10001660 f i airtank.obj
 0001:00000670       ?UpdateOwner@CBaseEntity@@UAEXXZ 10001670 f i airtank.obj
 0001:00000680       ?FBecomeProne@CBaseEntity@@UAEHXZ 10001680 f i airtank.obj
 0001:00000690       ?Center@CBaseEntity@@UAE?AVVector@@XZ 10001690 f i airtank.obj
 0001:00000700       ?EyePosition@CBaseEntity@@UAE?AVVector@@XZ 10001700 f i airtank.obj
 0001:00000740       ?EarPosition@CBaseEntity@@UAE?AVVector@@XZ 10001740 f i airtank.obj
 0001:00000780       ?BodyTarget@CBaseEntity@@UAE?AVVector@@ABV2@@Z 10001780 f i airtank.obj
 0001:000007b0       ?Illumination@CBaseEntity@@UAEHXZ 100017b0 f i airtank.obj
 0001:000007d0       ?HandleAnimEvent@CBaseAnimating@@UAEXPAUMonsterEvent_t@@@Z 100017d0 f i airtank.obj
 0001:000007e0       ?GetToggleState@CBaseToggle@@UAEHXZ 100017e0 f i airtank.obj
 0001:000007f0       ?GetDelay@CBaseToggle@@UAEMXZ 100017f0 f i airtank.obj
 0001:00000800       ?PainSound@CBaseMonster@@UAEXXZ 10001800 f i airtank.obj
 0001:00000810       ?IsAlive@CBaseMonster@@UAEHXZ 10001810 f i airtank.obj
 0001:00000830       ?Save@CBaseAnimating@@UAEHAAVCSave@@@Z 10001830 f   animating.obj
 0001:00000860       ?Restore@CBaseAnimating@@UAEHAAVCRestore@@@Z 10001860 f   animating.obj
 0001:00000890       ?StudioFrameAdvance@CBaseAnimating@@QAEMM@Z 10001890 f   animating.obj
 0001:000009c0       ?LookupActivity@CBaseAnimating@@QAEHH@Z 100019c0 f   animating.obj
 0001:000009f0       ?LookupActivityHeaviest@CBaseAnimating@@QAEHH@Z 100019f0 f   animating.obj
 0001:00000a20       ?LookupSequence@CBaseAnimating@@QAEHPBD@Z 10001a20 f   animating.obj
 0001:00000a50       ?ResetSequenceInfo@CBaseAnimating@@QAEXXZ 10001a50 f   animating.obj
 0001:00000ac0       ?GetSequenceFlags@CBaseAnimating@@QAEHXZ 10001ac0 f   animating.obj
 0001:00000af0       ?DispatchAnimEvents@CBaseAnimating@@QAEXM@Z 10001af0 f   animating.obj
 0001:00000c00       ?SetBoneController@CBaseAnimating@@QAEMHM@Z 10001c00 f   animating.obj
 0001:00000c30       ?InitBoneControllers@CBaseAnimating@@QAEXXZ 10001c30 f   animating.obj
 0001:00000c90       ?SetBlending@CBaseAnimating@@QAEMHM@Z 10001c90 f   animating.obj
 0001:00000cc0       ?GetBonePosition@CBaseAnimating@@QAEXHAAVVector@@0@Z 10001cc0 f   animating.obj
 0001:00000cf0       ?GetAttachment@CBaseAnimating@@QAEXHAAVVector@@0@Z 10001cf0 f   animating.obj
 0001:00000d20       ?FindTransition@CBaseAnimating@@QAEHHHPAH@Z 10001d20 f   animating.obj
 0001:00000d80       ?GetAutomovement@CBaseAnimating@@QAEXAAVVector@@0M@Z 10001d80 f   animating.obj
 0001:00000d90       ?SetBodygroup@CBaseAnimating@@QAEXHH@Z 10001d90 f   animating.obj
 0001:00000dc0       ?GetBodygroup@CBaseAnimating@@QAEHH@Z 10001dc0 f   animating.obj
 0001:00000df0       ?ExtractBbox@CBaseAnimating@@QAEHHPAM0@Z 10001df0 f   animating.obj
 0001:00000e20       ?SetSequenceBox@CBaseAnimating@@QAEXXZ 10001e20 f   animating.obj
 0001:00000fc0       ??_H@YGXPAXIHP6EX0@Z@Z     10001fc0 f i animating.obj
 0001:00000ff0       ?ExtractBbox@@YAHPAXHPAM1@Z 10001ff0 f   animation.obj
 0001:00001050       ?LookupActivity@@YAHPAXPAUentvars_t@@H@Z 10002050 f   animation.obj
 0001:000010d0       ?LookupActivityHeaviest@@YAHPAXPAUentvars_t@@H@Z 100020d0 f   animation.obj
 0001:00001120       ?GetEyePosition@@YAXPAXPAM@Z 10002120 f   animation.obj
 0001:00001150       ?LookupSequence@@YAHPAXPBD@Z 10002150 f   animation.obj
 0001:000011b0       ?IsSoundEvent@@YAHH@Z      100021b0 f   animation.obj
 0001:000011d0       ?SequencePrecache@@YAXPAXPBD@Z 100021d0 f   animation.obj
 0001:000012b0       ?GetSequenceInfo@@YAXPAXPAUentvars_t@@PAM2@Z 100022b0 f   animation.obj
 0001:00001370       ?GetSequenceFlags@@YAHPAXPAUentvars_t@@@Z 10002370 f   animation.obj
 0001:000013b0       ?GetAnimationEvent@@YAHPAXPAUentvars_t@@PAUMonsterEvent_t@@MMH@Z 100023b0 f   animation.obj
 0001:00001500       ?SetController@@YAMPAXPAUentvars_t@@HM@Z 10002500 f   animation.obj
 0001:00001670       ?SetBlending@@YAMPAXPAUentvars_t@@HM@Z 10002670 f   animation.obj
 0001:000017b0       ?FindTransition@@YAHPAXHHPAH@Z 100027b0 f   animation.obj
 0001:000018c0       ?SetBodygroup@@YAXPAXPAUentvars_t@@HH@Z 100028c0 f   animation.obj
 0001:00001920       ?GetBodygroup@@YAHPAXPAUentvars_t@@H@Z 10002920 f   animation.obj
 0001:00001980       ?VecBModelOrigin@@YA?AVVector@@PAUentvars_t@@@Z 10002980 f   bmodels.obj
 0001:000019f0       _func_wall                 100029f0 f   bmodels.obj
 0001:00001a00       ?Spawn@CFuncWall@@UAEXXZ   10002a00 f   bmodels.obj
 0001:00001a80       ?Use@CFuncWall@@UAEXPAVCBaseEntity@@0W4USE_TYPE@@M@Z 10002a80 f   bmodels.obj
 0001:00001ac0       _func_wall_toggle          10002ac0 f   bmodels.obj
 0001:00001ad0       ?Spawn@CFuncWallToggle@@UAEXXZ 10002ad0 f   bmodels.obj
 0001:00001af0       ?TurnOff@CFuncWallToggle@@QAEXXZ 10002af0 f   bmodels.obj
 0001:00001b20       ?TurnOn@CFuncWallToggle@@QAEXXZ 10002b20 f   bmodels.obj
 0001:00001b50       ?IsOn@CFuncWallToggle@@QAEHXZ 10002b50 f   bmodels.obj
 0001:00001b70       ?Use@CFuncWallToggle@@UAEXPAVCBaseEntity@@0W4USE_TYPE@@M@Z 10002b70 f   bmodels.obj
 0001:00001bb0       _func_conveyor             10002bb0 f   bmodels.obj
 0001:00001bc0       ?Spawn@CFuncConveyor@@UAEXXZ 10002bc0 f   bmodels.obj
 0001:00001c40       ?UpdateSpeed@CFuncConveyor@@QAEXM@Z 10002c40 f   bmodels.obj
 0001:00001cc0       ?Use@CFuncConveyor@@UAEXPAVCBaseEntity@@0W4USE_TYPE@@M@Z 10002cc0 f   bmodels.obj
 0001:00001cf0       _func_illusionary          10002cf0 f   bmodels.obj
 0001:00001d00       ?KeyValue@CFuncIllusionary@@UAEXPAUKeyValueData_s@@@Z 10002d00 f   bmodels.obj
 0001:00001d80       ?Spawn@CFuncIllusionary@@UAEXXZ 10002d80 f   bmodels.obj
 0001:00001de0       _func_monsterclip          10002de0 f   bmodels.obj
 0001:00001df0       ?Spawn@CFuncMonsterClip@@UAEXXZ 10002df0 f   bmodels.obj
 0001:00001e30       ?Save@CFuncRotating@@UAEHAAVCSave@@@Z 10002e30 f   bmodels.obj
 0001:00001e60       ?Restore@CFuncRotating@@UAEHAAVCRestore@@@Z 10002e60 f   bmodels.obj
 0001:00001e90       _func_rotating             10002e90 f   bmodels.obj
 0001:00001ea0       ?KeyValue@CFuncRotating@@UAEXPAUKeyValueData_s@@@Z 10002ea0 f   bmodels.obj
 0001:000020b0       ?Spawn@CFuncRotating@@UAEXXZ 100030b0 f   bmodels.obj
 0001:000022f0       ?Precache@CFuncRotating@@UAEXXZ 100032f0 f   bmodels.obj
 0001:00002480       ?HurtTouch@CFuncRotating@@QAEXPAVCBaseEntity@@@Z 10003480 f   bmodels.obj
 0001:000025e0       ?RampPitchVol@CFuncRotating@@QAEXH@Z 100035e0 f   bmodels.obj
 0001:000026e0       ?SpinUp@CFuncRotating@@QAEXXZ 100036e0 f   bmodels.obj
 0001:000028a0       ?SpinDown@CFuncRotating@@QAEXXZ 100038a0 f   bmodels.obj
 0001:00002a70       ?Rotate@CFuncRotating@@QAEXXZ 10003a70 f   bmodels.obj
 0001:00002a90       ?RotatingUse@CFuncRotating@@QAEXPAVCBaseEntity@@0W4USE_TYPE@@M@Z 10003a90 f   bmodels.obj
 0001:00002c10       ?Blocked@CFuncRotating@@UAEXPAVCBaseEntity@@@Z 10003c10 f   bmodels.obj
 0001:00002c30       _func_pendulum             10003c30 f   bmodels.obj
 0001:00002c40       ?Save@CPendulum@@UAEHAAVCSave@@@Z 10003c40 f   bmodels.obj
 0001:00002c70       ?Restore@CPendulum@@UAEHAAVCRestore@@@Z 10003c70 f   bmodels.obj
 0001:00002ca0       ?KeyValue@CPendulum@@UAEXPAUKeyValueData_s@@@Z 10003ca0 f   bmodels.obj
 0001:00002d70       ?Spawn@CPendulum@@UAEXXZ   10003d70 f   bmodels.obj
 0001:00002f10       ?PendulumUse@CPendulum@@QAEXPAVCBaseEntity@@0W4USE_TYPE@@M@Z 10003f10 f   bmodels.obj
 0001:00003020       ?Stop@CPendulum@@QAEXXZ    10004020 f   bmodels.obj
 0001:00003070       ?Blocked@CPendulum@@UAEXPAVCBaseEntity@@@Z 10004070 f   bmodels.obj
 0001:00003080       ?Swing@CPendulum@@QAEXXZ   10004080 f   bmodels.obj
 0001:00003250       ?Touch@CPendulum@@UAEXPAVCBaseEntity@@@Z 10004250 f   bmodels.obj
 0001:000033b0       ?RopeTouch@CPendulum@@QAEXPAVCBaseEntity@@@Z 100043b0 f   bmodels.obj
 0001:00003430       ?GetClassPtr@@YAPAVCFuncWall@@PAV1@@Z 10004430 f i bmodels.obj
 0001:00003480       ?ObjectCaps@CFuncWall@@UAEHXZ 10004480 f i bmodels.obj
 0001:00003490       ?Precache@CBaseEntity@@UAEXXZ 10004490 f i bmodels.obj
 0001:000034a0       ?KeyValue@CBaseEntity@@UAEXPAUKeyValueData_s@@@Z 100044a0 f i bmodels.obj
 0001:000034b0       ?BloodColor@CBaseEntity@@UAEHXZ 100044b0 f i bmodels.obj
 0001:000034c0       ?GetToggleState@CBaseEntity@@UAEHXZ 100044c0 f i bmodels.obj
 0001:000034d0       ?GetDelay@CBaseEntity@@UAEMXZ 100044d0 f i bmodels.obj
 0001:000034e0       ?IsAlive@CBaseEntity@@UAEHXZ 100044e0 f i bmodels.obj
 0001:00003510       ?GetClassPtr@@YAPAVCFuncWallToggle@@PAV1@@Z 10004510 f i bmodels.obj
 0001:00003560       ?GetClassPtr@@YAPAVCFuncConveyor@@PAV1@@Z 10004560 f i bmodels.obj
 0001:000035b0       ?GetClassPtr@@YAPAVCFuncIllusionary@@PAV1@@Z 100045b0 f i bmodels.obj
 0001:00003610       ?ObjectCaps@CFuncIllusionary@@UAEHXZ 10004610 f i bmodels.obj
 0001:00003620       ?GetClassPtr@@YAPAVCFuncMonsterClip@@PAV1@@Z 10004620 f i bmodels.obj
 0001:00003670       ?Use@CFuncMonsterClip@@UAEXPAVCBaseEntity@@0W4USE_TYPE@@M@Z 10004670 f i bmodels.obj
 0001:00003680       ?GetClassPtr@@YAPAVCFuncRotating@@PAV1@@Z 10004680 f i bmodels.obj
 0001:000036d0       ?ObjectCaps@CFuncRotating@@UAEHXZ 100046d0 f i bmodels.obj
 0001:000036e0       ?GetClassPtr@@YAPAVCPendulum@@PAV1@@Z 100046e0 f i bmodels.obj
 0001:00003730       ?ObjectCaps@CPendulum@@UAEHXZ 10004730 f i bmodels.obj
 0001:00003740       ?Save@CEnvGlobal@@UAEHAAVCSave@@@Z 10004740 f   buttons.obj
 0001:00003770       ?Restore@CEnvGlobal@@UAEHAAVCRestore@@@Z 10004770 f   buttons.obj
 0001:000037a0       _env_global                100047a0 f   buttons.obj
 0001:000037b0       ?KeyValue@CEnvGlobal@@UAEXPAUKeyValueData_s@@@Z 100047b0 f   buttons.obj
 0001:000038c0       ?Spawn@CEnvGlobal@@UAEXXZ  100048c0 f   buttons.obj
 0001:00003920       ?Use@CEnvGlobal@@UAEXPAVCBaseEntity@@0W4USE_TYPE@@M@Z 10004920 f   buttons.obj
 0001:000039a0       ?Save@CMultiSource@@UAEHAAVCSave@@@Z 100049a0 f   buttons.obj
 0001:000039d0       ?Restore@CMultiSource@@UAEHAAVCRestore@@@Z 100049d0 f   buttons.obj
 0001:00003a00       _multisource               10004a00 f   buttons.obj
 0001:00003a10       ?KeyValue@CMultiSource@@UAEXPAUKeyValueData_s@@@Z 10004a10 f   buttons.obj
 0001:00003bd0       ?Spawn@CMultiSource@@UAEXXZ 10004bd0 f   buttons.obj
 0001:00003c20       ?Use@CMultiSource@@UAEXPAVCBaseEntity@@0W4USE_TYPE@@M@Z 10004c20 f   buttons.obj
 0001:00003d00       ?IsTriggered@CMultiSource@@UAEHPAVCBaseEntity@@@Z 10004d00 f   buttons.obj
 0001:00003d60       ?Register@CMultiSource@@QAEXXZ 10004d60 f   buttons.obj
 0001:00003e90       ?Save@CBaseButton@@UAEHAAVCSave@@@Z 10004e90 f   buttons.obj
 0001:00003ec0       ?Restore@CBaseButton@@UAEHAAVCRestore@@@Z 10004ec0 f   buttons.obj
 0001:00003ef0       ?Precache@CBaseButton@@UAEXXZ 10004ef0 f   buttons.obj
 0001:000041b0       ?KeyValue@CBaseButton@@UAEXPAUKeyValueData_s@@@Z 100051b0 f   buttons.obj
 0001:000043e0       ?TakeDamage@CBaseButton@@UAEHPAUentvars_t@@0MH@Z 100053e0 f   buttons.obj
 0001:000044c0       _func_button               100054c0 f   buttons.obj
 0001:000044d0       ?Spawn@CBaseButton@@UAEXXZ 100054d0 f   buttons.obj
 0001:00004740       ?ButtonSound@@YAPADH@Z     10005740 f   buttons.obj
 0001:00004830       ?DoSpark@@YAXPAUentvars_t@@ABVVector@@@Z 10005830 f   buttons.obj
 0001:00004a10       ?ButtonSpark@CBaseButton@@QAEXXZ 10005a10 f   buttons.obj
 0001:00004a60       ?ButtonUse@CBaseButton@@QAEXPAVCBaseEntity@@0W4USE_TYPE@@M@Z 10005a60 f   buttons.obj
 0001:00004af0       ?ButtonResponseToTouch@CBaseButton@@QAE?AW4BUTTON_CODE@1@XZ 10005af0 f   buttons.obj
 0001:00004b50       ?ButtonTouch@CBaseButton@@QAEXPAVCBaseEntity@@@Z 10005b50 f   buttons.obj
 0001:00004c70       ?ButtonActivate@CBaseButton@@QAEXXZ 10005c70 f   buttons.obj
 0001:00004d50       ?TriggerAndWait@CBaseButton@@QAEXXZ 10005d50 f   buttons.obj
 0001:00004df0       ?ButtonReturn@CBaseButton@@QAEXXZ 10005df0 f   buttons.obj
 0001:00004e70       ?ButtonBackHome@CBaseButton@@QAEXXZ 10005e70 f   buttons.obj
 0001:00004fc0       _func_rot_button           10005fc0 f   buttons.obj
 0001:00004fd0       ?Spawn@CRotButton@@UAEXXZ  10005fd0 f   buttons.obj
 0001:000051e0       ?Save@CMomentaryRotButton@@UAEHAAVCSave@@@Z 100061e0 f   buttons.obj
 0001:00005210       ?Restore@CMomentaryRotButton@@UAEHAAVCRestore@@@Z 10006210 f   buttons.obj
 0001:00005240       _momentary_rot_button      10006240 f   buttons.obj
 0001:00005250       ?Spawn@CMomentaryRotButton@@UAEXXZ 10006250 f   buttons.obj
 0001:00005450       ?KeyValue@CMomentaryRotButton@@UAEXPAUKeyValueData_s@@@Z 10006450 f   buttons.obj
 0001:00005520       ?PlaySound@CMomentaryRotButton@@QAEXXZ 10006520 f   buttons.obj
 0001:00005560       ?Use@CMomentaryRotButton@@UAEXPAVCBaseEntity@@0W4USE_TYPE@@M@Z 10006560 f   buttons.obj
 0001:000055c0       ?UpdateAllButtons@CMomentaryRotButton@@QAEXMH@Z 100065c0 f   buttons.obj
 0001:00005680       ?UpdateSelf@CMomentaryRotButton@@QAEXM@Z 10006680 f   buttons.obj
 0001:00005800       ?UpdateTarget@CMomentaryRotButton@@QAEXM@Z 10006800 f   buttons.obj
 0001:00005880       ?Off@CMomentaryRotButton@@QAEXXZ 10006880 f   buttons.obj
 0001:00005900       ?Return@CMomentaryRotButton@@QAEXXZ 10006900 f   buttons.obj
 0001:00005960       ?UpdateSelfReturn@CMomentaryRotButton@@QAEXM@Z 10006960 f   buttons.obj
 0001:00005a40       ?Save@CEnvSpark@@UAEHAAVCSave@@@Z 10006a40 f   buttons.obj
 0001:00005a70       ?Restore@CEnvSpark@@UAEHAAVCRestore@@@Z 10006a70 f   buttons.obj
 0001:00005aa0       _env_spark                 10006aa0 f   buttons.obj
 0001:00005ab0       _env_debris                10006ab0 f   buttons.obj
 0001:00005ac0       ?Spawn@CEnvSpark@@UAEXXZ   10006ac0 f   buttons.obj
 0001:00005b50       ?Precache@CEnvSpark@@UAEXXZ 10006b50 f   buttons.obj
 0001:00005ba0       ?KeyValue@CEnvSpark@@UAEXPAUKeyValueData_s@@@Z 10006ba0 f   buttons.obj
 0001:00005d60       ?SparkThink@CEnvSpark@@QAEXXZ 10006d60 f   buttons.obj
 0001:00005da0       ?SparkStart@CEnvSpark@@QAEXPAVCBaseEntity@@0W4USE_TYPE@@M@Z 10006da0 f   buttons.obj
 0001:00005de0       ?SparkStop@CEnvSpark@@QAEXPAVCBaseEntity@@0W4USE_TYPE@@M@Z 10006de0 f   buttons.obj
 0001:00005e00       _button_target             10006e00 f   buttons.obj
 0001:00005e10       ?Spawn@CButtonTarget@@UAEXXZ 10006e10 f   buttons.obj
 0001:00005e80       ?Use@CButtonTarget@@UAEXPAVCBaseEntity@@0W4USE_TYPE@@M@Z 10006e80 f   buttons.obj
 0001:00005f00       ?ObjectCaps@CButtonTarget@@UAEHXZ 10006f00 f   buttons.obj
 0001:00005f20       ?TakeDamage@CButtonTarget@@UAEHPAUentvars_t@@0MH@Z 10006f20 f   buttons.obj
 0001:00005f70       ?GetClassPtr@@YAPAVCEnvGlobal@@PAV1@@Z 10006f70 f i buttons.obj
 0001:00005fc0       ?ObjectCaps@CPointEntity@@UAEHXZ 10006fc0 f i buttons.obj
 0001:00005fd0       ?GetClassPtr@@YAPAVCMultiSource@@PAV1@@Z 10006fd0 f i buttons.obj
 0001:00006030       ?ObjectCaps@CMultiSource@@UAEHXZ 10007030 f i buttons.obj
 0001:00006040       ?GetClassPtr@@YAPAVCBaseButton@@PAV1@@Z 10007040 f i buttons.obj
 0001:000060a0       ?ObjectCaps@CBaseButton@@UAEHXZ 100070a0 f i buttons.obj
 0001:000060c0       ?GetClassPtr@@YAPAVCRotButton@@PAV1@@Z 100070c0 f i buttons.obj
 0001:00006120       ?GetClassPtr@@YAPAVCMomentaryRotButton@@PAV1@@Z 10007120 f i buttons.obj
 0001:00006180       ?ObjectCaps@CMomentaryRotButton@@UAEHXZ 10007180 f i buttons.obj
 0001:000061a0       ?GetClassPtr@@YAPAVCEnvSpark@@PAV1@@Z 100071a0 f i buttons.obj
 0001:000061f0       ?GetClassPtr@@YAPAVCButtonTarget@@PAV1@@Z 100071f0 f i buttons.obj
 0001:00006240       _GetEntityAPI              10007240 f   cbase.obj
 0001:00006270       ?DispatchSpawn@@YAHPAUedict_s@@@Z 10007270 f   cbase.obj
 0001:00006430       ?DispatchKeyValue@@YAXPAUedict_s@@PAUKeyValueData_s@@@Z 10007430 f   cbase.obj
 0001:00006480       ?DispatchTouch@@YAXPAUedict_s@@0@Z 10007480 f   cbase.obj
 0001:000064e0       ?DispatchUse@@YAXPAUedict_s@@0@Z 100074e0 f   cbase.obj
 0001:00006530       ?DispatchThink@@YAXPAUedict_s@@@Z 10007530 f   cbase.obj
 0001:00006580       ?DispatchBlocked@@YAXPAUedict_s@@0@Z 10007580 f   cbase.obj
 0001:000065c0       ?DispatchSave@@YAXPAUedict_s@@PAUsaverestore_s@@@Z 100075c0 f   cbase.obj
 0001:000066c0       ??1CSave@@QAE@XZ           100076c0 f i cbase.obj
 0001:000066d0       ?FindGlobalEntity@@YAPAVCBaseEntity@@HH@Z 100076d0 f   cbase.obj
 0001:00006780       ?DispatchRestore@@YAHPAUedict_s@@PAUsaverestore_s@@H@Z 10007780 f   cbase.obj
 0001:00006b10       ??1CRestore@@QAE@XZ        10007b10 f i cbase.obj
 0001:00006b20       ?DispatchObjectCollsionBox@@YAXPAUedict_s@@@Z 10007b20 f   cbase.obj
 0001:00006b50       ?SaveWriteFields@@YAXPAUsaverestore_s@@PBDPAXPAUTYPEDESCRIPTION@@H@Z 10007b50 f   cbase.obj
 0001:00006bc0       ?SaveReadFields@@YAXPAUsaverestore_s@@PBDPAXPAUTYPEDESCRIPTION@@H@Z 10007bc0 f   cbase.obj
 0001:00006c40       ?Get@EHANDLE@@QAEPAUedict_s@@XZ 10007c40 f   cbase.obj
 0001:00006c60       ?Set@EHANDLE@@QAEPAUedict_s@@PAU2@@Z 10007c60 f   cbase.obj
 0001:00006c80       ??BEHANDLE@@QAEPAVCBaseEntity@@XZ 10007c80 f   cbase.obj
 0001:00006ca0       ??4EHANDLE@@QAEPAVCBaseEntity@@PAV1@@Z 10007ca0 f   cbase.obj
 0001:00006cd0       ??BEHANDLE@@QAEHXZ         10007cd0 f   cbase.obj
 0001:00006ce0       ??CEHANDLE@@QAEPAVCBaseEntity@@XZ 10007ce0 f   cbase.obj
 0001:00006d00       ?TakeHealth@CBaseEntity@@UAEHMH@Z 10007d00 f   cbase.obj
 0001:00006d70       ?TakeDamage@CBaseEntity@@UAEHPAUentvars_t@@0MH@Z 10007d70 f   cbase.obj
 0001:00007120       ??HVector@@QBE?AV0@ABV0@@Z 10008120 f i cbase.obj
 0001:00007160       ??DVector@@QBE?AV0@M@Z     10008160 f i cbase.obj
 0001:000071a0       ?Length@Vector@@QBEMXZ     100081a0 f i cbase.obj
 0001:000071d0       ?Killed@CBaseEntity@@UAEXPAUentvars_t@@H@Z 100081d0 f   cbase.obj
 0001:00007200       ?GetNextTarget@CBaseEntity@@UAEPAV1@XZ 10008200 f   cbase.obj
 0001:00007260       ?Save@CBaseEntity@@UAEHAAVCSave@@@Z 10008260 f   cbase.obj
 0001:000072a0       ?Restore@CBaseEntity@@UAEHAAVCRestore@@@Z 100082a0 f   cbase.obj
 0001:00007560       ?SetObjectCollisionBox@CBaseEntity@@UAEXXZ 10008560 f   cbase.obj
 0001:00007570       ?Intersects@CBaseEntity@@QAEHPAV1@@Z 10008570 f   cbase.obj
 0001:00007600       ?MakeDormant@CBaseEntity@@QAEXXZ 10008600 f   cbase.obj
 0001:00007660       ?IsDormant@CBaseEntity@@QAEHXZ 10008660 f   cbase.obj
 0001:00007670       ?IsInWorld@CBaseEntity@@UAEHXZ 10008670 f   cbase.obj
 0001:00007760       ?ShouldToggle@CBaseEntity@@QAEHW4USE_TYPE@@H@Z 10008760 f   cbase.obj
 0001:00007790       ?DamageDecal@CBaseEntity@@UAEHH@Z 10008790 f   cbase.obj
 0001:000077c0       ?Create@CBaseEntity@@SAPAV1@PADABVVector@@1PAUedict_s@@@Z 100087c0 f   cbase.obj
 0001:00007860       ?set_suicide_frame@@YAXPAUentvars_t@@@Z 10008860 f   client.obj
 0001:000078e0       ?ClientConnect@@YAHPAUedict_s@@PBD1QAD@Z 100088e0 f   client.obj
 0001:00007900       ?ClientDisconnect@@YAXPAUedict_s@@@Z 10008900 f   client.obj
 0001:000079d0       ?respawn@@YAXPAUentvars_t@@H@Z 100089d0 f   client.obj
 0001:00007a30       ?ClientKill@@YAXPAUedict_s@@@Z 10008a30 f   client.obj
 0001:00007aa0       ?ClientPutInServer@@YAXPAUedict_s@@@Z 10008aa0 f   client.obj
 0001:00007ad0       ?Host_Say@@YAXPAUedict_s@@H@Z 10008ad0 f   client.obj
 0001:00007de0       ?ClientCommand@@YAXPAUedict_s@@@Z 10008de0 f   client.obj
 0001:00008100       ?ClientUserInfoChanged@@YAXPAUedict_s@@PAD@Z 10009100 f   client.obj
 0001:00008280       ?ServerActivate@@YAXPAUedict_s@@HH@Z 10009280 f   client.obj
 0001:00008320       ?PlayerPreThink@@YAXPAUedict_s@@@Z 10009320 f   client.obj
 0001:00008340       ?PlayerPostThink@@YAXPAUedict_s@@@Z 10009340 f   client.obj
 0001:00008360       ?ParmsNewLevel@@YAXXZ      10009360 f   client.obj
 0001:00008370       ?ParmsChangeLevel@@YAXXZ   10009370 f   client.obj
 0001:000083a0       ?StartFrame@@YAXXZ         100093a0 f   client.obj
 0001:000083f0       ?ClientPrecache@@YAXXZ     100093f0 f   client.obj
 0001:00008770       ?GetGameDescription@@YAPBDXZ 10009770 f   client.obj
 0001:00008790       ?PlayerCustomization@@YAXPAUedict_s@@PAUcustomization_s@@@Z 10009790 f   client.obj
 0001:00008800       ?SpectatorConnect@@YAXPAUedict_s@@@Z 10009800 f   client.obj
 0001:00008820       ?SpectatorDisconnect@@YAXPAUedict_s@@@Z 10009820 f   client.obj
 0001:00008840       ?SpectatorThink@@YAXPAUedict_s@@@Z 10009840 f   client.obj
 0001:00008860       ?GetClassPtr@@YAPAVCBasePlayer@@PAV1@@Z 10009860 f i client.obj
 0001:000088c0       ?BodyTarget@CBasePlayer@@UAE?AVVector@@ABV2@@Z 100098c0 f i client.obj
 0001:00008940       ?StartSneaking@CBasePlayer@@UAEXXZ 10009940 f i client.obj
 0001:00008960       ?StopSneaking@CBasePlayer@@UAEXXZ 10009960 f i client.obj
 0001:00008980       ?IsSneaking@CBasePlayer@@UAEHXZ 10009980 f i client.obj
 0001:000089a0       ?IsAlive@CBasePlayer@@UAEHXZ 100099a0 f i client.obj
 0001:000089d0       ?ShouldFadeOnDeath@CBasePlayer@@UAEHXZ 100099d0 f i client.obj
 0001:000089e0       ?IsPlayer@CBasePlayer@@UAEHXZ 100099e0 f i client.obj
 0001:000089f0       ?IsNetClient@CBasePlayer@@UAEHXZ 100099f0 f i client.obj
 0001:00008a00       ?ObjectCaps@CBasePlayer@@UAEHXZ 10009a00 f i client.obj
 0001:00008a10       ?LimitVelocity@CGib@@QAEXXZ 10009a10 f   combat.obj
 0001:00008b10       ?SpawnStickyGibs@CGib@@SAXPAUentvars_t@@VVector@@H@Z 10009b10 f   combat.obj
 0001:00008ef0       ?SpawnHeadGib@CGib@@SAXPAUentvars_t@@@Z 10009ef0 f   combat.obj
 0001:00009330       ?SpawnRandomGibs@CGib@@SAXPAUentvars_t@@HH@Z 1000a330 f   combat.obj
 0001:00009730       ?HasHumanGibs@CBaseMonster@@UAEHXZ 1000a730 f   combat.obj
 0001:00009760       ?HasAlienGibs@CBaseMonster@@UAEHXZ 1000a760 f   combat.obj
 0001:00009790       ?FadeMonster@CBaseMonster@@UAEXXZ 1000a790 f   combat.obj
 0001:00009810       ?GibMonster@CBaseMonster@@UAEXXZ 1000a810 f   combat.obj
 0001:00009900       ?GetDeathActivity@CBaseMonster@@UAE?AW4Activity@@XZ 1000a900 f   combat.obj
 0001:00009bc0       ?GetSmallFlinchActivity@CBaseMonster@@QAE?AW4Activity@@XZ 1000abc0 f   combat.obj
 0001:00009c50       ?BecomeDead@CBaseMonster@@UAEXXZ 1000ac50 f   combat.obj
 0001:00009c90       ?ShouldGibMonster@CBaseMonster@@QAEHH@Z 1000ac90 f   combat.obj
 0001:00009cc0       ?CallGibMonster@CBaseMonster@@QAEXXZ 1000acc0 f   combat.obj
 0001:00009db0       ?Killed@CBaseMonster@@UAEXPAUentvars_t@@H@Z 1000adb0 f   combat.obj
 0001:00009ec0       ?SUB_StartFadeOut@CBaseEntity@@QAEXXZ 1000aec0 f   combat.obj
 0001:00009f30       ?SUB_FadeOut@CBaseEntity@@QAEXXZ 1000af30 f   combat.obj
 0001:00009fa0       ?WaitTillLand@CGib@@QAEXXZ 1000afa0 f   combat.obj
 0001:0000a040       ?BounceGibTouch@CGib@@QAEXPAVCBaseEntity@@@Z 1000b040 f   combat.obj
 0001:0000a200       ?StickyGibTouch@CGib@@QAEXPAVCBaseEntity@@@Z 1000b200 f   combat.obj
 0001:0000a3e0       ?Spawn@CGib@@QAEXPBD@Z     1000b3e0 f   combat.obj
 0001:0000a4f0       ?TakeHealth@CBaseMonster@@UAEHMH@Z 1000b4f0 f   combat.obj
 0001:0000a540       ?TakeDamage@CBaseMonster@@UAEHPAUentvars_t@@0MH@Z 1000b540 f   combat.obj
 0001:0000ab30       ?DeadTakeDamage@CBaseMonster@@QAEHPAUentvars_t@@0MH@Z 1000bb30 f   combat.obj
 0001:0000ad50       ?DamageForce@CBaseMonster@@QAEMM@Z 1000bd50 f   combat.obj
 0001:0000ad90       ?RadiusDamage@@YAXVVector@@PAUentvars_t@@1MMHH@Z 1000bd90 f   combat.obj
 0001:0000b050       ??GVector@@QBE?AV0@ABV0@@Z 1000c050 f i combat.obj
 0001:0000b090       ?Normalize@Vector@@QBE?AV1@XZ 1000c090 f i combat.obj
 0001:0000b120       ?RadiusDamage@CBaseMonster@@QAEXPAUentvars_t@@0MHH@Z 1000c120 f   combat.obj
 0001:0000b170       ?RadiusDamage@CBaseMonster@@QAEXVVector@@PAUentvars_t@@1MHH@Z 1000c170 f   combat.obj
 0001:0000b1c0       ?CheckTraceHullAttack@CBaseMonster@@QAEPAVCBaseEntity@@MHH@Z 1000c1c0 f   combat.obj
 0001:0000b2e0       ?FInViewCone@CBaseMonster@@UAEHPAVCBaseEntity@@@Z 1000c2e0 f   combat.obj
 0001:0000b3c0       ?FInViewCone@CBaseMonster@@UAEHPAVVector@@@Z 1000c3c0 f   combat.obj
 0001:0000b4a0       ?FVisible@CBaseEntity@@UAEHPAV1@@Z 1000c4a0 f   combat.obj
 0001:0000b5c0       ?FVisible@CBaseEntity@@UAEHABVVector@@@Z 1000c5c0 f   combat.obj
 0001:0000b640       ?TraceAttack@CBaseEntity@@UAEXPAUentvars_t@@MVVector@@PAUTraceResult@@H@Z 1000c640 f   combat.obj
 0001:0000b720       ?TraceAttack@CBaseMonster@@UAEXPAUentvars_t@@MVVector@@PAUTraceResult@@H@Z 1000c720 f   combat.obj
 0001:0000b810       ?FireBullets@CBaseEntity@@QAEXKVVector@@00MHHHPAUentvars_t@@@Z 1000c810 f   combat.obj
 0001:0000c250       ?TraceBleed@CBaseEntity@@UAEXMVVector@@PAUTraceResult@@H@Z 1000d250 f   combat.obj
 0001:0000c450       ?MakeDamageBloodDecal@CBaseMonster@@QAEXHMPAUTraceResult@@ABVVector@@@Z 1000d450 f   combat.obj
 0001:0000c5c0       ?GetClassPtr@@YAPAVCGib@@PAV1@@Z 1000d5c0 f i combat.obj
 0001:0000c610       ?Spawn@CBaseEntity@@UAEXXZ 1000d610 f i combat.obj
 0001:0000c620       ?ObjectCaps@CGib@@UAEHXZ   1000d620 f i combat.obj
 0001:0000c630       _crossbow_bolt             1000d630 f   crossbow.obj
 0001:0000c640       ?BoltCreate@CCrossbowBolt@@SAPAV1@XZ 1000d640 f   crossbow.obj
 0001:0000c670       ?Spawn@CCrossbowBolt@@EAEXXZ 1000d670 f   crossbow.obj
 0001:0000c740       ?Precache@CCrossbowBolt@@EAEXXZ 1000d740 f   crossbow.obj
 0001:0000c7a0       ?Classify@CCrossbowBolt@@EAEHXZ 1000d7a0 f   crossbow.obj
 0001:0000c7b0       ?BoltTouch@CCrossbowBolt@@AAEXPAVCBaseEntity@@@Z 1000d7b0 f   crossbow.obj
 0001:0000cc40       ?BubbleThink@CCrossbowBolt@@AAEXXZ 1000dc40 f   crossbow.obj
 0001:0000ccc0       ?ExplodeThink@CCrossbowBolt@@AAEXXZ 1000dcc0 f   crossbow.obj
 0001:0000cdc0       _weapon_crossbow           1000ddc0 f   crossbow.obj
 0001:0000cdd0       ?Spawn@CCrossbow@@UAEXXZ   1000ddd0 f   crossbow.obj
 0001:0000ce10       ?AddToPlayer@CCrossbow@@UAEHPAVCBasePlayer@@@Z 1000de10 f   crossbow.obj
 0001:0000ce70       ?Precache@CCrossbow@@UAEXXZ 1000de70 f   crossbow.obj
 0001:0000cec0       ?GetItemInfo@CCrossbow@@UAEHPAUItemInfo@@@Z 1000dec0 f   crossbow.obj
 0001:0000cf30       ?Deploy@CCrossbow@@UAEHXZ  1000df30 f   crossbow.obj
 0001:0000cf60       ?Holster@CCrossbow@@UAEXXZ 1000df60 f   crossbow.obj
 0001:0000cfc0       ?PrimaryAttack@CCrossbow@@UAEXXZ 1000dfc0 f   crossbow.obj
 0001:0000cff0       ?FireSniperBolt@CCrossbow@@QAEXXZ 1000dff0 f   crossbow.obj
 0001:0000d500       ?FireBolt@CCrossbow@@QAEXXZ 1000e500 f   crossbow.obj
 0001:0000d870       ?SecondaryAttack@CCrossbow@@UAEXXZ 1000e870 f   crossbow.obj
 0001:0000d8d0       ?Reload@CCrossbow@@UAEXXZ  1000e8d0 f   crossbow.obj
 0001:0000d950       ?WeaponIdle@CCrossbow@@UAEXXZ 1000e950 f   crossbow.obj
 0001:0000da30       _ammo_crossbow             1000ea30 f   crossbow.obj
 0001:0000da40       ?GetClassPtr@@YAPAVCCrossbowBolt@@PAV1@@Z 1000ea40 f i crossbow.obj
 0001:0000da90       ?GetClassPtr@@YAPAVCCrossbow@@PAV1@@Z 1000ea90 f i crossbow.obj
 0001:0000dae0       ?iItemSlot@CCrossbow@@UAEHXZ 1000eae0 f i crossbow.obj
 0001:0000daf0       ?GetClassPtr@@YAPAVCCrossbowAmmo@@PAV1@@Z 1000eaf0 f i crossbow.obj
 0001:0000db40       ?Spawn@CCrossbowAmmo@@EAEXXZ 1000eb40 f i crossbow.obj
 0001:0000db70       ?Precache@CCrossbowAmmo@@EAEXXZ 1000eb70 f i crossbow.obj
 0001:0000db90       ?AddAmmo@CCrossbowAmmo@@EAEHPAVCBaseEntity@@@Z 1000eb90 f i crossbow.obj
 0001:0000dbe0       ?Instance@CBaseEntity@@SAPAV1@PAUedict_s@@@Z 1000ebe0 f i crossbow.obj
 0001:0000dc00       ?CanHolster@CBasePlayerItem@@UAEHXZ 1000ec00 f i crossbow.obj
 0001:0000dc10       ?ItemPreFrame@CBasePlayerItem@@UAEXXZ 1000ec10 f i crossbow.obj
 0001:0000dc20       ?AddWeapon@CBasePlayerWeapon@@UAEHXZ 1000ec20 f i crossbow.obj
 0001:0000dc30       ?UpdateItemInfo@CBasePlayerWeapon@@UAEXXZ 1000ec30 f i crossbow.obj
 0001:0000dc40       ?ShouldWeaponIdle@CBasePlayerWeapon@@UAEHXZ 1000ec40 f i crossbow.obj
 0001:0000dc50       _weapon_crowbar            1000ec50 f   crowbar.obj
 0001:0000dc60       ?Spawn@CCrowbar@@UAEXXZ    1000ec60 f   crowbar.obj
 0001:0000dca0       ?Precache@CCrowbar@@UAEXXZ 1000eca0 f   crowbar.obj
 0001:0000dd10       ?GetItemInfo@CCrowbar@@UAEHPAUItemInfo@@@Z 1000ed10 f   crowbar.obj
 0001:0000dd60       ?Deploy@CCrowbar@@UAEHXZ   1000ed60 f   crowbar.obj
 0001:0000dd80       ?Holster@CCrowbar@@UAEXXZ  1000ed80 f   crowbar.obj
 0001:0000ddb0       ?FindHullIntersection@@YAXABVVector@@AAUTraceResult@@PAM2PAUedict_s@@@Z 1000edb0 f   crowbar.obj
 0001:0000dff0       ?PrimaryAttack@CCrowbar@@UAEXXZ 1000eff0 f   crowbar.obj
 0001:0000e020       ?Smack@CCrowbar@@QAEXXZ    1000f020 f   crowbar.obj
 0001:0000e030       ?SwingAgain@CCrowbar@@QAEXXZ 1000f030 f   crowbar.obj
 0001:0000e040       ?Swing@CCrowbar@@QAEHH@Z   1000f040 f   crowbar.obj
 0001:0000e630       ?GetClassPtr@@YAPAVCCrowbar@@PAV1@@Z 1000f630 f i crowbar.obj
 0001:0000e690       ?iItemSlot@CCrowbar@@UAEHXZ 1000f690 f i crowbar.obj
 0001:0000e6a0       ?SecondaryAttack@CBasePlayerWeapon@@UAEXXZ 1000f6a0 f i crowbar.obj
 0001:0000e6b0       ?Reload@CBasePlayerWeapon@@UAEXXZ 1000f6b0 f i crowbar.obj
 0001:0000e6c0       ?WeaponIdle@CBasePlayerWeapon@@UAEXXZ 1000f6c0 f i crowbar.obj
 0001:0000e6d0       ?Save@CBaseDoor@@UAEHAAVCSave@@@Z 1000f6d0 f   doors.obj
 0001:0000e700       ?Restore@CBaseDoor@@UAEHAAVCRestore@@@Z 1000f700 f   doors.obj
 0001:0000e730       ?PlayLockSounds@@YAXPAUentvars_t@@PAUlocksounds@@HH@Z 1000f730 f   doors.obj
 0001:0000e950       ?KeyValue@CBaseDoor@@UAEXPAUKeyValueData_s@@@Z 1000f950 f   doors.obj
 0001:0000eca0       _func_door                 1000fca0 f   doors.obj
 0001:0000ecb0       _func_water                1000fcb0 f   doors.obj
 0001:0000ecc0       ?Spawn@CBaseDoor@@UAEXXZ   1000fcc0 f   doors.obj
 0001:0000eea0       ?SetToggleState@CBaseDoor@@UAEXH@Z 1000fea0 f   doors.obj
 0001:0000eed0       ?Precache@CBaseDoor@@UAEXXZ 1000fed0 f   doors.obj
 0001:0000f400       ?DoorTouch@CBaseDoor@@QAEXPAVCBaseEntity@@@Z 10010400 f   doors.obj
 0001:0000f4d0       ?Use@CBaseDoor@@UAEXPAVCBaseEntity@@0W4USE_TYPE@@M@Z 100104d0 f   doors.obj
 0001:0000f510       ?DoorActivate@CBaseDoor@@QAEHXZ 10010510 f   doors.obj
 0001:0000f5d0       ?DoorGoUp@CBaseDoor@@QAEXXZ 100105d0 f   doors.obj
 0001:0000f840       ?DoorHitTop@CBaseDoor@@QAEXXZ 10010840 f   doors.obj
 0001:0000f970       ?DoorGoDown@CBaseDoor@@QAEXXZ 10010970 f   doors.obj
 0001:0000fa50       ?DoorHitBottom@CBaseDoor@@QAEXXZ 10010a50 f   doors.obj
 0001:0000fb50       ?Blocked@CBaseDoor@@UAEXPAVCBaseEntity@@@Z 10010b50 f   doors.obj
 0001:0000fe20       _func_door_rotating        10010e20 f   doors.obj
 0001:0000fe30       ?Spawn@CRotDoor@@UAEXXZ    10010e30 f   doors.obj
 0001:00010090       ?SetToggleState@CRotDoor@@UAEXH@Z 10011090 f   doors.obj
 0001:00010100       _momentary_door            10011100 f   doors.obj
 0001:00010110       ?Save@CMomentaryDoor@@UAEHAAVCSave@@@Z 10011110 f   doors.obj
 0001:00010140       ?Restore@CMomentaryDoor@@UAEHAAVCRestore@@@Z 10011140 f   doors.obj
 0001:00010170       ?Spawn@CMomentaryDoor@@UAEXXZ 10011170 f   doors.obj
 0001:00010320       ?Precache@CMomentaryDoor@@UAEXXZ 10011320 f   doors.obj
 0001:00010480       ?KeyValue@CMomentaryDoor@@UAEXPAUKeyValueData_s@@@Z 10011480 f   doors.obj
 0001:00010580       ?Use@CMomentaryDoor@@UAEXPAVCBaseEntity@@0W4USE_TYPE@@M@Z 10011580 f   doors.obj
 0001:00010750       ?GetClassPtr@@YAPAVCBaseDoor@@PAV1@@Z 10011750 f i doors.obj
 0001:000107b0       ?ObjectCaps@CBaseDoor@@UAEHXZ 100117b0 f i doors.obj
 0001:000107c0       ?GetClassPtr@@YAPAVCRotDoor@@PAV1@@Z 100117c0 f i doors.obj
 0001:00010820       ?GetClassPtr@@YAPAVCMomentaryDoor@@PAV1@@Z 10011820 f i doors.obj
 0001:00010880       ?ObjectCaps@CMomentaryDoor@@UAEHXZ 10011880 f i doors.obj
 0001:00010890       _info_target               10011890 f   effects.obj
 0001:000108a0       _env_bubbles               100118a0 f   effects.obj
 0001:000108b0       ?Save@CBubbling@@UAEHAAVCSave@@@Z 100118b0 f   effects.obj
 0001:000108e0       ?Restore@CBubbling@@UAEHAAVCRestore@@@Z 100118e0 f   effects.obj
 0001:00010910       ?Spawn@CBubbling@@UAEXXZ   10011910 f   effects.obj
 0001:00010a20       ?Precache@CBubbling@@UAEXXZ 10011a20 f   effects.obj
 0001:00010a40       ?Use@CBubbling@@UAEXPAVCBaseEntity@@0W4USE_TYPE@@M@Z 10011a40 f   effects.obj
 0001:00010aa0       ?KeyValue@CBubbling@@UAEXPAUKeyValueData_s@@@Z 10011aa0 f   effects.obj
 0001:00010bc0       ?FizzThink@CBubbling@@QAEXXZ 10011bc0 f   effects.obj
 0001:00010c70       _beam                      10011c70 f   effects.obj
 0001:00010c80       ?Spawn@CBeam@@UAEXXZ       10011c80 f   effects.obj
 0001:00010ca0       ?Precache@CBeam@@UAEXXZ    10011ca0 f   effects.obj
 0001:00010cf0       ?SetStartEntity@CBeam@@QAEXH@Z 10011cf0 f   effects.obj
 0001:00010d40       ?SetEndEntity@CBeam@@QAEXH@Z 10011d40 f   effects.obj
 0001:00010d90       ?GetStartPos@CBeam@@QAEABVVector@@XZ 10011d90 f   effects.obj
 0001:00010dd0       ?GetEndPos@CBeam@@QAEABVVector@@XZ 10011dd0 f   effects.obj
 0001:00010e20       ?BeamCreate@CBeam@@SAPAV1@PBDH@Z 10011e20 f   effects.obj
 0001:00010e60       ?BeamInit@CBeam@@QAEXPBDH@Z 10011e60 f   effects.obj
 0001:00010f20       ?PointsInit@CBeam@@QAEXABVVector@@0@Z 10011f20 f   effects.obj
 0001:00010fa0       ?HoseInit@CBeam@@QAEXABVVector@@0@Z 10011fa0 f   effects.obj
 0001:00011020       ?PointEntInit@CBeam@@QAEXABVVector@@H@Z 10012020 f   effects.obj
 0001:000110a0       ?EntsInit@CBeam@@QAEXHH@Z  100120a0 f   effects.obj
 0001:00011110       ?RelinkBeam@CBeam@@QAEXXZ  10012110 f   effects.obj
 0001:000112b0       ?TriggerTouch@CBeam@@QAEXPAVCBaseEntity@@@Z 100122b0 f   effects.obj
 0001:00011310       ?RandomTargetname@CBeam@@QAEPAVCBaseEntity@@PBD@Z 10012310 f   effects.obj
 0001:00011370       ?DoSparks@CBeam@@QAEXABVVector@@0@Z 10012370 f   effects.obj
 0001:000113b0       _env_lightning             100123b0 f   effects.obj
 0001:000113c0       _env_beam                  100123c0 f   effects.obj
 0001:000113d0       ?Save@CLightning@@UAEHAAVCSave@@@Z 100123d0 f   effects.obj
 0001:00011400       ?Restore@CLightning@@UAEHAAVCRestore@@@Z 10012400 f   effects.obj
 0001:00011430       ?Spawn@CLightning@@UAEXXZ  10012430 f   effects.obj
 0001:00011550       ?Precache@CLightning@@UAEXXZ 10012550 f   effects.obj
 0001:00011580       ?Activate@CLightning@@UAEXXZ 10012580 f   effects.obj
 0001:000115b0       ?KeyValue@CLightning@@UAEXPAUKeyValueData_s@@@Z 100125b0 f   effects.obj
 0001:00011950       ?ToggleUse@CLightning@@QAEXPAVCBaseEntity@@0W4USE_TYPE@@M@Z 10012950 f   effects.obj
 0001:00011a00       ?StrikeUse@CLightning@@QAEXPAVCBaseEntity@@0W4USE_TYPE@@M@Z 10012a00 f   effects.obj
 0001:00011a60       ?IsPointEntity@@YAHPAVCBaseEntity@@@Z 10012a60 f   effects.obj
 0001:00011b40       ?StrikeThink@CLightning@@QAEXXZ 10012b40 f   effects.obj
 0001:00011ef0       ?BeamDamage@CBeam@@QAEXPAUTraceResult@@@Z 10012ef0 f   effects.obj
 0001:00012010       ?DamageThink@CLightning@@QAEXXZ 10013010 f   effects.obj
 0001:00012060       ?Zap@CLightning@@QAEXABVVector@@0@Z 10013060 f   effects.obj
 0001:00012190       ?RandomArea@CLightning@@QAEXXZ 10013190 f   effects.obj
 0001:000125d0       ?RandomPoint@CLightning@@QAEXAAVVector@@@Z 100135d0 f   effects.obj
 0001:000127b0       ?BeamUpdateVars@CLightning@@QAEXXZ 100137b0 f   effects.obj
 0001:000129d0       _env_laser                 100139d0 f   effects.obj
 0001:000129e0       ?Save@CLaser@@UAEHAAVCSave@@@Z 100139e0 f   effects.obj
 0001:00012a10       ?Restore@CLaser@@UAEHAAVCRestore@@@Z 10013a10 f   effects.obj
 0001:00012a40       ?Spawn@CLaser@@UAEXXZ      10013a40 f   effects.obj
 0001:00012ba0       ?Precache@CLaser@@UAEXXZ   10013ba0 f   effects.obj
 0001:00012bf0       ?KeyValue@CLaser@@UAEXPAUKeyValueData_s@@@Z 10013bf0 f   effects.obj
 0001:00012ee0       ?IsOn@CLaser@@QAEHXZ       10013ee0 f   effects.obj
 0001:00012f00       ?TurnOff@CLaser@@QAEXXZ    10013f00 f   effects.obj
 0001:00012f30       ?TurnOn@CLaser@@QAEXXZ     10013f30 f   effects.obj
 0001:00012f80       ?Use@CLaser@@UAEXPAVCBaseEntity@@0W4USE_TYPE@@M@Z 10013f80 f   effects.obj
 0001:00012fc0       ?FireAtPoint@CLaser@@QAEXAAUTraceResult@@@Z 10013fc0 f   effects.obj
 0001:00013020       ?StrikeThink@CLaser@@QAEXXZ 10014020 f   effects.obj
 0001:000130b0       _env_glow                  100140b0 f   effects.obj
 0001:000130c0       ?Save@CGlow@@UAEHAAVCSave@@@Z 100140c0 f   effects.obj
 0001:000130f0       ?Restore@CGlow@@UAEHAAVCRestore@@@Z 100140f0 f   effects.obj
 0001:00013120       ?Spawn@CGlow@@UAEXXZ       10014120 f   effects.obj
 0001:00013220       ?Think@CGlow@@UAEXXZ       10014220 f   effects.obj
 0001:00013270       ?Animate@CGlow@@QAEXM@Z    10014270 f   effects.obj
 0001:000132a0       _env_sprite                100142a0 f   effects.obj
 0001:000132b0       ?Save@CSprite@@UAEHAAVCSave@@@Z 100142b0 f   effects.obj
 0001:000132e0       ?Restore@CSprite@@UAEHAAVCRestore@@@Z 100142e0 f   effects.obj
 0001:00013310       ?Spawn@CSprite@@UAEXXZ     10014310 f   effects.obj
 0001:000133f0       ?Precache@CSprite@@UAEXXZ  100143f0 f   effects.obj
 0001:00013480       ?SpriteInit@CSprite@@QAEXPBDABVVector@@@Z 10014480 f   effects.obj
 0001:000134c0       ?SpriteCreate@CSprite@@SAPAV1@PBDABVVector@@H@Z 100144c0 f   effects.obj
 0001:00013530       ?AnimateThink@CSprite@@QAEXXZ 10014530 f   effects.obj
 0001:00013580       ?AnimateUntilDead@CSprite@@QAEXXZ 10014580 f   effects.obj
 0001:000135c0       ?Expand@CSprite@@QAEXMM@Z  100145c0 f   effects.obj
 0001:00013600       ?ExpandThink@CSprite@@QAEXXZ 10014600 f   effects.obj
 0001:00013680       ?Animate@CSprite@@QAEXM@Z  10014680 f   effects.obj
 0001:000136f0       ?TurnOff@CSprite@@QAEXXZ   100146f0 f   effects.obj
 0001:00013710       ?TurnOn@CSprite@@QAEXXZ    10014710 f   effects.obj
 0001:00013790       ?Use@CSprite@@UAEXPAVCBaseEntity@@0W4USE_TYPE@@M@Z 10014790 f   effects.obj
 0001:000137e0       ?Save@CGibShooter@@UAEHAAVCSave@@@Z 100147e0 f   effects.obj
 0001:00013810       ?Restore@CGibShooter@@UAEHAAVCRestore@@@Z 10014810 f   effects.obj
 0001:00013840       _gibshooter                10014840 f   effects.obj
 0001:00013850       ?Precache@CGibShooter@@UAEXXZ 10014850 f   effects.obj
 0001:00013890       ?KeyValue@CGibShooter@@UAEXPAUKeyValueData_s@@@Z 10014890 f   effects.obj
 0001:00013a00       ?Use@CGibShooter@@UAEXPAVCBaseEntity@@0W4USE_TYPE@@M@Z 10014a00 f   effects.obj
 0001:00013a20       ?Spawn@CGibShooter@@UAEXXZ 10014a20 f   effects.obj
 0001:00013aa0       ?CreateGib@CGibShooter@@UAEPAVCGib@@XZ 10014aa0 f   effects.obj
 0001:00013b30       ?ShootThink@CGibShooter@@QAEXXZ 10014b30 f   effects.obj
 0001:00013f00       _env_shooter               10014f00 f   effects.obj
 0001:00013f10       ?KeyValue@CEnvShooter@@EAEXPAUKeyValueData_s@@@Z 10014f10 f   effects.obj
 0001:00014040       ?Precache@CEnvShooter@@EAEXXZ 10015040 f   effects.obj
 0001:00014080       ?CreateGib@CEnvShooter@@EAEPAVCGib@@XZ 10015080 f   effects.obj
 0001:00014170       _test_effect               10015170 f   effects.obj
 0001:00014180       ?Spawn@CTestEffect@@UAEXXZ 10015180 f   effects.obj
 0001:00014190       ?Precache@CTestEffect@@UAEXXZ 10015190 f   effects.obj
 0001:000141a0       ?TestThink@CTestEffect@@QAEXXZ 100151a0 f   effects.obj
 0001:00014460       ?Use@CTestEffect@@UAEXPAVCBaseEntity@@0W4USE_TYPE@@M@Z 10015460 f   effects.obj
 0001:00014490       _env_blood                 10015490 f   effects.obj
 0001:000144a0       ?Spawn@CBlood@@UAEXXZ      100154a0 f   effects.obj
 0001:000144e0       ?KeyValue@CBlood@@UAEXPAUKeyValueData_s@@@Z 100154e0 f   effects.obj
 0001:000145d0       ?Direction@CBlood@@QAE?AVVector@@XZ 100155d0 f   effects.obj
 0001:00014630       ?BloodPosition@CBlood@@QAE?AVVector@@PAVCBaseEntity@@@Z 10015630 f   effects.obj
 0001:00014740       ?Use@CBlood@@UAEXPAVCBaseEntity@@0W4USE_TYPE@@M@Z 10015740 f   effects.obj
 0001:000148d0       _env_shake                 100158d0 f   effects.obj
 0001:000148e0       ?Spawn@CShake@@UAEXXZ      100158e0 f   effects.obj
 0001:00014920       ?KeyValue@CShake@@UAEXPAUKeyValueData_s@@@Z 10015920 f   effects.obj
 0001:00014aa0       ?Use@CShake@@UAEXPAVCBaseEntity@@0W4USE_TYPE@@M@Z 10015aa0 f   effects.obj
 0001:00014ae0       _env_fade                  10015ae0 f   effects.obj
 0001:00014af0       ?Spawn@CFade@@UAEXXZ       10015af0 f   effects.obj
 0001:00014b20       ?KeyValue@CFade@@UAEXPAUKeyValueData_s@@@Z 10015b20 f   effects.obj
 0001:00014bf0       ?Use@CFade@@UAEXPAVCBaseEntity@@0W4USE_TYPE@@M@Z 10015bf0 f   effects.obj
 0001:00014cc0       _env_message               10015cc0 f   effects.obj
 0001:00014cd0       ?Spawn@CMessage@@UAEXXZ    10015cd0 f   effects.obj
 0001:00014d60       ?Precache@CMessage@@UAEXXZ 10015d60 f   effects.obj
 0001:00014d90       ?KeyValue@CMessage@@UAEXPAUKeyValueData_s@@@Z 10015d90 f   effects.obj
 0001:00014ec0       ?Use@CMessage@@UAEXPAVCBaseEntity@@0W4USE_TYPE@@M@Z 10015ec0 f   effects.obj
 0001:00014fc0       ?Precache@CEnvFunnel@@UAEXXZ 10015fc0 f   effects.obj
 0001:00014fe0       _env_funnel                10015fe0 f   effects.obj
 0001:00014ff0       ?Use@CEnvFunnel@@UAEXPAVCBaseEntity@@0W4USE_TYPE@@M@Z 10015ff0 f   effects.obj
 0001:00015080       ?Spawn@CEnvFunnel@@UAEXXZ  10016080 f   effects.obj
 0001:000150b0       ?Precache@CEnvBeverage@@UAEXXZ 100160b0 f   effects.obj
 0001:000150d0       _env_beverage              100160d0 f   effects.obj
 0001:000150e0       ?Use@CEnvBeverage@@UAEXPAVCBaseEntity@@0W4USE_TYPE@@M@Z 100160e0 f   effects.obj
 0001:00015190       ?Spawn@CEnvBeverage@@UAEXXZ 10016190 f   effects.obj
 0001:000151e0       ?Precache@CItemSoda@@UAEXXZ 100161e0 f   effects.obj
 0001:000151f0       _item_sodacan              100161f0 f   effects.obj
 0001:00015200       ?Spawn@CItemSoda@@UAEXXZ   10016200 f   effects.obj
 0001:000152b0       ?CanThink@CItemSoda@@QAEXXZ 100162b0 f   effects.obj
 0001:00015340       ?CanTouch@CItemSoda@@QAEXPAVCBaseEntity@@@Z 10016340 f   effects.obj
 0001:000153d0       ?GetClassPtr@@YAPAVCPointEntity@@PAV1@@Z 100163d0 f i effects.obj
 0001:00015420       ?GetClassPtr@@YAPAVCBubbling@@PAV1@@Z 10016420 f i effects.obj
 0001:00015470       ?ObjectCaps@CBubbling@@UAEHXZ 10016470 f i effects.obj
 0001:00015480       ?GetClassPtr@@YAPAVCBeam@@PAV1@@Z 10016480 f i effects.obj
 0001:000154d0       ?ObjectCaps@CBeam@@UAEHXZ  100164d0 f i effects.obj
 0001:000154f0       ?Center@CBeam@@UAE?AVVector@@XZ 100164f0 f i effects.obj
 0001:00015560       ?GetClassPtr@@YAPAVCLightning@@PAV1@@Z 10016560 f i effects.obj
 0001:000155b0       ?GetClassPtr@@YAPAVCLaser@@PAV1@@Z 100165b0 f i effects.obj
 0001:00015600       ?GetClassPtr@@YAPAVCGlow@@PAV1@@Z 10016600 f i effects.obj
 0001:00015650       ?GetClassPtr@@YAPAVCSprite@@PAV1@@Z 10016650 f i effects.obj
 0001:000156a0       ?ObjectCaps@CSprite@@UAEHXZ 100166a0 f i effects.obj
 0001:000156c0       ?GetClassPtr@@YAPAVCGibShooter@@PAV1@@Z 100166c0 f i effects.obj
 0001:00015710       ?GetClassPtr@@YAPAVCEnvShooter@@PAV1@@Z 10016710 f i effects.obj
 0001:00015760       ?GetClassPtr@@YAPAVCTestEffect@@PAV1@@Z 10016760 f i effects.obj
 0001:000157c0       ?GetClassPtr@@YAPAVCBlood@@PAV1@@Z 100167c0 f i effects.obj
 0001:00015810       ?GetClassPtr@@YAPAVCShake@@PAV1@@Z 10016810 f i effects.obj
 0001:00015860       ?GetClassPtr@@YAPAVCFade@@PAV1@@Z 10016860 f i effects.obj
 0001:000158b0       ?GetClassPtr@@YAPAVCMessage@@PAV1@@Z 100168b0 f i effects.obj
 0001:00015900       ?GetClassPtr@@YAPAVCEnvFunnel@@PAV1@@Z 10016900 f i effects.obj
 0001:00015950       ?GetClassPtr@@YAPAVCEnvBeverage@@PAV1@@Z 10016950 f i effects.obj
 0001:000159a0       ?GetClassPtr@@YAPAVCItemSoda@@PAV1@@Z 100169a0 f i effects.obj
 0001:000159f0       _weapon_egon               100169f0 f   egon.obj
 0001:00015a00       ?Save@CEgon@@UAEHAAVCSave@@@Z 10016a00 f   egon.obj
 0001:00015a30       ?Restore@CEgon@@UAEHAAVCRestore@@@Z 10016a30 f   egon.obj
 0001:00015a60       ?Spawn@CEgon@@UAEXXZ       10016a60 f   egon.obj
 0001:00015aa0       ?Precache@CEgon@@UAEXXZ    10016aa0 f   egon.obj
 0001:00015b20       ?Deploy@CEgon@@UAEHXZ      10016b20 f   egon.obj
 0001:00015b50       ?AddToPlayer@CEgon@@UAEHPAVCBasePlayer@@@Z 10016b50 f   egon.obj
 0001:00015bb0       ?Holster@CEgon@@UAEXXZ     10016bb0 f   egon.obj
 0001:00015bf0       ?GetItemInfo@CEgon@@UAEHPAUItemInfo@@@Z 10016bf0 f   egon.obj
 0001:00015c60       ?GetPulseInterval@CEgon@@QAEMXZ 10016c60 f   egon.obj
 0001:00015c80       ?GetDischargeInterval@CEgon@@QAEMXZ 10016c80 f   egon.obj
 0001:00015ca0       ?Attack@CEgon@@QAEXXZ      10016ca0 f   egon.obj
 0001:00015f30       ?PrimaryAttack@CEgon@@UAEXXZ 10016f30 f   egon.obj
 0001:00015f40       ?Fire@CEgon@@QAEXABVVector@@0@Z 10016f40 f   egon.obj
 0001:000164d0       ?UpdateEffect@CEgon@@QAEXABVVector@@0M@Z 100174d0 f   egon.obj
 0001:00016700       ?CreateEffect@CEgon@@QAEXXZ 10017700 f   egon.obj
 0001:00016980       ?DestroyEffect@CEgon@@QAEXXZ 10017980 f   egon.obj
 0001:00016a00       ?WeaponIdle@CEgon@@UAEXXZ  10017a00 f   egon.obj
 0001:00016aa0       ?EndAttack@CEgon@@QAEXXZ   10017aa0 f   egon.obj
 0001:00016b30       _ammo_egonclip             10017b30 f   egon.obj
 0001:00016b40       ?GetClassPtr@@YAPAVCEgon@@PAV1@@Z 10017b40 f i egon.obj
 0001:00016ba0       ?iItemSlot@CEgon@@UAEHXZ   10017ba0 f i egon.obj
 0001:00016bb0       ?GetClassPtr@@YAPAVCEgonAmmo@@PAV1@@Z 10017bb0 f i egon.obj
 0001:00016c00       ?Spawn@CEgonAmmo@@EAEXXZ   10017c00 f i egon.obj
 0001:00016c30       ?Precache@CEgonAmmo@@EAEXXZ 10017c30 f i egon.obj
 0001:00016c50       ?AddAmmo@CEgonAmmo@@EAEHPAVCBaseEntity@@@Z 10017c50 f i egon.obj
 0001:00016ca0       _spark_shower              10017ca0 f   explode.obj
 0001:00016cb0       ?Spawn@CShower@@EAEXXZ     10017cb0 f   explode.obj
 0001:00016e30       ?Think@CShower@@EAEXXZ     10017e30 f   explode.obj
 0001:00016ec0       ?Touch@CShower@@EAEXPAVCBaseEntity@@@Z 10017ec0 f   explode.obj
 0001:00016fa0       ?Save@CEnvExplosion@@UAEHAAVCSave@@@Z 10017fa0 f   explode.obj
 0001:00016fd0       ?Restore@CEnvExplosion@@UAEHAAVCRestore@@@Z 10017fd0 f   explode.obj
 0001:00017000       _env_explosion             10018000 f   explode.obj
 0001:00017010       ?KeyValue@CEnvExplosion@@UAEXPAUKeyValueData_s@@@Z 10018010 f   explode.obj
 0001:00017090       ?Spawn@CEnvExplosion@@UAEXXZ 10018090 f   explode.obj
 0001:000170f0       ?Use@CEnvExplosion@@UAEXPAVCBaseEntity@@0W4USE_TYPE@@M@Z 100180f0 f   explode.obj
 0001:000173f0       ?Smoke@CEnvExplosion@@QAEXXZ 100183f0 f   explode.obj
 0001:00017490       ?ExplosionCreate@@YAXABVVector@@0PAUedict_s@@HH@Z 10018490 f   explode.obj
 0001:00017530       ?GetClassPtr@@YAPAVCShower@@PAV1@@Z 10018530 f i explode.obj
 0001:00017580       ?ObjectCaps@CShower@@EAEHXZ 10018580 f i explode.obj
 0001:00017590       ?GetClassPtr@@YAPAVCEnvExplosion@@PAV1@@Z 10018590 f i explode.obj
 0001:000175f0       ?KeyValue@CBreakable@@UAEXPAUKeyValueData_s@@@Z 100185f0 f   func_break.obj
 0001:00017910       _func_breakable            10018910 f   func_break.obj
 0001:00017920       ?Save@CBreakable@@UAEHAAVCSave@@@Z 10018920 f   func_break.obj
 0001:00017950       ?Restore@CBreakable@@UAEHAAVCRestore@@@Z 10018950 f   func_break.obj
 0001:00017980       ?Spawn@CBreakable@@UAEXXZ  10018980 f   func_break.obj
 0001:00017a40       ?MaterialSoundList@CBreakable@@SAPAPBDW4Materials@@AAH@Z 10018a40 f   func_break.obj
 0001:00017ae0       ?MaterialSoundPrecache@CBreakable@@SAXW4Materials@@@Z 10018ae0 f   func_break.obj
 0001:00017b30       ?MaterialSoundRandom@CBreakable@@SAXPAUedict_s@@W4Materials@@M@Z 10018b30 f   func_break.obj
 0001:00017b90       ?Precache@CBreakable@@UAEXXZ 10018b90 f   func_break.obj
 0001:00017d20       ?DamageSound@CBreakable@@QAEXXZ 10018d20 f   func_break.obj
 0001:00017ec0       ?BreakTouch@CBreakable@@QAEXPAVCBaseEntity@@@Z 10018ec0 f   func_break.obj
 0001:00017fd0       ?Use@CBreakable@@UAEXPAVCBaseEntity@@0W4USE_TYPE@@M@Z 10018fd0 f   func_break.obj
 0001:00018020       ?TraceAttack@CBreakable@@UAEXPAUentvars_t@@MVVector@@PAUTraceResult@@H@Z 10019020 f   func_break.obj
 0001:00018110       ?TakeDamage@CBreakable@@UAEHPAUentvars_t@@0MH@Z 10019110 f   func_break.obj
 0001:00018380       ?Die@CBreakable@@QAEXXZ    10019380 f   func_break.obj
 0001:00018930       ?IsBreakable@CBreakable@@QAEHXZ 10019930 f   func_break.obj
 0001:00018940       ?DamageDecal@CBreakable@@UAEHH@Z 10019940 f   func_break.obj
 0001:00018980       ?Save@CPushable@@UAEHAAVCSave@@@Z 10019980 f   func_break.obj
 0001:000189b0       ?Restore@CPushable@@UAEHAAVCRestore@@@Z 100199b0 f   func_break.obj
 0001:000189e0       _func_pushable             100199e0 f   func_break.obj
 0001:000189f0       ?Spawn@CPushable@@UAEXXZ   100199f0 f   func_break.obj
 0001:00018b00       ?Precache@CPushable@@UAEXXZ 10019b00 f   func_break.obj
 0001:00018b40       ?KeyValue@CPushable@@UAEXPAUKeyValueData_s@@@Z 10019b40 f   func_break.obj
 0001:00018d70       ?Use@CPushable@@UAEXPAVCBaseEntity@@0W4USE_TYPE@@M@Z 10019d70 f   func_break.obj
 0001:00018e00       ?Touch@CPushable@@UAEXPAVCBaseEntity@@@Z 10019e00 f   func_break.obj
 0001:00018e70       ?Move@CPushable@@QAEXPAVCBaseEntity@@H@Z 10019e70 f   func_break.obj
 0001:00019050       ?TakeDamage@CPushable@@UAEHPAUentvars_t@@0MH@Z 1001a050 f   func_break.obj
 0001:00019080       ?GetClassPtr@@YAPAVCBreakable@@PAV1@@Z 1001a080 f i func_break.obj
 0001:000190d0       ?GetClassPtr@@YAPAVCPushable@@PAV1@@Z 1001a0d0 f i func_break.obj
 0001:00019120       ?ObjectCaps@CPushable@@UAEHXZ 1001a120 f i func_break.obj
 0001:00019130       ?ObjectCaps@CBreakable@@UAEHXZ 1001a130 f i func_break.obj
 0001:00019140       ?Save@CFuncTank@@UAEHAAVCSave@@@Z 1001a140 f   func_tank.obj
 0001:00019170       ?Restore@CFuncTank@@UAEHAAVCRestore@@@Z 1001a170 f   func_tank.obj
 0001:00019250       ?Spawn@CFuncTank@@UAEXXZ   1001a250 f   func_tank.obj
 0001:000194c0       ?Precache@CFuncTank@@UAEXXZ 1001a4c0 f   func_tank.obj
 0001:00019530       ?KeyValue@CFuncTank@@UAEXPAUKeyValueData_s@@@Z 1001a530 f   func_tank.obj
 0001:00019c10       ?OnControls@CFuncTank@@UAEHPAUentvars_t@@@Z 1001ac10 f   func_tank.obj
 0001:00019c70       ?StartControl@CFuncTank@@QAEHPAVCBasePlayer@@@Z 1001ac70 f   func_tank.obj
 0001:00019d30       ?StopControl@CFuncTank@@QAEXXZ 1001ad30 f   func_tank.obj
 0001:00019db0       ?ControllerPostFrame@CFuncTank@@QAEXXZ 1001adb0 f   func_tank.obj
 0001:00019ff0       ?Use@CFuncTank@@UAEXPAVCBaseEntity@@0W4USE_TYPE@@M@Z 1001aff0 f   func_tank.obj
 0001:0001a0d0       ?FindTarget@CFuncTank@@QAEPAUedict_s@@PAU2@@Z 1001b0d0 f   func_tank.obj
 0001:0001a0e0       ?InRange@CFuncTank@@QAEHM@Z 1001b0e0 f   func_tank.obj
 0001:0001a120       ?Think@CFuncTank@@UAEXXZ   1001b120 f   func_tank.obj
 0001:0001a190       ?TrackTarget@CFuncTank@@QAEXXZ 1001b190 f   func_tank.obj
 0001:0001a9b0       ?AdjustAnglesForBarrel@CFuncTank@@QAEXAAVVector@@M@Z 1001b9b0 f   func_tank.obj
 0001:0001aa40       ?Fire@CFuncTank@@UAEXABVVector@@0PAUentvars_t@@@Z 1001ba40 f   func_tank.obj
 0001:0001ac60       ?TankTrace@CFuncTank@@QAEXABVVector@@00AAUTraceResult@@@Z 1001bc60 f   func_tank.obj
 0001:0001ae80       ?StartRotSound@CFuncTank@@QAEXXZ 1001be80 f   func_tank.obj
 0001:0001aee0       ?StopRotSound@CFuncTank@@QAEXXZ 1001bee0 f   func_tank.obj
 0001:0001af40       _func_tank                 1001bf40 f   func_tank.obj
 0001:0001af50       ?Fire@CFuncTankGun@@UAEXABVVector@@0PAUentvars_t@@@Z 1001bf50 f   func_tank.obj
 0001:0001b080       _func_tanklaser            1001c080 f   func_tank.obj
 0001:0001b090       ?Save@CFuncTankLaser@@UAEHAAVCSave@@@Z 1001c090 f   func_tank.obj
 0001:0001b0c0       ?Restore@CFuncTankLaser@@UAEHAAVCRestore@@@Z 1001c0c0 f   func_tank.obj
 0001:0001b0f0       ?Activate@CFuncTankLaser@@UAEXXZ 1001c0f0 f   func_tank.obj
 0001:0001b130       ?KeyValue@CFuncTankLaser@@UAEXPAUKeyValueData_s@@@Z 1001c130 f   func_tank.obj
 0001:0001b1b0       ?GetLaser@CFuncTankLaser@@QAEPAVCLaser@@XZ 1001c1b0 f   func_tank.obj
 0001:0001b2a0       ?Think@CFuncTankLaser@@UAEXXZ 1001c2a0 f   func_tank.obj
 0001:0001b2d0       ?Fire@CFuncTankLaser@@UAEXABVVector@@0PAUentvars_t@@@Z 1001c2d0 f   func_tank.obj
 0001:0001b410       _func_tankrocket           1001c410 f   func_tank.obj
 0001:0001b420       ?Precache@CFuncTankRocket@@UAEXXZ 1001c420 f   func_tank.obj
 0001:0001b440       ?Fire@CFuncTankRocket@@UAEXABVVector@@0PAUentvars_t@@@Z 1001c440 f   func_tank.obj
 0001:0001b4d0       _func_tankmortar           1001c4d0 f   func_tank.obj
 0001:0001b4e0       ?KeyValue@CFuncTankMortar@@UAEXPAUKeyValueData_s@@@Z 1001c4e0 f   func_tank.obj
 0001:0001b560       ?Fire@CFuncTankMortar@@UAEXABVVector@@0PAUentvars_t@@@Z 1001c560 f   func_tank.obj
 0001:0001b630       _func_tankcontrols         1001c630 f   func_tank.obj
 0001:0001b640       ?Save@CFuncTankControls@@UAEHAAVCSave@@@Z 1001c640 f   func_tank.obj
 0001:0001b670       ?Restore@CFuncTankControls@@UAEHAAVCRestore@@@Z 1001c670 f   func_tank.obj
 0001:0001b6a0       ?ObjectCaps@CFuncTankControls@@UAEHXZ 1001c6a0 f   func_tank.obj
 0001:0001b6b0       ?Use@CFuncTankControls@@UAEXPAVCBaseEntity@@0W4USE_TYPE@@M@Z 1001c6b0 f   func_tank.obj
 0001:0001b6e0       ?Think@CFuncTankControls@@UAEXXZ 1001c6e0 f   func_tank.obj
 0001:0001b790       ?Spawn@CFuncTankControls@@UAEXXZ 1001c790 f   func_tank.obj
 0001:0001b830       ?GetClassPtr@@YAPAVCFuncTankGun@@PAV1@@Z 1001c830 f i func_tank.obj
 0001:0001b890       ?UpdateTargetPosition@CFuncTank@@UAE?AVVector@@PAVCBaseEntity@@@Z 1001c890 f i func_tank.obj
 0001:0001b8d0       ?ObjectCaps@CFuncTank@@UAEHXZ 1001c8d0 f i func_tank.obj
 0001:0001b8e0       ?GetClassPtr@@YAPAVCFuncTankLaser@@PAV1@@Z 1001c8e0 f i func_tank.obj
 0001:0001b940       ?GetClassPtr@@YAPAVCFuncTankRocket@@PAV1@@Z 1001c940 f i func_tank.obj
 0001:0001b9a0       ?GetClassPtr@@YAPAVCFuncTankMortar@@PAV1@@Z 1001c9a0 f i func_tank.obj
 0001:0001ba00       ?GetClassPtr@@YAPAVCFuncTankControls@@PAV1@@Z 1001ca00 f i func_tank.obj
 0001:0001ba50       ?GameDLLInit@@YAXXZ        1001ca50 f   game.obj
 0001:0001c620       ?CanHaveAmmo@CGameRules@@UAEHPAVCBasePlayer@@PBDH@Z 1001d620 f   gamerules.obj
 0001:0001c660       ?GetPlayerSpawnSpot@CGameRules@@UAEPAUedict_s@@PAVCBasePlayer@@@Z 1001d660 f   gamerules.obj
 0001:0001c770       ?CanHavePlayerItem@CGameRules@@UAEHPAVCBasePlayer@@PAVCBasePlayerItem@@@Z 1001d770 f   gamerules.obj
 0001:0001c7e0       ?RefreshSkillData@CGameRules@@UAEXXZ 1001d7e0 f   gamerules.obj
 0001:0001cd70       ?InstallGameRules@@YAPAVCGameRules@@XZ 1001dd70 f   gamerules.obj
 0001:0001cec0       _weapon_gauss              1001dec0 f   gauss.obj
 0001:0001ced0       ?Save@CGauss@@UAEHAAVCSave@@@Z 1001ded0 f   gauss.obj
 0001:0001cf00       ?Restore@CGauss@@UAEHAAVCRestore@@@Z 1001df00 f   gauss.obj
 0001:0001cf30       ?GetFullChargeTime@CGauss@@QAEMXZ 1001df30 f   gauss.obj
 0001:0001cf50       ?Spawn@CGauss@@UAEXXZ      1001df50 f   gauss.obj
 0001:0001cf90       ?Precache@CGauss@@UAEXXZ   1001df90 f   gauss.obj
 0001:0001d030       ?AddToPlayer@CGauss@@UAEHPAVCBasePlayer@@@Z 1001e030 f   gauss.obj
 0001:0001d090       ?GetItemInfo@CGauss@@UAEHPAUItemInfo@@@Z 1001e090 f   gauss.obj
 0001:0001d100       ?Deploy@CGauss@@UAEHXZ     1001e100 f   gauss.obj
 0001:0001d120       ?Holster@CGauss@@UAEXXZ    1001e120 f   gauss.obj
 0001:0001d180       ?PrimaryAttack@CGauss@@UAEXXZ 1001e180 f   gauss.obj
 0001:0001d250       ?SecondaryAttack@CGauss@@UAEXXZ 1001e250 f   gauss.obj
 0001:0001d6b0       ?StartFire@CGauss@@QAEXXZ  1001e6b0 f   gauss.obj
 0001:0001d980       ?Fire@CGauss@@QAEXVVector@@0M@Z 1001e980 f   gauss.obj
 0001:0001e7b0       ?WeaponIdle@CGauss@@UAEXXZ 1001f7b0 f   gauss.obj
 0001:0001e980       _ammo_gaussclip            1001f980 f   gauss.obj
 0001:0001e990       ?GetClassPtr@@YAPAVCGauss@@PAV1@@Z 1001f990 f i gauss.obj
 0001:0001e9f0       ?iItemSlot@CGauss@@UAEHXZ  1001f9f0 f i gauss.obj
 0001:0001ea00       ?GetClassPtr@@YAPAVCGaussAmmo@@PAV1@@Z 1001fa00 f i gauss.obj
 0001:0001ea50       ?Spawn@CGaussAmmo@@EAEXXZ  1001fa50 f i gauss.obj
 0001:0001ea80       ?Precache@CGaussAmmo@@EAEXXZ 1001fa80 f i gauss.obj
 0001:0001eaa0       ?AddAmmo@CGaussAmmo@@EAEHPAVCBaseEntity@@@Z 1001faa0 f i gauss.obj
 0001:0001eaf0       _grenade                   1001faf0 f   ggrenade.obj
 0001:0001eb00       ?Explode@CGrenade@@QAEXVVector@@0@Z 1001fb00 f   ggrenade.obj
 0001:0001eb70       ?Explode@CGrenade@@QAEXPAUTraceResult@@H@Z 1001fb70 f   ggrenade.obj
 0001:0001ee80       ?Smoke@CGrenade@@QAEXXZ    1001fe80 f   ggrenade.obj
 0001:0001efb0       ?Killed@CGrenade@@UAEXPAUentvars_t@@H@Z 1001ffb0 f   ggrenade.obj
 0001:0001efc0       ?DetonateUse@CGrenade@@QAEXPAVCBaseEntity@@0W4USE_TYPE@@M@Z 1001ffc0 f   ggrenade.obj
 0001:0001efe0       ?PreDetonate@CGrenade@@QAEXXZ 1001ffe0 f   ggrenade.obj
 0001:0001f020       ?Detonate@CGrenade@@QAEXXZ 10020020 f   ggrenade.obj
 0001:0001f0d0       ?ExplodeTouch@CGrenade@@QAEXPAVCBaseEntity@@@Z 100200d0 f   ggrenade.obj
 0001:0001f320       ?DangerSoundThink@CGrenade@@QAEXXZ 10020320 f   ggrenade.obj
 0001:0001f450       ?BounceTouch@CGrenade@@QAEXPAVCBaseEntity@@@Z 10020450 f   ggrenade.obj
 0001:0001f740       ?SlideTouch@CGrenade@@QAEXPAVCBaseEntity@@@Z 10020740 f   ggrenade.obj
 0001:0001f7d0       ?BounceSound@CGrenade@@UAEXXZ 100207d0 f   ggrenade.obj
 0001:0001f870       ?TumbleThink@CGrenade@@QAEXXZ 10020870 f   ggrenade.obj
 0001:0001f9c0       ?Spawn@CGrenade@@UAEXXZ    100209c0 f   ggrenade.obj
 0001:0001fa70       ?ShootContact@CGrenade@@SAPAV1@PAUentvars_t@@VVector@@1@Z 10020a70 f   ggrenade.obj
 0001:0001fb40       ?ShootTimed@CGrenade@@SAPAV1@PAUentvars_t@@VVector@@1M@Z 10020b40 f   ggrenade.obj
 0001:0001fcb0       ?ShootSatchelCharge@CGrenade@@SAPAV1@PAUentvars_t@@VVector@@1@Z 10020cb0 f   ggrenade.obj
 0001:0001fdf0       ?UseSatchelCharges@CGrenade@@SAXPAUentvars_t@@W4SATCHELCODE@1@@Z 10020df0 f   ggrenade.obj
 0001:0001feb0       ?GetClassPtr@@YAPAVCGrenade@@PAV1@@Z 10020eb0 f i ggrenade.obj
 0001:0001ff10       ?BloodColor@CGrenade@@UAEHXZ 10020f10 f i ggrenade.obj
 0001:0001ff70       _weapon_glock              10020f70 f   glock.obj
 0001:0001ff80       _weapon_9mmhandgun         10020f80 f   glock.obj
 0001:0001ff90       ?Spawn@CGlock@@UAEXXZ      10020f90 f   glock.obj
 0001:0001fff0       ?Precache@CGlock@@UAEXXZ   10020ff0 f   glock.obj
 0001:00020060       ?GetItemInfo@CGlock@@UAEHPAUItemInfo@@@Z 10021060 f   glock.obj
 0001:000200d0       ?Deploy@CGlock@@UAEHXZ     100210d0 f   glock.obj
 0001:000200f0       ?SecondaryAttack@CGlock@@UAEXXZ 100210f0 f   glock.obj
 0001:00020110       ?PrimaryAttack@CGlock@@UAEXXZ 10021110 f   glock.obj
 0001:00020130       ?GlockFire@CGlock@@QAEXMMH@Z 10021130 f   glock.obj
 0001:000207f0       ?Reload@CGlock@@UAEXXZ     100217f0 f   glock.obj
 0001:00020840       ?WeaponIdle@CGlock@@UAEXXZ 10021840 f   glock.obj
 0001:00020920       _ammo_glockclip            10021920 f   glock.obj
 0001:00020930       _ammo_9mmclip              10021930 f   glock.obj
 0001:00020940       ?GetClassPtr@@YAPAVCGlock@@PAV1@@Z 10021940 f i glock.obj
 0001:00020990       ?iItemSlot@CGlock@@UAEHXZ  10021990 f i glock.obj
 0001:000209a0       ?GetClassPtr@@YAPAVCGlockAmmo@@PAV1@@Z 100219a0 f i glock.obj
 0001:000209f0       ?Spawn@CGlockAmmo@@EAEXXZ  100219f0 f i glock.obj
 0001:00020a20       ?Precache@CGlockAmmo@@EAEXXZ 10021a20 f i glock.obj
 0001:00020a40       ?AddAmmo@CGlockAmmo@@EAEHPAVCBaseEntity@@@Z 10021a40 f i glock.obj
 0001:00020aa0       ?FBoxVisible@@YAHPAUentvars_t@@0AAVVector@@M@Z 10021aa0 f   h_ai.obj
 0001:00020c20       ?VecCheckToss@@YA?AVVector@@PAUentvars_t@@ABV1@V1@M@Z 10021c20 f   h_ai.obj
 0001:000211b0       ?VecCheckThrow@@YA?AVVector@@PAUentvars_t@@ABV1@V1@MM@Z 100221b0 f   h_ai.obj
 0001:00021430       ?Save@CRecharge@@UAEHAAVCSave@@@Z 10022430 f   h_battery.obj
 0001:00021460       ?Restore@CRecharge@@UAEHAAVCRestore@@@Z 10022460 f   h_battery.obj
 0001:00021490       _func_recharge             10022490 f   h_battery.obj
 0001:000214a0       ?KeyValue@CRecharge@@UAEXPAUKeyValueData_s@@@Z 100224a0 f   h_battery.obj
 0001:00021620       ?Spawn@CRecharge@@UAEXXZ   10022620 f   h_battery.obj
 0001:000216b0       ?Precache@CRecharge@@UAEXXZ 100226b0 f   h_battery.obj
 0001:000216e0       ?Use@CRecharge@@UAEXPAVCBaseEntity@@0W4USE_TYPE@@M@Z 100226e0 f   h_battery.obj
 0001:00021960       ?Recharge@CRecharge@@QAEXXZ 10022960 f   h_battery.obj
 0001:00021990       ?Off@CRecharge@@QAEXXZ     10022990 f   h_battery.obj
 0001:00021a20       ?GetClassPtr@@YAPAVCRecharge@@PAV1@@Z 10022a20 f i h_battery.obj
 0001:00021a80       ?ObjectCaps@CRecharge@@UAEHXZ 10022a80 f i h_battery.obj
 0001:00021a90       ?Save@CCycler@@UAEHAAVCSave@@@Z 10022a90 f   h_cycler.obj
 0001:00021ac0       ?Restore@CCycler@@UAEHAAVCRestore@@@Z 10022ac0 f   h_cycler.obj
 0001:00021af0       _cycler                    10022af0 f   h_cycler.obj
 0001:00021b00       _cycler_prdroid            10022b00 f   h_cycler.obj
 0001:00021b10       ?Spawn@CCyclerProbe@@UAEXXZ 10022b10 f   h_cycler.obj
 0001:00021bc0       ?GenericCyclerSpawn@CCycler@@QAEXPADVVector@@1@Z 10022bc0 f   h_cycler.obj
 0001:00021c70       ?Spawn@CCycler@@UAEXXZ     10022c70 f   h_cycler.obj
 0001:00021d40       ?Think@CCycler@@UAEXXZ     10022d40 f   h_cycler.obj
 0001:00021dd0       ?Use@CCycler@@UAEXPAVCBaseEntity@@0W4USE_TYPE@@M@Z 10022dd0 f   h_cycler.obj
 0001:00021e10       ?TakeDamage@CCycler@@UAEHPAUentvars_t@@0MH@Z 10022e10 f   h_cycler.obj
 0001:00021ec0       _cycler_sprite             10022ec0 f   h_cycler.obj
 0001:00021ed0       ?Save@CCyclerSprite@@UAEHAAVCSave@@@Z 10022ed0 f   h_cycler.obj
 0001:00021f00       ?Restore@CCyclerSprite@@UAEHAAVCRestore@@@Z 10022f00 f   h_cycler.obj
 0001:00021f30       ?Spawn@CCyclerSprite@@UAEXXZ 10022f30 f   h_cycler.obj
 0001:00022000       ?Think@CCyclerSprite@@UAEXXZ 10023000 f   h_cycler.obj
 0001:00022060       ?Use@CCyclerSprite@@UAEXPAVCBaseEntity@@0W4USE_TYPE@@M@Z 10023060 f   h_cycler.obj
 0001:000220a0       ?TakeDamage@CCyclerSprite@@UAEHPAUentvars_t@@0MH@Z 100230a0 f   h_cycler.obj
 0001:000220d0       ?Animate@CCyclerSprite@@QAEXM@Z 100230d0 f   h_cycler.obj
 0001:00022110       _cycler_weapon             10023110 f   h_cycler.obj
 0001:00022120       ?Spawn@CWeaponCycler@@UAEXXZ 10023120 f   h_cycler.obj
 0001:00022200       ?Deploy@CWeaponCycler@@UAEHXZ 10023200 f   h_cycler.obj
 0001:00022250       ?Holster@CWeaponCycler@@UAEXXZ 10023250 f   h_cycler.obj
 0001:00022270       ?PrimaryAttack@CWeaponCycler@@UAEXXZ 10023270 f   h_cycler.obj
 0001:000222a0       ?SecondaryAttack@CWeaponCycler@@UAEXXZ 100232a0 f   h_cycler.obj
 0001:00022350       ?Save@CWreckage@@EAEHAAVCSave@@@Z 10023350 f   h_cycler.obj
 0001:00022380       ?Restore@CWreckage@@EAEHAAVCRestore@@@Z 10023380 f   h_cycler.obj
 0001:000223b0       _cycler_wreckage           100233b0 f   h_cycler.obj
 0001:000223c0       ?Spawn@CWreckage@@EAEXXZ   100233c0 f   h_cycler.obj
 0001:00022470       ?Precache@CWreckage@@EAEXXZ 10023470 f   h_cycler.obj
 0001:000224a0       ?Think@CWreckage@@EAEXXZ   100234a0 f   h_cycler.obj
 0001:00022610       ?GetClassPtr@@YAPAVCGenericCycler@@PAV1@@Z 10023610 f i h_cycler.obj
 0001:00022670       ?ObjectCaps@CCycler@@UAEHXZ 10023670 f i h_cycler.obj
 0001:00022680       ?IsAlive@CCycler@@UAEHXZ   10023680 f i h_cycler.obj
 0001:00022690       ?Spawn@CGenericCycler@@UAEXXZ 10023690 f i h_cycler.obj
 0001:00022710       ?GetClassPtr@@YAPAVCCyclerProbe@@PAV1@@Z 10023710 f i h_cycler.obj
 0001:00022770       ?GetClassPtr@@YAPAVCCyclerSprite@@PAV1@@Z 10023770 f i h_cycler.obj
 0001:000227c0       ?ObjectCaps@CCyclerSprite@@UAEHXZ 100237c0 f i h_cycler.obj
 0001:000227d0       ?GetClassPtr@@YAPAVCWeaponCycler@@PAV1@@Z 100237d0 f i h_cycler.obj
 0001:00022830       ?iItemSlot@CWeaponCycler@@UAEHXZ 10023830 f i h_cycler.obj
 0001:00022840       ?GetItemInfo@CWeaponCycler@@UAEHPAUItemInfo@@@Z 10023840 f i h_cycler.obj
 0001:00022850       ?GetClassPtr@@YAPAVCWreckage@@PAV1@@Z 10023850 f i h_cycler.obj
 0001:000228b0       _DllMain@12                100238b0 f   h_export.obj
 0001:000228c0       ?GiveFnptrsToDll@@YGXPAUenginefuncs_s@@PAUglobalvars_t@@@Z 100238c0 f   h_export.obj
 0001:000228e0       _weapon_handgrenade        100238e0 f   handgrenade.obj
 0001:000228f0       ?Spawn@CHandGrenade@@UAEXXZ 100238f0 f   handgrenade.obj
 0001:00022940       ?Precache@CHandGrenade@@UAEXXZ 10023940 f   handgrenade.obj
 0001:00022970       ?GetItemInfo@CHandGrenade@@UAEHPAUItemInfo@@@Z 10023970 f   handgrenade.obj
 0001:000229e0       ?Deploy@CHandGrenade@@UAEHXZ 100239e0 f   handgrenade.obj
 0001:00022a00       ?CanHolster@CHandGrenade@@UAEHXZ 10023a00 f   handgrenade.obj
 0001:00022a20       ?Holster@CHandGrenade@@UAEXXZ 10023a20 f   handgrenade.obj
 0001:00022ac0       ?PrimaryAttack@CHandGrenade@@UAEXXZ 10023ac0 f   handgrenade.obj
 0001:00022b20       ?WeaponIdle@CHandGrenade@@UAEXXZ 10023b20 f   handgrenade.obj
 0001:00022ec0       ?GetClassPtr@@YAPAVCHandGrenade@@PAV1@@Z 10023ec0 f i handgrenade.obj
 0001:00022f20       ?iItemSlot@CHandGrenade@@UAEHXZ 10023f20 f i handgrenade.obj
 0001:00022f30       _item_healthkit            10023f30 f   healthkit.obj
 0001:00022f40       ?Spawn@CHealthKit@@EAEXXZ  10023f40 f   healthkit.obj
 0001:00022f70       ?Precache@CHealthKit@@EAEXXZ 10023f70 f   healthkit.obj
 0001:00022f90       ?MyTouch@CHealthKit@@EAEHPAVCBasePlayer@@@Z 10023f90 f   healthkit.obj
 0001:00023060       ?Save@CWallHealth@@UAEHAAVCSave@@@Z 10024060 f   healthkit.obj
 0001:00023090       ?Restore@CWallHealth@@UAEHAAVCRestore@@@Z 10024090 f   healthkit.obj
 0001:000230c0       _func_healthcharger        100240c0 f   healthkit.obj
 0001:000230d0       ?KeyValue@CWallHealth@@UAEXPAUKeyValueData_s@@@Z 100240d0 f   healthkit.obj
 0001:00023250       ?Spawn@CWallHealth@@UAEXXZ 10024250 f   healthkit.obj
 0001:000232e0       ?Precache@CWallHealth@@UAEXXZ 100242e0 f   healthkit.obj
 0001:00023310       ?Use@CWallHealth@@UAEXPAVCBaseEntity@@0W4USE_TYPE@@M@Z 10024310 f   healthkit.obj
 0001:000234d0       ?Recharge@CWallHealth@@QAEXXZ 100244d0 f   healthkit.obj
 0001:00023530       ?Off@CWallHealth@@QAEXXZ   10024530 f   healthkit.obj
 0001:000235c0       ?GetClassPtr@@YAPAVCHealthKit@@PAV1@@Z 100245c0 f i healthkit.obj
 0001:00023610       ?GetClassPtr@@YAPAVCWallHealth@@PAV1@@Z 10024610 f i healthkit.obj
 0001:00023670       ?ObjectCaps@CWallHealth@@UAEHXZ 10024670 f i healthkit.obj
 0001:00023680       _hornet                    10024680 f   hornet.obj
 0001:00023690       ?Save@CHornet@@UAEHAAVCSave@@@Z 10024690 f   hornet.obj
 0001:000236c0       ?Restore@CHornet@@UAEHAAVCRestore@@@Z 100246c0 f   hornet.obj
 0001:000236f0       ?TakeDamage@CHornet@@UAEHPAUentvars_t@@0MH@Z 100246f0 f   hornet.obj
 0001:00023720       ?Spawn@CHornet@@UAEXXZ     10024720 f   hornet.obj
 0001:00023940       ?Precache@CHornet@@UAEXXZ  10024940 f   hornet.obj
 0001:000239e0       ?IRelationship@CHornet@@UAEHPAVCBaseEntity@@@Z 100249e0 f   hornet.obj
 0001:00023a10       ?Classify@CHornet@@UAEHXZ  10024a10 f   hornet.obj
 0001:00023a40       ?StartTrack@CHornet@@QAEXXZ 10024a40 f   hornet.obj
 0001:00023a70       ?StartDart@CHornet@@QAEXXZ 10024a70 f   hornet.obj
 0001:00023aa0       ?IgniteTrail@CHornet@@QAEXXZ 10024aa0 f   hornet.obj
 0001:00023b50       ?TrackTarget@CHornet@@QAEXXZ 10024b50 f   hornet.obj
 0001:00024370       ?TrackTouch@CHornet@@QAEXPAVCBaseEntity@@@Z 10025370 f   hornet.obj
 0001:00024550       ?DartTouch@CHornet@@QAEXPAVCBaseEntity@@@Z 10025550 f   hornet.obj
 0001:00024560       ?DieTouch@CHornet@@QAEXPAVCBaseEntity@@@Z 10025560 f   hornet.obj
 0001:00024670       ?GetClassPtr@@YAPAVCHornet@@PAV1@@Z 10025670 f i hornet.obj
 0001:000246d0       _weapon_hornetgun          100256d0 f   hornetgun.obj
 0001:000246e0       ?IsUseable@CHgun@@UAEHXZ   100256e0 f   hornetgun.obj
 0001:000246f0       ?Spawn@CHgun@@UAEXXZ       100256f0 f   hornetgun.obj
 0001:00024740       ?Precache@CHgun@@UAEXXZ    10025740 f   hornetgun.obj
 0001:00024770       ?AddToPlayer@CHgun@@UAEHPAVCBasePlayer@@@Z 10025770 f   hornetgun.obj
 0001:000247f0       ?GetItemInfo@CHgun@@UAEHPAUItemInfo@@@Z 100257f0 f   hornetgun.obj
 0001:00024860       ?Deploy@CHgun@@UAEHXZ      10025860 f   hornetgun.obj
 0001:00024880       ?Holster@CHgun@@UAEXXZ     10025880 f   hornetgun.obj
 0001:000248e0       ?PrimaryAttack@CHgun@@UAEXXZ 100258e0 f   hornetgun.obj
 0001:00024b50       ?SecondaryAttack@CHgun@@UAEXXZ 10025b50 f   hornetgun.obj
 0001:00025440       ?Reload@CHgun@@UAEXXZ      10026440 f   hornetgun.obj
 0001:00025490       ?WeaponIdle@CHgun@@UAEXXZ  10026490 f   hornetgun.obj
 0001:00025550       ?GetClassPtr@@YAPAVCHgun@@PAV1@@Z 10026550 f i hornetgun.obj
 0001:000255b0       ?iItemSlot@CHgun@@UAEHXZ   100265b0 f i hornetgun.obj
 0001:000255c0       _world_items               100265c0 f   items.obj
 0001:000255d0       ?KeyValue@CWorldItem@@UAEXPAUKeyValueData_s@@@Z 100265d0 f   items.obj
 0001:00025640       ?Spawn@CWorldItem@@UAEXXZ  10026640 f   items.obj
 0001:00025720       ?Spawn@CItem@@UAEXXZ       10026720 f   items.obj
 0001:00025800       ?ItemTouch@CItem@@QAEXPAVCBaseEntity@@@Z 10026800 f   items.obj
 0001:000258a0       ?Respawn@CItem@@UAEPAVCBaseEntity@@XZ 100268a0 f   items.obj
 0001:00025910       ?Materialize@CItem@@QAEXXZ 10026910 f   items.obj
 0001:00025970       _item_suit                 10026970 f   items.obj
 0001:00025980       _item_battery              10026980 f   items.obj
 0001:00025990       _item_antidote             10026990 f   items.obj
 0001:000259a0       _item_security             100269a0 f   items.obj
 0001:000259b0       _item_longjump             100269b0 f   items.obj
 0001:000259c0       ?GetClassPtr@@YAPAVCWorldItem@@PAV1@@Z 100269c0 f i items.obj
 0001:00025a10       ?GetClassPtr@@YAPAVCItemSuit@@PAV1@@Z 10026a10 f i items.obj
 0001:00025a60       ?Spawn@CItemSuit@@EAEXXZ   10026a60 f i items.obj
 0001:00025a90       ?Precache@CItemSuit@@EAEXXZ 10026a90 f i items.obj
 0001:00025aa0       ?MyTouch@CItemSuit@@EAEHPAVCBasePlayer@@@Z 10026aa0 f i items.obj
 0001:00025b10       ?GetClassPtr@@YAPAVCItemBattery@@PAV1@@Z 10026b10 f i items.obj
 0001:00025b60       ?Spawn@CItemBattery@@EAEXXZ 10026b60 f i items.obj
 0001:00025b90       ?Precache@CItemBattery@@EAEXXZ 10026b90 f i items.obj
 0001:00025bb0       ?MyTouch@CItemBattery@@EAEHPAVCBasePlayer@@@Z 10026bb0 f i items.obj
 0001:00025d00       ?GetClassPtr@@YAPAVCItemAntidote@@PAV1@@Z 10026d00 f i items.obj
 0001:00025d50       ?Spawn@CItemAntidote@@EAEXXZ 10026d50 f i items.obj
 0001:00025d80       ?Precache@CItemAntidote@@EAEXXZ 10026d80 f i items.obj
 0001:00025d90       ?MyTouch@CItemAntidote@@EAEHPAVCBasePlayer@@@Z 10026d90 f i items.obj
 0001:00025dc0       ?GetClassPtr@@YAPAVCItemSecurity@@PAV1@@Z 10026dc0 f i items.obj
 0001:00025e10       ?Spawn@CItemSecurity@@EAEXXZ 10026e10 f i items.obj
 0001:00025e40       ?Precache@CItemSecurity@@EAEXXZ 10026e40 f i items.obj
 0001:00025e50       ?MyTouch@CItemSecurity@@EAEHPAVCBasePlayer@@@Z 10026e50 f i items.obj
 0001:00025e70       ?GetClassPtr@@YAPAVCItemLongJump@@PAV1@@Z 10026e70 f i items.obj
 0001:00025ec0       ?Spawn@CItemLongJump@@EAEXXZ 10026ec0 f i items.obj
 0001:00025ef0       ?Precache@CItemLongJump@@EAEXXZ 10026ef0 f i items.obj
 0001:00025f00       ?MyTouch@CItemLongJump@@EAEHPAVCBasePlayer@@@Z 10026f00 f i items.obj
 0001:00025f90       _light                     10026f90 f   lights.obj
 0001:00025fa0       ?Save@CLight@@UAEHAAVCSave@@@Z 10026fa0 f   lights.obj
 0001:00025fd0       ?Restore@CLight@@UAEHAAVCRestore@@@Z 10026fd0 f   lights.obj
 0001:00026000       ?KeyValue@CLight@@UAEXPAUKeyValueData_s@@@Z 10027000 f   lights.obj
 0001:00026120       ?Spawn@CLight@@UAEXXZ      10027120 f   lights.obj
 0001:000261a0       ?Use@CLight@@UAEXPAVCBaseEntity@@0W4USE_TYPE@@M@Z 100271a0 f   lights.obj
 0001:00026250       _light_spot                10027250 f   lights.obj
 0001:00026260       _light_environment         10027260 f   lights.obj
 0001:00026270       ?KeyValue@CEnvLight@@UAEXPAUKeyValueData_s@@@Z 10027270 f   lights.obj
 0001:00026430       ?Spawn@CEnvLight@@UAEXXZ   10027430 f   lights.obj
 0001:000264e0       ?GetClassPtr@@YAPAVCLight@@PAV1@@Z 100274e0 f i lights.obj
 0001:00026530       ?GetClassPtr@@YAPAVCEnvLight@@PAV1@@Z 10027530 f i lights.obj
 0001:00026580       _weapon_m4a1               10027580 f   m4a1.obj
 0001:00026590       ?Spawn@CM4A1@@UAEXXZ       10027590 f   m4a1.obj
 0001:000265d0       ?Precache@CM4A1@@UAEXXZ    100275d0 f   m4a1.obj
 0001:00026660       ?GetItemInfo@CM4A1@@UAEHPAUItemInfo@@@Z 10027660 f   m4a1.obj
 0001:000266d0       ?AddToPlayer@CM4A1@@UAEHPAVCBasePlayer@@@Z 100276d0 f   m4a1.obj
 0001:00026730       ?Deploy@CM4A1@@UAEHXZ      10027730 f   m4a1.obj
 0001:00026750       ?Holster@CM4A1@@UAEXXZ     10027750 f   m4a1.obj
 0001:00026780       ?WeaponIdle@CM4A1@@UAEXXZ  10027780 f   m4a1.obj
 0001:00026790       ?PrimaryAttack@CM4A1@@UAEXXZ 10027790 f   m4a1.obj
 0001:000269a0       ?SecondaryAttack@CM4A1@@UAEXXZ 100279a0 f   m4a1.obj
 0001:00026a00       ?Reload@CM4A1@@UAEXXZ      10027a00 f   m4a1.obj
 0001:00026a10       _ammo_m4a1                 10027a10 f   m4a1.obj
 0001:00026a20       ?GetClassPtr@@YAPAVCM4A1@@PAV1@@Z 10027a20 f i m4a1.obj
 0001:00026a70       ?iItemSlot@CM4A1@@UAEHXZ   10027a70 f i m4a1.obj
 0001:00026a80       ?GetClassPtr@@YAPAVCM4A1Ammo@@PAV1@@Z 10027a80 f i m4a1.obj
 0001:00026ad0       ?Spawn@CM4A1Ammo@@EAEXXZ   10027ad0 f i m4a1.obj
 0001:00026b00       ?Precache@CM4A1Ammo@@EAEXXZ 10027b00 f i m4a1.obj
 0001:00026b20       ?AddAmmo@CM4A1Ammo@@EAEHPAVCBaseEntity@@@Z 10027b20 f i m4a1.obj
 0001:00026b70       ?Save@CRuleEntity@@UAEHAAVCSave@@@Z 10027b70 f   maprules.obj
 0001:00026ba0       ?Restore@CRuleEntity@@UAEHAAVCRestore@@@Z 10027ba0 f   maprules.obj
 0001:00026bd0       ?Spawn@CRuleEntity@@UAEXXZ 10027bd0 f   maprules.obj
 0001:00026c00       ?KeyValue@CRuleEntity@@UAEXPAUKeyValueData_s@@@Z 10027c00 f   maprules.obj
 0001:00026c70       ?CanFireForActivator@CRuleEntity@@IAEHPAVCBaseEntity@@@Z 10027c70 f   maprules.obj
 0001:00026ca0       ?Spawn@CRulePointEntity@@UAEXXZ 10027ca0 f   maprules.obj
 0001:00026cc0       ?Spawn@CRuleBrushEntity@@UAEXXZ 10027cc0 f   maprules.obj
 0001:00026d00       _game_score                10027d00 f   maprules.obj
 0001:00026d10       ?Spawn@CGameScore@@UAEXXZ  10027d10 f   maprules.obj
 0001:00026d20       ?KeyValue@CGameScore@@UAEXPAUKeyValueData_s@@@Z 10027d20 f   maprules.obj
 0001:00026da0       ?Use@CGameScore@@UAEXPAVCBaseEntity@@0W4USE_TYPE@@M@Z 10027da0 f   maprules.obj
 0001:00026e10       _game_end                  10027e10 f   maprules.obj
 0001:00026e20       ?Use@CGameEnd@@UAEXPAVCBaseEntity@@0W4USE_TYPE@@M@Z 10027e20 f   maprules.obj
 0001:00026e40       _game_text                 10027e40 f   maprules.obj
 0001:00026e50       ?Save@CGameText@@UAEHAAVCSave@@@Z 10027e50 f   maprules.obj
 0001:00026e80       ?Restore@CGameText@@UAEHAAVCRestore@@@Z 10027e80 f   maprules.obj
 0001:00026eb0       ?KeyValue@CGameText@@UAEXPAUKeyValueData_s@@@Z 10027eb0 f   maprules.obj
 0001:00027260       ?Use@CGameText@@UAEXPAVCBaseEntity@@0W4USE_TYPE@@M@Z 10028260 f   maprules.obj
 0001:000272e0       _game_team_master          100282e0 f   maprules.obj
 0001:000272f0       ?KeyValue@CGameTeamMaster@@UAEXPAUKeyValueData_s@@@Z 100282f0 f   maprules.obj
 0001:000273e0       ?Use@CGameTeamMaster@@UAEXPAVCBaseEntity@@0W4USE_TYPE@@M@Z 100283e0 f   maprules.obj
 0001:00027480       ?IsTriggered@CGameTeamMaster@@UAEHPAVCBaseEntity@@@Z 10028480 f   maprules.obj
 0001:00027490       ?TeamID@CGameTeamMaster@@UAEPBDXZ 10028490 f   maprules.obj
 0001:000274b0       ?TeamMatch@CGameTeamMaster@@AAEHPAVCBaseEntity@@@Z 100284b0 f   maprules.obj
 0001:00027500       _game_team_set             10028500 f   maprules.obj
 0001:00027510       ?Use@CGameTeamSet@@UAEXPAVCBaseEntity@@0W4USE_TYPE@@M@Z 10028510 f   maprules.obj
 0001:00027560       _game_zone_player          10028560 f   maprules.obj
 0001:00027570       ?Save@CGamePlayerZone@@UAEHAAVCSave@@@Z 10028570 f   maprules.obj
 0001:000275a0       ?Restore@CGamePlayerZone@@UAEHAAVCRestore@@@Z 100285a0 f   maprules.obj
 0001:000275d0       ?KeyValue@CGamePlayerZone@@UAEXPAUKeyValueData_s@@@Z 100285d0 f   maprules.obj
 0001:00027740       ?Use@CGamePlayerZone@@UAEXPAVCBaseEntity@@0W4USE_TYPE@@M@Z 10028740 f   maprules.obj
 0001:000278b0       _game_player_hurt          100288b0 f   maprules.obj
 0001:000278c0       ?Use@CGamePlayerHurt@@UAEXPAVCBaseEntity@@0W4USE_TYPE@@M@Z 100288c0 f   maprules.obj
 0001:00027950       _game_counter              10028950 f   maprules.obj
 0001:00027960       ?Spawn@CGameCounter@@UAEXXZ 10028960 f   maprules.obj
 0001:00027990       ?Use@CGameCounter@@UAEXPAVCBaseEntity@@0W4USE_TYPE@@M@Z 10028990 f   maprules.obj
 0001:00027a70       _game_counter_set          10028a70 f   maprules.obj
 0001:00027a80       ?Use@CGameCounterSet@@UAEXPAVCBaseEntity@@0W4USE_TYPE@@M@Z 10028a80 f   maprules.obj
 0001:00027ac0       _game_player_equip         10028ac0 f   maprules.obj
 0001:00027ad0       ?KeyValue@CGamePlayerEquip@@UAEXPAUKeyValueData_s@@@Z 10028ad0 f   maprules.obj
 0001:00027b70       ?Touch@CGamePlayerEquip@@UAEXPAVCBaseEntity@@@Z 10028b70 f   maprules.obj
 0001:00027ba0       ?EquipPlayer@CGamePlayerEquip@@AAEXPAVCBaseEntity@@@Z 10028ba0 f   maprules.obj
 0001:00027c10       ?Use@CGamePlayerEquip@@UAEXPAVCBaseEntity@@0W4USE_TYPE@@M@Z 10028c10 f   maprules.obj
 0001:00027c20       _game_player_team          10028c20 f   maprules.obj
 0001:00027c30       ?TargetTeamName@CGamePlayerTeam@@AAEPBDPBD@Z 10028c30 f   maprules.obj
 0001:00027cc0       ?Use@CGamePlayerTeam@@UAEXPAVCBaseEntity@@0W4USE_TYPE@@M@Z 10028cc0 f   maprules.obj
 0001:00027d50       ?GetClassPtr@@YAPAVCGameScore@@PAV1@@Z 10028d50 f i maprules.obj
 0001:00027da0       ?GetClassPtr@@YAPAVCGameEnd@@PAV1@@Z 10028da0 f i maprules.obj
 0001:00027df0       ?GetClassPtr@@YAPAVCGameText@@PAV1@@Z 10028df0 f i maprules.obj
 0001:00027e40       ?GetClassPtr@@YAPAVCGameTeamMaster@@PAV1@@Z 10028e40 f i maprules.obj
 0001:00027e90       ?ObjectCaps@CGameTeamMaster@@UAEHXZ 10028e90 f i maprules.obj
 0001:00027ea0       ?GetClassPtr@@YAPAVCGameTeamSet@@PAV1@@Z 10028ea0 f i maprules.obj
 0001:00027ef0       ?GetClassPtr@@YAPAVCGamePlayerZone@@PAV1@@Z 10028ef0 f i maprules.obj
 0001:00027f40       ?GetClassPtr@@YAPAVCGamePlayerHurt@@PAV1@@Z 10028f40 f i maprules.obj
 0001:00027f90       ?GetClassPtr@@YAPAVCGameCounter@@PAV1@@Z 10028f90 f i maprules.obj
 0001:00027fe0       ?GetClassPtr@@YAPAVCGameCounterSet@@PAV1@@Z 10028fe0 f i maprules.obj
 0001:00028030       ?GetClassPtr@@YAPAVCGamePlayerEquip@@PAV1@@Z 10029030 f i maprules.obj
 0001:00028090       ?GetClassPtr@@YAPAVCGamePlayerTeam@@PAV1@@Z 10029090 f i maprules.obj
 0001:000280e0       _func_mortar_field         100290e0 f   mortar.obj
 0001:000280f0       ?Save@CFuncMortarField@@UAEHAAVCSave@@@Z 100290f0 f   mortar.obj
 0001:00028120       ?Restore@CFuncMortarField@@UAEHAAVCRestore@@@Z 10029120 f   mortar.obj
 0001:00028150       ?KeyValue@CFuncMortarField@@UAEXPAUKeyValueData_s@@@Z 10029150 f   mortar.obj
 0001:00028310       ?Spawn@CFuncMortarField@@UAEXXZ 10029310 f   mortar.obj
 0001:00028380       ?Precache@CFuncMortarField@@UAEXXZ 10029380 f   mortar.obj
 0001:000283b0       ?FieldUse@CFuncMortarField@@QAEXPAVCBaseEntity@@0W4USE_TYPE@@M@Z 100293b0 f   mortar.obj
 0001:00028650       _monster_mortar            10029650 f   mortar.obj
 0001:00028660       ?Spawn@CMortar@@UAEXXZ     10029660 f   mortar.obj
 0001:000286a0       ?Precache@CMortar@@UAEXXZ  100296a0 f   mortar.obj
 0001:000286c0       ?MortarExplode@CMortar@@QAEXXZ 100296c0 f   mortar.obj
 0001:00028860       ?GetClassPtr@@YAPAVCFuncMortarField@@PAV1@@Z 10029860 f i mortar.obj
 0001:000288c0       ?ObjectCaps@CFuncMortarField@@UAEHXZ 100298c0 f i mortar.obj
 0001:000288d0       ?GetClassPtr@@YAPAVCMortar@@PAV1@@Z 100298d0 f i mortar.obj
 0001:00028930       _weapon_mp5                10029930 f   mp5.obj
 0001:00028940       _weapon_9mmAR              10029940 f   mp5.obj
 0001:00028950       ?SecondaryAmmoIndex@CMP5@@UAEHXZ 10029950 f   mp5.obj
 0001:00028960       ?Spawn@CMP5@@UAEXXZ        10029960 f   mp5.obj
 0001:000289c0       ?Precache@CMP5@@UAEXXZ     100299c0 f   mp5.obj
 0001:00028a70       ?GetItemInfo@CMP5@@UAEHPAUItemInfo@@@Z 10029a70 f   mp5.obj
 0001:00028ae0       ?AddToPlayer@CMP5@@UAEHPAVCBasePlayer@@@Z 10029ae0 f   mp5.obj
 0001:00028b40       ?Deploy@CMP5@@UAEHXZ       10029b40 f   mp5.obj
 0001:00028b60       ?PrimaryAttack@CMP5@@UAEXXZ 10029b60 f   mp5.obj
 0001:000291a0       ?SecondaryAttack@CMP5@@UAEXXZ 1002a1a0 f   mp5.obj
 0001:000293d0       ?Reload@CMP5@@UAEXXZ       1002a3d0 f   mp5.obj
 0001:000293e0       ?WeaponIdle@CMP5@@UAEXXZ   1002a3e0 f   mp5.obj
 0001:00029460       _ammo_mp5clip              1002a460 f   mp5.obj
 0001:00029470       _ammo_9mmAR                1002a470 f   mp5.obj
 0001:00029480       _ammo_9mmbox               1002a480 f   mp5.obj
 0001:00029490       _ammo_mp5grenades          1002a490 f   mp5.obj
 0001:000294a0       _ammo_ARgrenades           1002a4a0 f   mp5.obj
 0001:000294b0       ?GetClassPtr@@YAPAVCMP5@@PAV1@@Z 1002a4b0 f i mp5.obj
 0001:00029510       ?iItemSlot@CMP5@@UAEHXZ    1002a510 f i mp5.obj
 0001:00029520       ?GetClassPtr@@YAPAVCMP5AmmoClip@@PAV1@@Z 1002a520 f i mp5.obj
 0001:00029570       ?Spawn@CMP5AmmoClip@@EAEXXZ 1002a570 f i mp5.obj
 0001:000295a0       ?Precache@CMP5AmmoClip@@EAEXXZ 1002a5a0 f i mp5.obj
 0001:000295c0       ?AddAmmo@CMP5AmmoClip@@EAEHPAVCBaseEntity@@@Z 1002a5c0 f i mp5.obj
 0001:00029620       ?GetClassPtr@@YAPAVCMP5Chainammo@@PAV1@@Z 1002a620 f i mp5.obj
 0001:00029670       ?Spawn@CMP5Chainammo@@EAEXXZ 1002a670 f i mp5.obj
 0001:000296a0       ?Precache@CMP5Chainammo@@EAEXXZ 1002a6a0 f i mp5.obj
 0001:000296c0       ?AddAmmo@CMP5Chainammo@@EAEHPAVCBaseEntity@@@Z 1002a6c0 f i mp5.obj
 0001:00029720       ?GetClassPtr@@YAPAVCMP5AmmoGrenade@@PAV1@@Z 1002a720 f i mp5.obj
 0001:00029770       ?Spawn@CMP5AmmoGrenade@@EAEXXZ 1002a770 f i mp5.obj
 0001:000297a0       ?Precache@CMP5AmmoGrenade@@EAEXXZ 1002a7a0 f i mp5.obj
 0001:000297c0       ?AddAmmo@CMP5AmmoGrenade@@EAEHPAVCBaseEntity@@@Z 1002a7c0 f i mp5.obj
 0001:00029820       ?InitGraph@CGraph@@QAEXXZ  1002a820 f   mpstubb.obj
 0001:00029830       ?FLoadGraph@CGraph@@QAEHPAD@Z 1002a830 f   mpstubb.obj
 0001:00029840       ?AllocNodes@CGraph@@QAEHXZ 1002a840 f   mpstubb.obj
 0001:00029850       ?CheckNODFile@CGraph@@QAEHPAD@Z 1002a850 f   mpstubb.obj
 0001:00029860       ?FSetGraphPointers@CGraph@@QAEHXZ 1002a860 f   mpstubb.obj
 0001:00029870       ?ShowNodeConnections@CGraph@@QAEXH@Z 1002a870 f   mpstubb.obj
 0001:00029880       ?FindNearestNode@CGraph@@QAEHABVVector@@H@Z 1002a880 f   mpstubb.obj
 0001:00029890       ?ReportAIState@CBaseMonster@@UAEXXZ 1002a890 f   mpstubb.obj
 0001:000298a0       ?ChangeYaw@CBaseMonster@@UAEMH@Z 1002a8a0 f   mpstubb.obj
 0001:000298b0       ?MakeIdealYaw@CBaseMonster@@QAEXVVector@@@Z 1002a8b0 f   mpstubb.obj
 0001:000298c0       ?CorpseFallThink@CBaseMonster@@QAEXXZ 1002a8c0 f   mpstubb.obj
 0001:00029910       ?MonsterInitDead@CBaseMonster@@UAEXXZ 1002a910 f   mpstubb.obj
 0001:000299c0       ?ShouldFadeOnDeath@CBaseMonster@@UAEHXZ 1002a9c0 f   mpstubb.obj
 0001:000299d0       ?FCheckAITrigger@CBaseMonster@@QAEHXZ 1002a9d0 f   mpstubb.obj
 0001:000299e0       ?KeyValue@CBaseMonster@@UAEXPAUKeyValueData_s@@@Z 1002a9e0 f   mpstubb.obj
 0001:000299f0       ?IRelationship@CBaseMonster@@UAEHPAVCBaseEntity@@@Z 1002a9f0 f   mpstubb.obj
 0001:00029a20       ?Look@CBaseMonster@@UAEXH@Z 1002aa20 f   mpstubb.obj
 0001:00029c40       ?BestVisibleEnemy@CBaseMonster@@UAEPAVCBaseEntity@@XZ 1002ac40 f   mpstubb.obj
 0001:00029d40       ??0CHalfLifeMultiplay@@QAE@XZ 1002ad40 f   multiplay_gamerules.obj
 0001:00029e10       ?RefreshSkillData@CHalfLifeMultiplay@@UAEXXZ 1002ae10 f   multiplay_gamerules.obj
 0001:00029eb0       ?Think@CHalfLifeMultiplay@@UAEXXZ 1002aeb0 f   multiplay_gamerules.obj
 0001:00029f90       ?IsMultiplayer@CHalfLifeMultiplay@@UAEHXZ 1002af90 f   multiplay_gamerules.obj
 0001:00029fa0       ?IsDeathmatch@CHalfLifeMultiplay@@UAEHXZ 1002afa0 f   multiplay_gamerules.obj
 0001:00029fb0       ?IsCoOp@CHalfLifeMultiplay@@UAEHXZ 1002afb0 f   multiplay_gamerules.obj
 0001:00029fc0       ?FShouldSwitchWeapon@CHalfLifeMultiplay@@UAEHPAVCBasePlayer@@PAVCBasePlayerItem@@@Z 1002afc0 f   multiplay_gamerules.obj
 0001:0002a040       ?GetNextBestWeapon@CHalfLifeMultiplay@@UAEHPAVCBasePlayer@@PAVCBasePlayerItem@@@Z 1002b040 f   multiplay_gamerules.obj
 0001:0002a140       ?ClientConnected@CHalfLifeMultiplay@@UAEHPAUedict_s@@PBD1QAD@Z 1002b140 f   multiplay_gamerules.obj
 0001:0002a150       ?UpdateGameMode@CHalfLifeMultiplay@@UAEXPAVCBasePlayer@@@Z 1002b150 f   multiplay_gamerules.obj
 0001:0002a190       ?InitHUD@CHalfLifeMultiplay@@UAEXPAVCBasePlayer@@@Z 1002b190 f   multiplay_gamerules.obj
 0001:0002a330       ?ClientDisconnected@CHalfLifeMultiplay@@UAEXPAUedict_s@@@Z 1002b330 f   multiplay_gamerules.obj
 0001:0002a3a0       ?FlPlayerFallDamage@CHalfLifeMultiplay@@UAEMPAVCBasePlayer@@@Z 1002b3a0 f   multiplay_gamerules.obj
 0001:0002a3e0       ?FPlayerCanTakeDamage@CHalfLifeMultiplay@@UAEHPAVCBasePlayer@@PAVCBaseEntity@@@Z 1002b3e0 f   multiplay_gamerules.obj
 0001:0002a3f0       ?PlayerThink@CHalfLifeMultiplay@@UAEXPAVCBasePlayer@@@Z 1002b3f0 f   multiplay_gamerules.obj
 0001:0002a430       ?PlayerSpawn@CHalfLifeMultiplay@@UAEXPAVCBasePlayer@@@Z 1002b430 f   multiplay_gamerules.obj
 0001:0002a4b0       ?FPlayerCanRespawn@CHalfLifeMultiplay@@UAEHPAVCBasePlayer@@@Z 1002b4b0 f   multiplay_gamerules.obj
 0001:0002a4c0       ?FlPlayerSpawnTime@CHalfLifeMultiplay@@UAEMPAVCBasePlayer@@@Z 1002b4c0 f   multiplay_gamerules.obj
 0001:0002a4d0       ?AllowAutoTargetCrosshair@CHalfLifeMultiplay@@UAEHXZ 1002b4d0 f   multiplay_gamerules.obj
 0001:0002a500       ?IPointsForKill@CHalfLifeMultiplay@@UAEHPAVCBasePlayer@@0@Z 1002b500 f   multiplay_gamerules.obj
 0001:0002a510       ?PlayerKilled@CHalfLifeMultiplay@@UAEXPAVCBasePlayer@@PAUentvars_t@@1@Z 1002b510 f   multiplay_gamerules.obj
 0001:0002a6f0       ?DeathNotice@CHalfLifeMultiplay@@UAEXPAVCBasePlayer@@PAUentvars_t@@1@Z 1002b6f0 f   multiplay_gamerules.obj
 0001:0002a990       ?PlayerGotWeapon@CHalfLifeMultiplay@@UAEXPAVCBasePlayer@@PAVCBasePlayerItem@@@Z 1002b990 f   multiplay_gamerules.obj
 0001:0002a9a0       ?FlWeaponRespawnTime@CHalfLifeMultiplay@@UAEMPAVCBasePlayerItem@@@Z 1002b9a0 f   multiplay_gamerules.obj
 0001:0002a9f0       ?FlWeaponTryRespawn@CHalfLifeMultiplay@@UAEMPAVCBasePlayerItem@@@Z 1002b9f0 f   multiplay_gamerules.obj
 0001:0002aa50       ?VecWeaponRespawnSpot@CHalfLifeMultiplay@@UAE?AVVector@@PAVCBasePlayerItem@@@Z 1002ba50 f   multiplay_gamerules.obj
 0001:0002aa80       ?WeaponShouldRespawn@CHalfLifeMultiplay@@UAEHPAVCBasePlayerItem@@@Z 1002ba80 f   multiplay_gamerules.obj
 0001:0002aaa0       ?CanHavePlayerItem@CHalfLifeMultiplay@@UAEHPAVCBasePlayer@@PAVCBasePlayerItem@@@Z 1002baa0 f   multiplay_gamerules.obj
 0001:0002ab30       ?CanHaveItem@CHalfLifeMultiplay@@UAEHPAVCBasePlayer@@PAVCItem@@@Z 1002bb30 f   multiplay_gamerules.obj
 0001:0002ab40       ?PlayerGotItem@CHalfLifeMultiplay@@UAEXPAVCBasePlayer@@PAVCItem@@@Z 1002bb40 f   multiplay_gamerules.obj
 0001:0002ab50       ?ItemShouldRespawn@CHalfLifeMultiplay@@UAEHPAVCItem@@@Z 1002bb50 f   multiplay_gamerules.obj
 0001:0002ab70       ?FlItemRespawnTime@CHalfLifeMultiplay@@UAEMPAVCItem@@@Z 1002bb70 f   multiplay_gamerules.obj
 0001:0002ab80       ?VecItemRespawnSpot@CHalfLifeMultiplay@@UAE?AVVector@@PAVCItem@@@Z 1002bb80 f   multiplay_gamerules.obj
 0001:0002abb0       ?PlayerGotAmmo@CHalfLifeMultiplay@@UAEXPAVCBasePlayer@@PADH@Z 1002bbb0 f   multiplay_gamerules.obj
 0001:0002abc0       ?IsAllowedToSpawn@CHalfLifeMultiplay@@UAEHPAVCBaseEntity@@@Z 1002bbc0 f   multiplay_gamerules.obj
 0001:0002abd0       ?AmmoShouldRespawn@CHalfLifeMultiplay@@UAEHPAVCBasePlayerAmmo@@@Z 1002bbd0 f   multiplay_gamerules.obj
 0001:0002abf0       ?FlAmmoRespawnTime@CHalfLifeMultiplay@@UAEMPAVCBasePlayerAmmo@@@Z 1002bbf0 f   multiplay_gamerules.obj
 0001:0002ac00       ?VecAmmoRespawnSpot@CHalfLifeMultiplay@@UAE?AVVector@@PAVCBasePlayerAmmo@@@Z 1002bc00 f   multiplay_gamerules.obj
 0001:0002ac30       ?FlHealthChargerRechargeTime@CHalfLifeMultiplay@@UAEMXZ 1002bc30 f   multiplay_gamerules.obj
 0001:0002ac40       ?FlHEVChargerRechargeTime@CHalfLifeMultiplay@@UAEMXZ 1002bc40 f   multiplay_gamerules.obj
 0001:0002ac50       ?DeadPlayerWeapons@CHalfLifeMultiplay@@UAEHPAVCBasePlayer@@@Z 1002bc50 f   multiplay_gamerules.obj
 0001:0002ac60       ?DeadPlayerAmmo@CHalfLifeMultiplay@@UAEHPAVCBasePlayer@@@Z 1002bc60 f   multiplay_gamerules.obj
 0001:0002ac70       ?GetPlayerSpawnSpot@CHalfLifeMultiplay@@UAEPAUedict_s@@PAVCBasePlayer@@@Z 1002bc70 f   multiplay_gamerules.obj
 0001:0002acc0       ?PlayerRelationship@CHalfLifeMultiplay@@UAEHPAVCBaseEntity@@0@Z 1002bcc0 f   multiplay_gamerules.obj
 0001:0002acd0       ?PlayFootstepSounds@CHalfLifeMultiplay@@UAEHPAVCBasePlayer@@M@Z 1002bcd0 f   multiplay_gamerules.obj
 0001:0002ad40       ?FAllowFlashlight@CHalfLifeMultiplay@@UAEHXZ 1002bd40 f   multiplay_gamerules.obj
 0001:0002ad70       ?FAllowMonsters@CHalfLifeMultiplay@@UAEHXZ 1002bd70 f   multiplay_gamerules.obj
 0001:0002ada0       ?GoToIntermission@CHalfLifeMultiplay@@MAEXXZ 1002bda0 f   multiplay_gamerules.obj
 0001:0002adf0       ?ChangeLevel@CHalfLifeMultiplay@@MAEXXZ 1002bdf0 f   multiplay_gamerules.obj
 0001:0002b060       ?SendMOTDToClient@CHalfLifeMultiplay@@IAEXPAUedict_s@@@Z 1002c060 f   multiplay_gamerules.obj
 0001:0002b170       ?IsTeamplay@CGameRules@@UAEHXZ 1002c170 f i multiplay_gamerules.obj
 0001:0002b180       ?GetGameDescription@CGameRules@@UAEPBDXZ 1002c180 f i multiplay_gamerules.obj
 0001:0002b190       ?ShouldAutoAim@CGameRules@@UAEHPAVCBasePlayer@@PAUedict_s@@@Z 1002c190 f i multiplay_gamerules.obj
 0001:0002b1a0       ?ClientCommand@CGameRules@@UAEHPAVCBasePlayer@@PBD@Z 1002c1a0 f i multiplay_gamerules.obj
 0001:0002b1b0       ?ClientUserInfoChanged@CGameRules@@UAEXPAVCBasePlayer@@PAD@Z 1002c1b0 f i multiplay_gamerules.obj
 0001:0002b1c0       ?GetTeamIndex@CGameRules@@UAEHPBD@Z 1002c1c0 f i multiplay_gamerules.obj
 0001:0002b1d0       ?GetIndexedTeamName@CGameRules@@UAEPBDH@Z 1002c1d0 f i multiplay_gamerules.obj
 0001:0002b1e0       ?IsValidTeam@CGameRules@@UAEHPBD@Z 1002c1e0 f i multiplay_gamerules.obj
 0001:0002b1f0       ?ChangePlayerTeam@CGameRules@@UAEXPAVCBasePlayer@@PBDHH@Z 1002c1f0 f i multiplay_gamerules.obj
 0001:0002b200       ?SetDefaultPlayerTeam@CGameRules@@UAEPBDPAVCBasePlayer@@@Z 1002c200 f i multiplay_gamerules.obj
 0001:0002b210       ?GetTeamID@CHalfLifeMultiplay@@UAEPBDPAVCBaseEntity@@@Z 1002c210 f i multiplay_gamerules.obj
 0001:0002b220       ?PlayTextureSounds@CHalfLifeMultiplay@@UAEHXZ 1002c220 f i multiplay_gamerules.obj
 0001:0002b230       ?EndMultiplayerGame@CHalfLifeMultiplay@@UAEXXZ 1002c230 f i multiplay_gamerules.obj
 0001:0002b240       _path_corner               1002c240 f   pathcorner.obj
 0001:0002b250       ?Save@CPathCorner@@UAEHAAVCSave@@@Z 1002c250 f   pathcorner.obj
 0001:0002b280       ?Restore@CPathCorner@@UAEHAAVCRestore@@@Z 1002c280 f   pathcorner.obj
 0001:0002b2b0       ?KeyValue@CPathCorner@@UAEXPAUKeyValueData_s@@@Z 1002c2b0 f   pathcorner.obj
 0001:0002b320       ?Spawn@CPathCorner@@UAEXXZ 1002c320 f   pathcorner.obj
 0001:0002b330       ?Save@CPathTrack@@UAEHAAVCSave@@@Z 1002c330 f   pathcorner.obj
 0001:0002b360       ?Restore@CPathTrack@@UAEHAAVCRestore@@@Z 1002c360 f   pathcorner.obj
 0001:0002b390       _path_track                1002c390 f   pathcorner.obj
 0001:0002b3a0       ?KeyValue@CPathTrack@@UAEXPAUKeyValueData_s@@@Z 1002c3a0 f   pathcorner.obj
 0001:0002b410       ?Use@CPathTrack@@UAEXPAVCBaseEntity@@0W4USE_TYPE@@M@Z 1002c410 f   pathcorner.obj
 0001:0002b4b0       ?Link@CPathTrack@@QAEXXZ   1002c4b0 f   pathcorner.obj
 0001:0002b590       ?Spawn@CPathTrack@@UAEXXZ  1002c590 f   pathcorner.obj
 0001:0002b600       ?Activate@CPathTrack@@UAEXXZ 1002c600 f   pathcorner.obj
 0001:0002b620       ?ValidPath@CPathTrack@@QAEPAV1@PAV1@H@Z 1002c620 f   pathcorner.obj
 0001:0002b650       ?Project@CPathTrack@@QAEXPAV1@0PAVVector@@M@Z 1002c650 f   pathcorner.obj
 0001:0002b780       ?GetNext@CPathTrack@@QAEPAV1@XZ 1002c780 f   pathcorner.obj
 0001:0002b7a0       ?GetPrevious@CPathTrack@@QAEPAV1@XZ 1002c7a0 f   pathcorner.obj
 0001:0002b7c0       ?SetPrevious@CPathTrack@@QAEXPAV1@@Z 1002c7c0 f   pathcorner.obj
 0001:0002b830       ?LookAhead@CPathTrack@@QAEPAV1@PAVVector@@MH@Z 1002c830 f   pathcorner.obj
 0001:0002bc30       ?Nearest@CPathTrack@@QAEPAV1@VVector@@@Z 1002cc30 f   pathcorner.obj
 0001:0002bd10       ?Instance@CPathTrack@@SAPAV1@PAUedict_s@@@Z 1002cd10 f   pathcorner.obj
 0001:0002bd80       ?GetClassPtr@@YAPAVCPathCorner@@PAV1@@Z 1002cd80 f i pathcorner.obj
 0001:0002bdd0       ?GetDelay@CPathCorner@@UAEMXZ 1002cdd0 f i pathcorner.obj
 0001:0002bde0       ?GetClassPtr@@YAPAVCPathTrack@@PAV1@@Z 1002cde0 f i pathcorner.obj
 0001:0002be30       ??0CPlane@@QAE@XZ          1002ce30 f   plane.obj
 0001:0002be40       ?InitializePlane@CPlane@@QAEXABVVector@@0@Z 1002ce40 f   plane.obj
 0001:0002be80       ?PointInFront@CPlane@@QAEHABVVector@@@Z 1002ce80 f   plane.obj
 0001:0002bec0       ?Save@CBasePlatTrain@@UAEHAAVCSave@@@Z 1002cec0 f   plats.obj
 0001:0002bef0       ?Restore@CBasePlatTrain@@UAEHAAVCRestore@@@Z 1002cef0 f   plats.obj
 0001:0002bf20       ?KeyValue@CBasePlatTrain@@UAEXPAUKeyValueData_s@@@Z 1002cf20 f   plats.obj
 0001:0002c190       ?Precache@CBasePlatTrain@@UAEXXZ 1002d190 f   plats.obj
 0001:0002c430       ?CallGoDown@CFuncPlat@@QAEXXZ 1002d430 f i plats.obj
 0001:0002c440       ?CallHitTop@CFuncPlat@@QAEXXZ 1002d440 f i plats.obj
 0001:0002c450       ?CallHitBottom@CFuncPlat@@QAEXXZ 1002d450 f i plats.obj
 0001:0002c460       _func_plat                 1002d460 f   plats.obj
 0001:0002c470       ?Setup@CFuncPlat@@QAEXXZ   1002d470 f   plats.obj
 0001:0002c5d0       ?Precache@CFuncPlat@@UAEXXZ 1002d5d0 f   plats.obj
 0001:0002c600       ?Spawn@CFuncPlat@@UAEXXZ   1002d600 f   plats.obj
 0001:0002c670       ?SpawnInsideTrigger@CPlatTrigger@@QAEXPAVCFuncPlat@@@Z 1002d670 f   plats.obj
 0001:0002c7d0       ?Touch@CPlatTrigger@@UAEXPAVCBaseEntity@@@Z 1002d7d0 f   plats.obj
 0001:0002c870       ?PlatUse@CFuncPlat@@QAEXPAVCBaseEntity@@0W4USE_TYPE@@M@Z 1002d870 f   plats.obj
 0001:0002c8e0       ?GoDown@CFuncPlat@@UAEXXZ  1002d8e0 f   plats.obj
 0001:0002c960       ?HitBottom@CFuncPlat@@UAEXXZ 1002d960 f   plats.obj
 0001:0002c9f0       ?GoUp@CFuncPlat@@UAEXXZ    1002d9f0 f   plats.obj
 0001:0002ca70       ?HitTop@CFuncPlat@@UAEXXZ  1002da70 f   plats.obj
 0001:0002cb20       ?Blocked@CFuncPlat@@UAEXPAVCBaseEntity@@@Z 1002db20 f   plats.obj
 0001:0002cbd0       _func_platrot              1002dbd0 f   plats.obj
 0001:0002cbe0       ?Save@CFuncPlatRot@@UAEHAAVCSave@@@Z 1002dbe0 f   plats.obj
 0001:0002cc10       ?Restore@CFuncPlatRot@@UAEHAAVCRestore@@@Z 1002dc10 f   plats.obj
 0001:0002cc40       ?SetupRotation@CFuncPlatRot@@QAEXXZ 1002dc40 f   plats.obj
 0001:0002cd60       ?Spawn@CFuncPlatRot@@UAEXXZ 1002dd60 f   plats.obj
 0001:0002cd80       ?GoDown@CFuncPlatRot@@UAEXXZ 1002dd80 f   plats.obj
 0001:0002cdb0       ?HitBottom@CFuncPlatRot@@UAEXXZ 1002ddb0 f   plats.obj
 0001:0002ce00       ?GoUp@CFuncPlatRot@@UAEXXZ 1002de00 f   plats.obj
 0001:0002ce30       ?HitTop@CFuncPlatRot@@UAEXXZ 1002de30 f   plats.obj
 0001:0002ce80       ?RotMove@CFuncPlatRot@@QAEXAAVVector@@M@Z 1002de80 f   plats.obj
 0001:0002cf50       _func_train                1002df50 f   plats.obj
 0001:0002cf60       ?Save@CFuncTrain@@UAEHAAVCSave@@@Z 1002df60 f   plats.obj
 0001:0002cf90       ?Restore@CFuncTrain@@UAEHAAVCRestore@@@Z 1002df90 f   plats.obj
 0001:0002cfc0       ?KeyValue@CFuncTrain@@UAEXPAUKeyValueData_s@@@Z 1002dfc0 f   plats.obj
 0001:0002d040       ?Blocked@CFuncTrain@@UAEXPAVCBaseEntity@@@Z 1002e040 f   plats.obj
 0001:0002d080       ?Use@CFuncTrain@@UAEXPAVCBaseEntity@@0W4USE_TYPE@@M@Z 1002e080 f   plats.obj
 0001:0002d130       ?Wait@CFuncTrain@@QAEXXZ   1002e130 f   plats.obj
 0001:0002d2e0       ?Next@CFuncTrain@@QAEXXZ   1002e2e0 f   plats.obj
 0001:0002d5d0       ?Activate@CFuncTrain@@UAEXXZ 1002e5d0 f   plats.obj
 0001:0002d700       ?Spawn@CFuncTrain@@UAEXXZ  1002e700 f   plats.obj
 0001:0002d810       ?Precache@CFuncTrain@@UAEXXZ 1002e810 f   plats.obj
 0001:0002d820       ?OverrideReset@CFuncTrain@@UAEXXZ 1002e820 f   plats.obj
 0001:0002d8d0       ?Save@CFuncTrackTrain@@UAEHAAVCSave@@@Z 1002e8d0 f   plats.obj
 0001:0002d900       ?Restore@CFuncTrackTrain@@UAEHAAVCRestore@@@Z 1002e900 f   plats.obj
 0001:0002d930       _func_tracktrain           1002e930 f   plats.obj
 0001:0002d940       ?KeyValue@CFuncTrackTrain@@UAEXPAUKeyValueData_s@@@Z 1002e940 f   plats.obj
 0001:0002db50       ?NextThink@CFuncTrackTrain@@QAEXMH@Z 1002eb50 f   plats.obj
 0001:0002db90       ?Blocked@CFuncTrackTrain@@UAEXPAVCBaseEntity@@@Z 1002eb90 f   plats.obj
 0001:0002dd60       ?Use@CFuncTrackTrain@@UAEXPAVCBaseEntity@@0W4USE_TYPE@@M@Z 1002ed60 f   plats.obj
 0001:0002def0       ?StopSound@CFuncTrackTrain@@QAEXXZ 1002eef0 f   plats.obj
 0001:0002df60       ?UpdateSound@CFuncTrackTrain@@QAEXXZ 1002ef60 f   plats.obj
 0001:0002e070       ?Next@CFuncTrackTrain@@QAEXXZ 1002f070 f   plats.obj
 0001:0002e6c0       ?DeadEnd@CFuncTrackTrain@@QAEXXZ 1002f6c0 f   plats.obj
 0001:0002e7e0       ?SetControls@CFuncTrackTrain@@QAEXPAUentvars_t@@@Z 1002f7e0 f   plats.obj
 0001:0002e8b0       ?OnControls@CFuncTrackTrain@@UAEHPAUentvars_t@@@Z 1002f8b0 f   plats.obj
 0001:0002e9c0       ?Find@CFuncTrackTrain@@QAEXXZ 1002f9c0 f   plats.obj
 0001:0002eb80       ?NearestPath@CFuncTrackTrain@@QAEXXZ 1002fb80 f   plats.obj
 0001:0002eda0       ?OverrideReset@CFuncTrackTrain@@UAEXXZ 1002fda0 f   plats.obj
 0001:0002edd0       ?Instance@CFuncTrackTrain@@SAPAV1@PAUedict_s@@@Z 1002fdd0 f   plats.obj
 0001:0002ee40       ?Spawn@CFuncTrackTrain@@UAEXXZ 1002fe40 f   plats.obj
 0001:0002eff0       ?Precache@CFuncTrackTrain@@UAEXXZ 1002fff0 f   plats.obj
 0001:0002f100       _func_traincontrols        10030100 f   plats.obj
 0001:0002f110       ?Find@CFuncTrainControls@@QAEXXZ 10030110 f   plats.obj
 0001:0002f200       ?Spawn@CFuncTrainControls@@UAEXXZ 10030200 f   plats.obj
 0001:0002f280       _func_trackchange          10030280 f   plats.obj
 0001:0002f290       ?Save@CFuncTrackChange@@UAEHAAVCSave@@@Z 10030290 f   plats.obj
 0001:0002f2c0       ?Restore@CFuncTrackChange@@UAEHAAVCRestore@@@Z 100302c0 f   plats.obj
 0001:0002f2f0       ?Spawn@CFuncTrackChange@@UAEXXZ 100302f0 f   plats.obj
 0001:0002f3d0       ?Precache@CFuncTrackChange@@UAEXXZ 100303d0 f   plats.obj
 0001:0002f3f0       ?Touch@CFuncTrackChange@@UAEXPAVCBaseEntity@@@Z 100303f0 f   plats.obj
 0001:0002f400       ?KeyValue@CFuncTrackChange@@UAEXPAUKeyValueData_s@@@Z 10030400 f   plats.obj
 0001:0002f520       ?OverrideReset@CFuncTrackChange@@UAEXXZ 10030520 f   plats.obj
 0001:0002f540       ?Find@CFuncTrackChange@@QAEXXZ 10030540 f   plats.obj
 0001:0002f7e0       ?EvaluateTrain@CFuncTrackChange@@QAE?AW4TRAIN_CODE@@PAVCPathTrack@@@Z 100307e0 f   plats.obj
 0001:0002f8a0       ?UpdateTrain@CFuncTrackChange@@QAEXAAVVector@@@Z 100308a0 f   plats.obj
 0001:0002fac0       ?GoDown@CFuncTrackChange@@UAEXXZ 10030ac0 f   plats.obj
 0001:0002fb70       ?GoUp@CFuncTrackChange@@UAEXXZ 10030b70 f   plats.obj
 0001:0002fc20       ?UpdateAutoTargets@CFuncTrackChange@@UAEXH@Z 10030c20 f   plats.obj
 0001:0002fc90       ?Use@CFuncTrackChange@@UAEXPAVCBaseEntity@@0W4USE_TYPE@@M@Z 10030c90 f   plats.obj
 0001:0002fd50       ?HitBottom@CFuncTrackChange@@UAEXXZ 10030d50 f   plats.obj
 0001:0002fdd0       ?HitTop@CFuncTrackChange@@UAEXXZ 10030dd0 f   plats.obj
 0001:0002fe50       _func_trackautochange      10030e50 f   plats.obj
 0001:0002fe60       ?UpdateAutoTargets@CFuncTrackAuto@@UAEXH@Z 10030e60 f   plats.obj
 0001:0002ff20       ?Use@CFuncTrackAuto@@UAEXPAVCBaseEntity@@0W4USE_TYPE@@M@Z 10030f20 f   plats.obj
 0001:00030050       _func_guntarget            10031050 f   plats.obj
 0001:00030060       ?Save@CGunTarget@@UAEHAAVCSave@@@Z 10031060 f   plats.obj
 0001:00030090       ?Restore@CGunTarget@@UAEHAAVCRestore@@@Z 10031090 f   plats.obj
 0001:000300c0       ?Spawn@CGunTarget@@UAEXXZ  100310c0 f   plats.obj
 0001:00030190       ?Activate@CGunTarget@@UAEXXZ 10031190 f   plats.obj
 0001:00030250       ?Start@CGunTarget@@QAEXXZ  10031250 f   plats.obj
 0001:00030260       ?Next@CGunTarget@@QAEXXZ   10031260 f   plats.obj
 0001:00030310       ?Wait@CGunTarget@@QAEXXZ   10031310 f   plats.obj
 0001:000303d0       ?Stop@CGunTarget@@QAEXXZ   100313d0 f   plats.obj
 0001:00030410       ?TakeDamage@CGunTarget@@UAEHPAUentvars_t@@0MH@Z 10031410 f   plats.obj
 0001:00030490       ?Use@CGunTarget@@UAEXPAVCBaseEntity@@0W4USE_TYPE@@M@Z 10031490 f   plats.obj
 0001:00030510       ?GetClassPtr@@YAPAVCFuncPlat@@PAV1@@Z 10031510 f i plats.obj
 0001:00030570       ?ObjectCaps@CBasePlatTrain@@UAEHXZ 10031570 f i plats.obj
 0001:00030580       ?IsTogglePlat@CBasePlatTrain@@UAEHXZ 10031580 f i plats.obj
 0001:00030590       ?GetClassPtr@@YAPAVCPlatTrigger@@PAV1@@Z 10031590 f i plats.obj
 0001:000305e0       ?ObjectCaps@CPlatTrigger@@UAEHXZ 100315e0 f i plats.obj
 0001:000305f0       ?GetClassPtr@@YAPAVCFuncPlatRot@@PAV1@@Z 100315f0 f i plats.obj
 0001:00030650       ?GetClassPtr@@YAPAVCFuncTrain@@PAV1@@Z 10031650 f i plats.obj
 0001:000306b0       ?GetClassPtr@@YAPAVCFuncTrackTrain@@PAV1@@Z 100316b0 f i plats.obj
 0001:00030700       ?ObjectCaps@CFuncTrackTrain@@UAEHXZ 10031700 f i plats.obj
 0001:00030710       ?GetClassPtr@@YAPAVCFuncTrainControls@@PAV1@@Z 10031710 f i plats.obj
 0001:00030760       ?ObjectCaps@CFuncTrainControls@@UAEHXZ 10031760 f i plats.obj
 0001:00030770       ?GetClassPtr@@YAPAVCFuncTrackChange@@PAV1@@Z 10031770 f i plats.obj
 0001:000307d0       ?IsTogglePlat@CFuncTrackChange@@UAEHXZ 100317d0 f i plats.obj
 0001:000307e0       ?GetClassPtr@@YAPAVCFuncTrackAuto@@PAV1@@Z 100317e0 f i plats.obj
 0001:00030890       ??3CBaseEntity@@SAXPAXPAUentvars_t@@@Z 10031890 f i plats.obj
 0001:000308a0       ?GetClassPtr@@YAPAVCGunTarget@@PAV1@@Z 100318a0 f i plats.obj
 0001:00030900       ?BloodColor@CGunTarget@@UAEHXZ 10031900 f i plats.obj
 0001:00030910       ?Classify@CGunTarget@@UAEHXZ 10031910 f i plats.obj
 0001:00030920       ?BodyTarget@CGunTarget@@UAE?AVVector@@ABV2@@Z 10031920 f i plats.obj
 0001:00030940       ?ObjectCaps@CGunTarget@@UAEHXZ 10031940 f i plats.obj
 0001:00030950       ??0CBaseEntity@@QAE@XZ     10031950 f i plats.obj
 0001:00030960       _player                    10031960 f   player.obj
 0001:00030970       ?Pain@CBasePlayer@@QAEXXZ  10031970 f   player.obj
 0001:00030a10       ?VecVelocityForDamage@@YA?AVVector@@M@Z 10031a10 f   player.obj
 0001:00030b60       ?TrainSpeed@@YAHHH@Z       10031b60 f   player.obj
 0001:00030bc0       ?DeathSound@CBasePlayer@@QAEXXZ 10031bc0 f   player.obj
 0001:00030c60       ?TakeHealth@CBasePlayer@@UAEHMH@Z 10031c60 f   player.obj
 0001:00030c80       ?GetGunPosition@CBasePlayer@@UAE?AVVector@@XZ 10031c80 f   player.obj
 0001:00030cc0       ?TraceAttack@CBasePlayer@@UAEXPAUentvars_t@@MVVector@@PAUTraceResult@@H@Z 10031cc0 f   player.obj
 0001:00030db0       ?TakeDamage@CBasePlayer@@UAEHPAUentvars_t@@0MH@Z 10031db0 f   player.obj
 0001:000312a0       ?PackDeadPlayerItems@CBasePlayer@@QAEXXZ 100322a0 f   player.obj
 0001:000314e0       ?RemoveAllItems@CBasePlayer@@QAEXH@Z 100324e0 f   player.obj
 0001:000315f0       ?Killed@CBasePlayer@@UAEXPAUentvars_t@@H@Z 100325f0 f   player.obj
 0001:00031850       ?SetAnimation@CBasePlayer@@QAEXW4PLAYER_ANIM@@@Z 10032850 f   player.obj
 0001:00031c40       ?WaterMove@CBasePlayer@@QAEXXZ 10032c40 f   player.obj
 0001:00032260       ?IsOnLadder@CBasePlayer@@QAEHXZ 10033260 f   player.obj
 0001:00032280       ?CheckWaterJump@CBasePlayer@@QAEXXZ 10033280 f   player.obj
 0001:00032580       ?PlayerDeathThink@CBasePlayer@@QAEXXZ 10033580 f   player.obj
 0001:00032870       ?StartDeathCam@CBasePlayer@@QAEXXZ 10033870 f   player.obj
 0001:00032a00       ?StartObserver@CBasePlayer@@QAEXVVector@@0@Z 10033a00 f   player.obj
 0001:00032ab0       ?PlayerUse@CBasePlayer@@QAEXXZ 10033ab0 f   player.obj
 0001:00032e80       ?Jump@CBasePlayer@@UAEXXZ  10033e80 f   player.obj
 0001:000331c0       ?FixPlayerCrouchStuck@@YAXPAUedict_s@@@Z 100341c0 f   player.obj
 0001:00033210       ?Duck@CBasePlayer@@UAEXXZ  10034210 f   player.obj
 0001:00033690       ?Classify@CBasePlayer@@UAEHXZ 10034690 f   player.obj
 0001:000336a0       ?AddPoints@CBasePlayer@@UAEXHH@Z 100346a0 f   player.obj
 0001:00033760       ?AddPointsToTeam@CBasePlayer@@UAEXHH@Z 10034760 f   player.obj
 0001:000337e0       ?PlayStepSound@CBasePlayer@@QAEXHM@Z 100347e0 f   player.obj
 0001:00033ed0       ?MapTextureTypeStepType@@YAHD@Z 10034ed0 f   player.obj
 0001:00033f50       ?UpdateStepSound@CBasePlayer@@QAEXXZ 10034f50 f   player.obj
 0001:00034470       ?PreThink@CBasePlayer@@UAEXXZ 10035470 f   player.obj
 0001:000347c0       ?CheckTimeBasedDamage@CBasePlayer@@QAEXXZ 100357c0 f   player.obj
 0001:00034950       ?UpdateGeigerCounter@CBasePlayer@@QAEXXZ 10035950 f   player.obj
 0001:00034a00       ?CheckSuitUpdate@CBasePlayer@@QAEXXZ 10035a00 f   player.obj
 0001:00034b40       ?SetSuitUpdate@CBasePlayer@@QAEXPADHH@Z 10035b40 f   player.obj
 0001:00034cc0       ?UpdatePlayerSound@CBasePlayer@@QAEXXZ 10035cc0 f   player.obj
 0001:00034e60       ?PostThink@CBasePlayer@@UAEXXZ 10035e60 f   player.obj
 0001:00035280       ?IsSpawnPointValid@@YAHPAVCBaseEntity@@0@Z 10036280 f   player.obj
 0001:000352f0       ?EntSelectSpawnPoint@@YAPAUedict_s@@PAVCBaseEntity@@@Z 100362f0 f   player.obj
 0001:000355f0       ?Spawn@CBasePlayer@@UAEXXZ 100365f0 f   player.obj
 0001:00035910       ?Precache@CBasePlayer@@UAEXXZ 10036910 f   player.obj
 0001:00035be0       ?Save@CBasePlayer@@UAEHAAVCSave@@@Z 10036be0 f   player.obj
 0001:00035c10       ?RenewItems@CBasePlayer@@QAEXXZ 10036c10 f   player.obj
 0001:00035c20       ?Restore@CBasePlayer@@UAEHAAVCRestore@@@Z 10036c20 f   player.obj
 0001:00035e10       ?SelectNextItem@CBasePlayer@@QAEXH@Z 10036e10 f   player.obj
 0001:00035ea0       ?SelectItem@CBasePlayer@@QAEXPBD@Z 10036ea0 f   player.obj
 0001:00035fb0       ?SelectLastItem@CBasePlayer@@QAEXXZ 10036fb0 f   player.obj
 0001:00036020       ?HasWeapons@CBasePlayer@@QAEHXZ 10037020 f   player.obj
 0001:00036040       ?SelectPrevItem@CBasePlayer@@QAEXH@Z 10037040 f   player.obj
 0001:00036050       ?TeamID@CBasePlayer@@UAEPBDXZ 10037050 f   player.obj
 0001:00036070       ?Spawn@CSprayCan@@QAEXPAUentvars_t@@@Z 10037070 f   player.obj
 0001:00036140       ?Think@CSprayCan@@UAEXXZ   10037140 f   player.obj
 0001:00036290       ?Spawn@CBloodSplat@@QAEXPAUentvars_t@@@Z 10037290 f   player.obj
 0001:00036330       ?Spray@CBloodSplat@@QAEXXZ 10037330 f   player.obj
 0001:00036400       ?GiveNamedItem@CBasePlayer@@QAEXPBD@Z 10037400 f   player.obj
 0001:000364a0       ?FindEntityForward@@YAPAVCBaseEntity@@PAV1@@Z 100374a0 f   player.obj
 0001:000365e0       ?FlashlightIsOn@CBasePlayer@@QAEHXZ 100375e0 f   player.obj
 0001:000365f0       ?FlashlightTurnOn@CBasePlayer@@QAEXXZ 100375f0 f   player.obj
 0001:000366a0       ?FlashlightTurnOff@CBasePlayer@@QAEXXZ 100376a0 f   player.obj
 0001:00036730       ?ForceClientDllUpdate@CBasePlayer@@QAEXXZ 10037730 f   player.obj
 0001:00036770       ?ImpulseCommands@CBasePlayer@@UAEXXZ 10037770 f   player.obj
 0001:00036a40       ?CheatImpulseCommands@CBasePlayer@@QAEXH@Z 10037a40 f   player.obj
 0001:000371f0       ?AddPlayerItem@CBasePlayer@@UAEHPAVCBasePlayerItem@@@Z 100381f0 f   player.obj
 0001:00037370       ?RemovePlayerItem@CBasePlayer@@UAEHPAVCBasePlayerItem@@@Z 10038370 f   player.obj
 0001:00037430       ?GiveAmmo@CBasePlayer@@UAEHHPADH@Z 10038430 f   player.obj
 0001:000374f0       ?ItemPreFrame@CBasePlayer@@QAEXXZ 100384f0 f   player.obj
 0001:00037520       ?ItemPostFrame@CBasePlayer@@QAEXXZ 10038520 f   player.obj
 0001:00037570       ?AmmoInventory@CBasePlayer@@QAEHH@Z 10038570 f   player.obj
 0001:00037590       ?GetAmmoIndex@CBasePlayer@@SAHPBD@Z 10038590 f   player.obj
 0001:000375e0       ?SendAmmoUpdate@CBasePlayer@@QAEXXZ 100385e0 f   player.obj
 0001:00037660       ?UpdateClientData@CBasePlayer@@UAEXXZ 10038660 f   player.obj
 0001:00037c10       ?FBecomeProne@CBasePlayer@@UAEHXZ 10038c10 f   player.obj
 0001:00037c30       ?BarnacleVictimBitten@CBasePlayer@@QAEXPAUentvars_t@@@Z 10038c30 f   player.obj
 0001:00037c60       ?BarnacleVictimReleased@CBasePlayer@@QAEXXZ 10038c60 f   player.obj
 0001:00037c70       ?Illumination@CBasePlayer@@UAEHXZ 10038c70 f   player.obj
 0001:00037ca0       ?EnableControl@CBasePlayer@@QAEXH@Z 10038ca0 f   player.obj
 0001:00037cd0       ?GetAutoaimVector@CBasePlayer@@QAE?AVVector@@M@Z 10038cd0 f   player.obj
 0001:000380d0       ?AutoaimDeflection@CBasePlayer@@QAE?AVVector@@AAV2@MM@Z 100390d0 f   player.obj
 0001:00038750       ?ResetAutoaim@CBasePlayer@@QAEXXZ 10039750 f   player.obj
 0001:000387e0       ?SetCustomDecalFrames@CBasePlayer@@QAEXH@Z 100397e0 f   player.obj
 0001:00038810       ?GetCustomDecalFrames@CBasePlayer@@QAEHXZ 10039810 f   player.obj
 0001:00038820       ?DropPlayerItem@CBasePlayer@@QAEXPAD@Z 10039820 f   player.obj
 0001:00038b50       ?HasPlayerItem@CBasePlayer@@QAEHPAVCBasePlayerItem@@@Z 10039b50 f   player.obj
 0001:00038be0       ?HasNamedPlayerItem@CBasePlayer@@QAEHPBD@Z 10039be0 f   player.obj
 0001:00038c80       ?SwitchWeapon@CBasePlayer@@QAEHPAVCBasePlayerItem@@@Z 10039c80 f   player.obj
 0001:00038cd0       ?KeyValue@CDeadHEV@@UAEXPAUKeyValueData_s@@@Z 10039cd0 f   player.obj
 0001:00038d50       _monster_hevsuit_dead      10039d50 f   player.obj
 0001:00038d60       ?Spawn@CDeadHEV@@UAEXXZ    10039d60 f   player.obj
 0001:00038e40       _player_weaponstrip        10039e40 f   player.obj
 0001:00038e50       ?Use@CStripWeapons@@UAEXPAVCBaseEntity@@0W4USE_TYPE@@M@Z 10039e50 f   player.obj
 0001:00038ec0       _player_loadsaved          10039ec0 f   player.obj
 0001:00038ed0       ?Save@CRevertSaved@@UAEHAAVCSave@@@Z 10039ed0 f   player.obj
 0001:00038f00       ?Restore@CRevertSaved@@UAEHAAVCRestore@@@Z 10039f00 f   player.obj
 0001:00038f30       ?KeyValue@CRevertSaved@@UAEXPAUKeyValueData_s@@@Z 10039f30 f   player.obj
 0001:000390a0       ?Use@CRevertSaved@@UAEXPAVCBaseEntity@@0W4USE_TYPE@@M@Z 1003a0a0 f   player.obj
 0001:00039100       ?MessageThink@CRevertSaved@@QAEXXZ 1003a100 f   player.obj
 0001:00039160       ?LoadThink@CRevertSaved@@QAEXXZ 1003a160 f   player.obj
 0001:00039190       ?Spawn@CInfoIntermission@@EAEXXZ 1003a190 f   player.obj
 0001:00039200       ?Think@CInfoIntermission@@EAEXXZ 1003a200 f   player.obj
 0001:00039330       _info_intermission         1003a330 f   player.obj
 0001:00039340       ?GetClassPtr@@YAPAVCSprayCan@@PAV1@@Z 1003a340 f i player.obj
 0001:00039390       ?ObjectCaps@CSprayCan@@UAEHXZ 1003a390 f i player.obj
 0001:000393a0       ?GetClassPtr@@YAPAVCBloodSplat@@PAV1@@Z 1003a3a0 f i player.obj
 0001:000393f0       ?GetClassPtr@@YAPAVCDeadHEV@@PAV1@@Z 1003a3f0 f i player.obj
 0001:00039450       ?Classify@CDeadHEV@@UAEHXZ 1003a450 f i player.obj
 0001:00039460       ?GetClassPtr@@YAPAVCStripWeapons@@PAV1@@Z 1003a460 f i player.obj
 0001:000394b0       ?GetClassPtr@@YAPAVCRevertSaved@@PAV1@@Z 1003a4b0 f i player.obj
 0001:00039500       ?GetClassPtr@@YAPAVCInfoIntermission@@PAV1@@Z 1003a500 f i player.obj
 0001:00039550       _weapon_python             1003a550 f   python.obj
 0001:00039560       _weapon_357                1003a560 f   python.obj
 0001:00039570       ?GetItemInfo@CPython@@UAEHPAUItemInfo@@@Z 1003a570 f   python.obj
 0001:000395e0       ?AddToPlayer@CPython@@UAEHPAVCBasePlayer@@@Z 1003a5e0 f   python.obj
 0001:00039640       ?Spawn@CPython@@UAEXXZ     1003a640 f   python.obj
 0001:000396a0       ?Precache@CPython@@UAEXXZ  1003a6a0 f   python.obj
 0001:00039710       ?Deploy@CPython@@UAEHXZ    1003a710 f   python.obj
 0001:00039760       ?Holster@CPython@@UAEXXZ   1003a760 f   python.obj
 0001:000397c0       ?SecondaryAttack@CPython@@UAEXXZ 1003a7c0 f   python.obj
 0001:00039820       ?PrimaryAttack@CPython@@UAEXXZ 1003a820 f   python.obj
 0001:00039ac0       ?Reload@CPython@@UAEXXZ    1003aac0 f   python.obj
 0001:00039b00       ?WeaponIdle@CPython@@UAEXXZ 1003ab00 f   python.obj
 0001:00039c70       _ammo_357                  1003ac70 f   python.obj
 0001:00039c80       ?GetClassPtr@@YAPAVCPython@@PAV1@@Z 1003ac80 f i python.obj
 0001:00039ce0       ?iItemSlot@CPython@@UAEHXZ 1003ace0 f i python.obj
 0001:00039cf0       ?GetClassPtr@@YAPAVCPythonAmmo@@PAV1@@Z 1003acf0 f i python.obj
 0001:00039d40       ?Spawn@CPythonAmmo@@EAEXXZ 1003ad40 f i python.obj
 0001:00039d70       ?Precache@CPythonAmmo@@EAEXXZ 1003ad70 f i python.obj
 0001:00039d90       ?AddAmmo@CPythonAmmo@@EAEHPAVCBaseEntity@@@Z 1003ad90 f i python.obj
 0001:00039de0       _laser_spot                1003ade0 f   rpg.obj
 0001:00039df0       _weapon_rpg                1003adf0 f   rpg.obj
 0001:00039e00       ?Save@CRpg@@UAEHAAVCSave@@@Z 1003ae00 f   rpg.obj
 0001:00039e30       ?Restore@CRpg@@UAEHAAVCRestore@@@Z 1003ae30 f   rpg.obj
 0001:00039e60       ?CreateSpot@CLaserSpot@@SAPAV1@XZ 1003ae60 f   rpg.obj
 0001:00039e90       ?Spawn@CLaserSpot@@EAEXXZ  1003ae90 f   rpg.obj
 0001:00039f00       ?Suspend@CLaserSpot@@QAEXM@Z 1003af00 f   rpg.obj
 0001:00039f30       ?Revive@CLaserSpot@@QAEXXZ 1003af30 f   rpg.obj
 0001:00039f50       ?Precache@CLaserSpot@@EAEXXZ 1003af50 f   rpg.obj
 0001:00039f60       _rpg_rocket                1003af60 f   rpg.obj
 0001:00039f70       ?Save@CRpgRocket@@UAEHAAVCSave@@@Z 1003af70 f   rpg.obj
 0001:00039fa0       ?Restore@CRpgRocket@@UAEHAAVCRestore@@@Z 1003afa0 f   rpg.obj
 0001:00039fd0       ?CreateRpgRocket@CRpgRocket@@SAPAV1@VVector@@0PAVCBaseEntity@@PAVCRpg@@@Z 1003afd0 f   rpg.obj
 0001:0003a050       ?Spawn@CRpgRocket@@UAEXXZ  1003b050 f   rpg.obj
 0001:0003a1c0       ?RocketTouch@CRpgRocket@@QAEXPAVCBaseEntity@@@Z 1003b1c0 f   rpg.obj
 0001:0003a210       ?Precache@CRpgRocket@@UAEXXZ 1003b210 f   rpg.obj
 0001:0003a240       ?IgniteThink@CRpgRocket@@QAEXXZ 1003b240 f   rpg.obj
 0001:0003a340       ?FollowThink@CRpgRocket@@QAEXXZ 1003b340 f   rpg.obj
 0001:0003a9d0       ?Reload@CRpg@@UAEXXZ       1003b9d0 f   rpg.obj
 0001:0003aa70       ?Spawn@CRpg@@UAEXXZ        1003ba70 f   rpg.obj
 0001:0003aad0       ?Precache@CRpg@@UAEXXZ     1003bad0 f   rpg.obj
 0001:0003ab30       ?GetItemInfo@CRpg@@UAEHPAUItemInfo@@@Z 1003bb30 f   rpg.obj
 0001:0003aba0       ?AddToPlayer@CRpg@@UAEHPAVCBasePlayer@@@Z 1003bba0 f   rpg.obj
 0001:0003ac00       ?Deploy@CRpg@@UAEHXZ       1003bc00 f   rpg.obj
 0001:0003ac30       ?CanHolster@CRpg@@UAEHXZ   1003bc30 f   rpg.obj
 0001:0003ac50       ?Holster@CRpg@@UAEXXZ      1003bc50 f   rpg.obj
 0001:0003aca0       ?PrimaryAttack@CRpg@@UAEXXZ 1003bca0 f   rpg.obj
 0001:0003b020       ?SecondaryAttack@CRpg@@UAEXXZ 1003c020 f   rpg.obj
 0001:0003b060       ?WeaponIdle@CRpg@@UAEXXZ   1003c060 f   rpg.obj
 0001:0003b120       ?UpdateSpot@CRpg@@QAEXXZ   1003c120 f   rpg.obj
 0001:0003b220       _ammo_rpgclip              1003c220 f   rpg.obj
 0001:0003b230       ?GetClassPtr@@YAPAVCLaserSpot@@PAV1@@Z 1003c230 f i rpg.obj
 0001:0003b280       ?ObjectCaps@CLaserSpot@@EAEHXZ 1003c280 f i rpg.obj
 0001:0003b290       ?GetClassPtr@@YAPAVCRpg@@PAV1@@Z 1003c290 f i rpg.obj
 0001:0003b2f0       ?iItemSlot@CRpg@@UAEHXZ    1003c2f0 f i rpg.obj
 0001:0003b300       ?ShouldWeaponIdle@CRpg@@UAEHXZ 1003c300 f i rpg.obj
 0001:0003b310       ?GetClassPtr@@YAPAVCRpgRocket@@PAV1@@Z 1003c310 f i rpg.obj
 0001:0003b370       ?GetClassPtr@@YAPAVCRpgAmmo@@PAV1@@Z 1003c370 f i rpg.obj
 0001:0003b3c0       ?Spawn@CRpgAmmo@@EAEXXZ    1003c3c0 f i rpg.obj
 0001:0003b3f0       ?Precache@CRpgAmmo@@EAEXXZ 1003c3f0 f i rpg.obj
 0001:0003b410       ?AddAmmo@CRpgAmmo@@EAEHPAVCBaseEntity@@@Z 1003c410 f i rpg.obj
 0001:0003b480       _monster_satchel           1003c480 f   satchel.obj
 0001:0003b490       ?Deactivate@CSatchelCharge@@QAEXXZ 1003c490 f   satchel.obj
 0001:0003b4b0       ?Spawn@CSatchelCharge@@EAEXXZ 1003c4b0 f   satchel.obj
 0001:0003b5b0       ?SatchelSlide@CSatchelCharge@@AAEXPAVCBaseEntity@@@Z 1003c5b0 f   satchel.obj
 0001:0003b730       ?SatchelThink@CSatchelCharge@@AAEXXZ 1003c730 f   satchel.obj
 0001:0003b870       ?Precache@CSatchelCharge@@EAEXXZ 1003c870 f   satchel.obj
 0001:0003b8a0       ?BounceSound@CSatchelCharge@@EAEXXZ 1003c8a0 f   satchel.obj
 0001:0003b940       _weapon_satchel            1003c940 f   satchel.obj
 0001:0003b950       ?Save@CSatchel@@UAEHAAVCSave@@@Z 1003c950 f   satchel.obj
 0001:0003b980       ?Restore@CSatchel@@UAEHAAVCRestore@@@Z 1003c980 f   satchel.obj
 0001:0003b9b0       ?AddDuplicate@CSatchel@@UAEHPAVCBasePlayerItem@@@Z 1003c9b0 f   satchel.obj
 0001:0003b9e0       ?AddToPlayer@CSatchel@@UAEHPAVCBasePlayer@@@Z 1003c9e0 f   satchel.obj
 0001:0003ba30       ?Spawn@CSatchel@@UAEXXZ    1003ca30 f   satchel.obj
 0001:0003ba70       ?Precache@CSatchel@@UAEXXZ 1003ca70 f   satchel.obj
 0001:0003bac0       ?GetItemInfo@CSatchel@@UAEHPAUItemInfo@@@Z 1003cac0 f   satchel.obj
 0001:0003bb30       ?IsUseable@CSatchel@@UAEHXZ 1003cb30 f   satchel.obj
 0001:0003bb60       ?CanDeploy@CSatchel@@UAEHXZ 1003cb60 f   satchel.obj
 0001:0003bb90       ?Deploy@CSatchel@@UAEHXZ   1003cb90 f   satchel.obj
 0001:0003bcb0       ?Holster@CSatchel@@UAEXXZ  1003ccb0 f   satchel.obj
 0001:0003bd60       ?PrimaryAttack@CSatchel@@UAEXXZ 1003cd60 f   satchel.obj
 0001:0003be90       ?SecondaryAttack@CSatchel@@UAEXXZ 1003ce90 f   satchel.obj
 0001:0003bea0       ?Throw@CSatchel@@QAEXXZ    1003cea0 f   satchel.obj
 0001:0003c020       ?WeaponIdle@CSatchel@@UAEXXZ 1003d020 f   satchel.obj
 0001:0003c190       ?DeactivateSatchels@@YAXPAVCBasePlayer@@@Z 1003d190 f   satchel.obj
 0001:0003c210       ?GetClassPtr@@YAPAVCSatchelCharge@@PAV1@@Z 1003d210 f i satchel.obj
 0001:0003c270       ?GetClassPtr@@YAPAVCSatchel@@PAV1@@Z 1003d270 f i satchel.obj
 0001:0003c2c0       ?iItemSlot@CSatchel@@UAEHXZ 1003d2c0 f i satchel.obj
 0001:0003c2d0       _weapon_shotgun            1003d2d0 f   shotgun.obj
 0001:0003c2e0       ?Save@CShotgun@@UAEHAAVCSave@@@Z 1003d2e0 f   shotgun.obj
 0001:0003c310       ?Restore@CShotgun@@UAEHAAVCRestore@@@Z 1003d310 f   shotgun.obj
 0001:0003c340       ?Spawn@CShotgun@@UAEXXZ    1003d340 f   shotgun.obj
 0001:0003c380       ?Precache@CShotgun@@UAEXXZ 1003d380 f   shotgun.obj
 0001:0003c410       ?AddToPlayer@CShotgun@@UAEHPAVCBasePlayer@@@Z 1003d410 f   shotgun.obj
 0001:0003c470       ?GetItemInfo@CShotgun@@UAEHPAUItemInfo@@@Z 1003d470 f   shotgun.obj
 0001:0003c4e0       ?Deploy@CShotgun@@UAEHXZ   1003d4e0 f   shotgun.obj
 0001:0003c500       ?PrimaryAttack@CShotgun@@UAEXXZ 1003d500 f   shotgun.obj
 0001:0003cb60       ?SecondaryAttack@CShotgun@@UAEXXZ 1003db60 f   shotgun.obj
 0001:0003d510       ?Reload@CShotgun@@UAEXXZ   1003e510 f   shotgun.obj
 0001:0003d6a0       ?WeaponIdle@CShotgun@@UAEXXZ 1003e6a0 f   shotgun.obj
 0001:0003d890       _ammo_buckshot             1003e890 f   shotgun.obj
 0001:0003d8a0       ?GetClassPtr@@YAPAVCShotgun@@PAV1@@Z 1003e8a0 f i shotgun.obj
 0001:0003d900       ?iItemSlot@CShotgun@@UAEHXZ 1003e900 f i shotgun.obj
 0001:0003d910       ?GetClassPtr@@YAPAVCShotgunAmmo@@PAV1@@Z 1003e910 f i shotgun.obj
 0001:0003d960       ?Spawn@CShotgunAmmo@@EAEXXZ 1003e960 f i shotgun.obj
 0001:0003d990       ?Precache@CShotgunAmmo@@EAEXXZ 1003e990 f i shotgun.obj
 0001:0003d9b0       ?AddAmmo@CShotgunAmmo@@EAEHPAVCBaseEntity@@@Z 1003e9b0 f i shotgun.obj
 0001:0003da00       ??0CHalfLifeRules@@QAE@XZ  1003ea00 f   singleplay_gamerules.obj
 0001:0003da20       ?Think@CHalfLifeRules@@UAEXXZ 1003ea20 f   singleplay_gamerules.obj
 0001:0003da30       ?IsMultiplayer@CHalfLifeRules@@UAEHXZ 1003ea30 f   singleplay_gamerules.obj
 0001:0003da40       ?IsDeathmatch@CHalfLifeRules@@UAEHXZ 1003ea40 f   singleplay_gamerules.obj
 0001:0003da50       ?IsCoOp@CHalfLifeRules@@UAEHXZ 1003ea50 f   singleplay_gamerules.obj
 0001:0003da60       ?FShouldSwitchWeapon@CHalfLifeRules@@UAEHPAVCBasePlayer@@PAVCBasePlayerItem@@@Z 1003ea60 f   singleplay_gamerules.obj
 0001:0003da90       ?GetNextBestWeapon@CHalfLifeRules@@UAEHPAVCBasePlayer@@PAVCBasePlayerItem@@@Z 1003ea90 f   singleplay_gamerules.obj
 0001:0003daa0       ?ClientConnected@CHalfLifeRules@@UAEHPAUedict_s@@PBD1QAD@Z 1003eaa0 f   singleplay_gamerules.obj
 0001:0003dab0       ?InitHUD@CHalfLifeRules@@UAEXPAVCBasePlayer@@@Z 1003eab0 f   singleplay_gamerules.obj
 0001:0003dac0       ?ClientDisconnected@CHalfLifeRules@@UAEXPAUedict_s@@@Z 1003eac0 f   singleplay_gamerules.obj
 0001:0003dad0       ?FlPlayerFallDamage@CHalfLifeRules@@UAEMPAVCBasePlayer@@@Z 1003ead0 f   singleplay_gamerules.obj
 0001:0003daf0       ?PlayerSpawn@CHalfLifeRules@@UAEXPAVCBasePlayer@@@Z 1003eaf0 f   singleplay_gamerules.obj
 0001:0003db00       ?AllowAutoTargetCrosshair@CHalfLifeRules@@UAEHXZ 1003eb00 f   singleplay_gamerules.obj
 0001:0003db10       ?PlayerThink@CHalfLifeRules@@UAEXPAVCBasePlayer@@@Z 1003eb10 f   singleplay_gamerules.obj
 0001:0003db20       ?FPlayerCanRespawn@CHalfLifeRules@@UAEHPAVCBasePlayer@@@Z 1003eb20 f   singleplay_gamerules.obj
 0001:0003db30       ?FlPlayerSpawnTime@CHalfLifeRules@@UAEMPAVCBasePlayer@@@Z 1003eb30 f   singleplay_gamerules.obj
 0001:0003db40       ?IPointsForKill@CHalfLifeRules@@UAEHPAVCBasePlayer@@0@Z 1003eb40 f   singleplay_gamerules.obj
 0001:0003db50       ?PlayerKilled@CHalfLifeRules@@UAEXPAVCBasePlayer@@PAUentvars_t@@1@Z 1003eb50 f   singleplay_gamerules.obj
 0001:0003db60       ?DeathNotice@CHalfLifeRules@@UAEXPAVCBasePlayer@@PAUentvars_t@@1@Z 1003eb60 f   singleplay_gamerules.obj
 0001:0003db70       ?PlayerGotWeapon@CHalfLifeRules@@UAEXPAVCBasePlayer@@PAVCBasePlayerItem@@@Z 1003eb70 f   singleplay_gamerules.obj
 0001:0003db80       ?FlWeaponRespawnTime@CHalfLifeRules@@UAEMPAVCBasePlayerItem@@@Z 1003eb80 f   singleplay_gamerules.obj
 0001:0003db90       ?FlWeaponTryRespawn@CHalfLifeRules@@UAEMPAVCBasePlayerItem@@@Z 1003eb90 f   singleplay_gamerules.obj
 0001:0003dba0       ?VecWeaponRespawnSpot@CHalfLifeRules@@UAE?AVVector@@PAVCBasePlayerItem@@@Z 1003eba0 f   singleplay_gamerules.obj
 0001:0003dbd0       ?WeaponShouldRespawn@CHalfLifeRules@@UAEHPAVCBasePlayerItem@@@Z 1003ebd0 f   singleplay_gamerules.obj
 0001:0003dbe0       ?CanHaveItem@CHalfLifeRules@@UAEHPAVCBasePlayer@@PAVCItem@@@Z 1003ebe0 f   singleplay_gamerules.obj
 0001:0003dbf0       ?PlayerGotItem@CHalfLifeRules@@UAEXPAVCBasePlayer@@PAVCItem@@@Z 1003ebf0 f   singleplay_gamerules.obj
 0001:0003dc00       ?ItemShouldRespawn@CHalfLifeRules@@UAEHPAVCItem@@@Z 1003ec00 f   singleplay_gamerules.obj
 0001:0003dc10       ?FlItemRespawnTime@CHalfLifeRules@@UAEMPAVCItem@@@Z 1003ec10 f   singleplay_gamerules.obj
 0001:0003dc20       ?VecItemRespawnSpot@CHalfLifeRules@@UAE?AVVector@@PAVCItem@@@Z 1003ec20 f   singleplay_gamerules.obj
 0001:0003dc50       ?IsAllowedToSpawn@CHalfLifeRules@@UAEHPAVCBaseEntity@@@Z 1003ec50 f   singleplay_gamerules.obj
 0001:0003dc60       ?PlayerGotAmmo@CHalfLifeRules@@UAEXPAVCBasePlayer@@PADH@Z 1003ec60 f   singleplay_gamerules.obj
 0001:0003dc70       ?AmmoShouldRespawn@CHalfLifeRules@@UAEHPAVCBasePlayerAmmo@@@Z 1003ec70 f   singleplay_gamerules.obj
 0001:0003dc80       ?FlAmmoRespawnTime@CHalfLifeRules@@UAEMPAVCBasePlayerAmmo@@@Z 1003ec80 f   singleplay_gamerules.obj
 0001:0003dc90       ?VecAmmoRespawnSpot@CHalfLifeRules@@UAE?AVVector@@PAVCBasePlayerAmmo@@@Z 1003ec90 f   singleplay_gamerules.obj
 0001:0003dcc0       ?FlHealthChargerRechargeTime@CHalfLifeRules@@UAEMXZ 1003ecc0 f   singleplay_gamerules.obj
 0001:0003dcd0       ?DeadPlayerWeapons@CHalfLifeRules@@UAEHPAVCBasePlayer@@@Z 1003ecd0 f   singleplay_gamerules.obj
 0001:0003dce0       ?DeadPlayerAmmo@CHalfLifeRules@@UAEHPAVCBasePlayer@@@Z 1003ece0 f   singleplay_gamerules.obj
 0001:0003dcf0       ?PlayerRelationship@CHalfLifeRules@@UAEHPAVCBaseEntity@@0@Z 1003ecf0 f   singleplay_gamerules.obj
 0001:0003dd00       ?FAllowMonsters@CHalfLifeRules@@UAEHXZ 1003ed00 f   singleplay_gamerules.obj
 0001:0003dd10       ?UpdateGameMode@CGameRules@@UAEXPAVCBasePlayer@@@Z 1003ed10 f i singleplay_gamerules.obj
 0001:0003dd20       ?FPlayerCanTakeDamage@CGameRules@@UAEHPAVCBasePlayer@@PAVCBaseEntity@@@Z 1003ed20 f i singleplay_gamerules.obj
 0001:0003dd30       ?FlHEVChargerRechargeTime@CGameRules@@UAEMXZ 1003ed30 f i singleplay_gamerules.obj
 0001:0003dd40       ?PlayTextureSounds@CGameRules@@UAEHXZ 1003ed40 f i singleplay_gamerules.obj
 0001:0003dd50       ?PlayFootstepSounds@CGameRules@@UAEHPAVCBasePlayer@@M@Z 1003ed50 f i singleplay_gamerules.obj
 0001:0003dd60       ?EndMultiplayerGame@CGameRules@@UAEXXZ 1003ed60 f i singleplay_gamerules.obj
 0001:0003dd70       ?FAllowFlashlight@CHalfLifeRules@@UAEHXZ 1003ed70 f i singleplay_gamerules.obj
 0001:0003dd80       ?GetTeamID@CHalfLifeRules@@UAEPBDPAVCBaseEntity@@@Z 1003ed80 f i singleplay_gamerules.obj
 0001:0003dd90       ?GetSkillCvar@@YAMPAD@Z    1003ed90 f   skill.obj
 0001:0003ddf0       _ambient_generic           1003edf0 f   sound.obj
 0001:0003de00       ?Save@CAmbientGeneric@@UAEHAAVCSave@@@Z 1003ee00 f   sound.obj
 0001:0003de30       ?Restore@CAmbientGeneric@@UAEHAAVCRestore@@@Z 1003ee30 f   sound.obj
 0001:0003de60       ?Spawn@CAmbientGeneric@@UAEXXZ 1003ee60 f   sound.obj
 0001:0003df70       ?Precache@CAmbientGeneric@@UAEXXZ 1003ef70 f   sound.obj
 0001:0003e030       ?RampThink@CAmbientGeneric@@QAEXXZ 1003f030 f   sound.obj
 0001:0003e3a0       ?InitModulationParms@CAmbientGeneric@@QAEXXZ 1003f3a0 f   sound.obj
 0001:0003e550       ?ToggleUse@CAmbientGeneric@@QAEXPAVCBaseEntity@@0W4USE_TYPE@@M@Z 1003f550 f   sound.obj
 0001:0003e770       ?KeyValue@CAmbientGeneric@@UAEXPAUKeyValueData_s@@@Z 1003f770 f   sound.obj
 0001:0003ed60       _env_sound                 1003fd60 f   sound.obj
 0001:0003ed70       ?Save@CEnvSound@@UAEHAAVCSave@@@Z 1003fd70 f   sound.obj
 0001:0003eda0       ?Restore@CEnvSound@@UAEHAAVCRestore@@@Z 1003fda0 f   sound.obj
 0001:0003edd0       ?KeyValue@CEnvSound@@UAEXPAUKeyValueData_s@@@Z 1003fdd0 f   sound.obj
 0001:0003ee80       ?FEnvSoundInRange@@YAHPAUentvars_t@@0PAM@Z 1003fe80 f   sound.obj
 0001:0003efd0       ?Think@CEnvSound@@UAEXXZ   1003ffd0 f   sound.obj
 0001:0003f160       ?Spawn@CEnvSound@@UAEXXZ   10040160 f   sound.obj
 0001:0003f190       ?USENTENCEG_InitLRU@@YAXPAEH@Z 10040190 f   sound.obj
 0001:0003f200       ?USENTENCEG_PickSequential@@YAHHPADHH@Z 10040200 f   sound.obj
 0001:0003f310       ?USENTENCEG_Pick@@YAHHPAD@Z 10040310 f   sound.obj
 0001:0003f440       ?SENTENCEG_GetIndex@@YAHPBD@Z 10040440 f   sound.obj
 0001:0003f4c0       ?SENTENCEG_PlayRndI@@YAHPAUedict_s@@HMMHH@Z 100404c0 f   sound.obj
 0001:0003f530       ?SENTENCEG_PlayRndSz@@YAHPAUedict_s@@PBDMMHH@Z 10040530 f   sound.obj
 0001:0003f5c0       ?SENTENCEG_PlaySequentialSz@@YAHPAUedict_s@@PBDMMHHHH@Z 100405c0 f   sound.obj
 0001:0003f650       ?SENTENCEG_Stop@@YAXPAUedict_s@@HH@Z 10040650 f   sound.obj
 0001:0003f740       ?SENTENCEG_Init@@YAXXZ     10040740 f   sound.obj
 0001:0003fa50       ?SENTENCEG_Lookup@@YAHPBDPAD@Z 10040a50 f   sound.obj
 0001:0003fb00       ?EMIT_SOUND_DYN@@YAXPAUedict_s@@HPBDMMHH@Z 10040b00 f   sound.obj
 0001:0003fb90       ?EMIT_SOUND_SUIT@@YAXPAUedict_s@@PBD@Z 10040b90 f   sound.obj
 0001:0003fc00       ?EMIT_GROUPID_SUIT@@YAXPAUedict_s@@H@Z 10040c00 f   sound.obj
 0001:0003fc70       ?EMIT_GROUPNAME_SUIT@@YAXPAUedict_s@@PBD@Z 10040c70 f   sound.obj
 0001:0003fd80       ?TEXTURETYPE_Init@@YAXXZ   10040d80 f   sound.obj
 0001:0003ff60       ?TEXTURETYPE_Find@@YADPAD@Z 10040f60 f   sound.obj
 0001:0003ffb0       ?TEXTURETYPE_PlaySound@@YAMPAUTraceResult@@VVector@@1H@Z 10040fb0 f   sound.obj
 0001:00040500       _speaker                   10041500 f   sound.obj
 0001:00040510       ?Save@CSpeaker@@UAEHAAVCSave@@@Z 10041510 f   sound.obj
 0001:00040540       ?Restore@CSpeaker@@UAEHAAVCRestore@@@Z 10041540 f   sound.obj
 0001:00040570       ?Spawn@CSpeaker@@UAEXXZ    10041570 f   sound.obj
 0001:00040630       ?Precache@CSpeaker@@UAEXXZ 10041630 f   sound.obj
 0001:00040670       ?SpeakerThink@CSpeaker@@QAEXXZ 10041670 f   sound.obj
 0001:00040820       ?ToggleUse@CSpeaker@@QAEXPAVCBaseEntity@@0W4USE_TYPE@@M@Z 10041820 f   sound.obj
 0001:000408b0       ?KeyValue@CSpeaker@@UAEXPAUKeyValueData_s@@@Z 100418b0 f   sound.obj
 0001:00040920       ?GetClassPtr@@YAPAVCAmbientGeneric@@PAV1@@Z 10041920 f i sound.obj
 0001:00040980       ?ObjectCaps@CAmbientGeneric@@UAEHXZ 10041980 f i sound.obj
 0001:00040990       ?GetClassPtr@@YAPAVCEnvSound@@PAV1@@Z 10041990 f i sound.obj
 0001:000409e0       ?GetClassPtr@@YAPAVCSpeaker@@PAV1@@Z 100419e0 f i sound.obj
 0001:00040a30       ?ObjectCaps@CSpeaker@@UAEHXZ 10041a30 f i sound.obj
 0001:00040a40       _soundent                  10041a40 f   soundent.obj
 0001:00040a50       ?Clear@CSound@@QAEXXZ      10041a50 f   soundent.obj
 0001:00040a90       ?Reset@CSound@@QAEXXZ      10041a90 f   soundent.obj
 0001:00040ac0       ?FIsSound@CSound@@QAEHXZ   10041ac0 f   soundent.obj
 0001:00040ad0       ?FIsScent@CSound@@QAEHXZ   10041ad0 f   soundent.obj
 0001:00040ae0       ?Spawn@CSoundEnt@@UAEXXZ   10041ae0 f   soundent.obj
 0001:00040b10       ?Think@CSoundEnt@@UAEXXZ   10041b10 f   soundent.obj
 0001:00040bc0       ?Precache@CSoundEnt@@UAEXXZ 10041bc0 f   soundent.obj
 0001:00040bd0       ?FreeSound@CSoundEnt@@SAXHH@Z 10041bd0 f   soundent.obj
 0001:00040c30       ?IAllocSound@CSoundEnt@@QAEHXZ 10041c30 f   soundent.obj
 0001:00040c70       ?InsertSound@CSoundEnt@@SAXHABVVector@@HM@Z 10041c70 f   soundent.obj
 0001:00040d00       ?Initialize@CSoundEnt@@QAEXXZ 10041d00 f   soundent.obj
 0001:00040dc0       ?ISoundsInList@CSoundEnt@@QAEHH@Z 10041dc0 f   soundent.obj
 0001:00040e10       ?ActiveList@CSoundEnt@@SAHXZ 10041e10 f   soundent.obj
 0001:00040e30       ?FreeList@CSoundEnt@@SAHXZ 10041e30 f   soundent.obj
 0001:00040e50       ?SoundPointerForIndex@CSoundEnt@@SAPAVCSound@@H@Z 10041e50 f   soundent.obj
 0001:00040ea0       ?ClientSoundIndex@CSoundEnt@@SAHPAUedict_s@@@Z 10041ea0 f   soundent.obj
 0001:00040eb0       ?GetClassPtr@@YAPAVCSoundEnt@@PAV1@@Z 10041eb0 f i soundent.obj
 0001:00040f10       ?ObjectCaps@CSoundEnt@@UAEHXZ 10041f10 f i soundent.obj
 0001:00040f20       ?SpectatorConnect@CBaseSpectator@@QAEXXZ 10041f20 f   spectator.obj
 0001:00040f50       ?SpectatorDisconnect@CBaseSpectator@@QAEXXZ 10041f50 f   spectator.obj
 0001:00040f60       ?SpectatorImpulseCommand@CBaseSpectator@@AAEXXZ 10041f60 f   spectator.obj
 0001:00041050       ?SpectatorThink@CBaseSpectator@@QAEXXZ 10042050 f   spectator.obj
 0001:000410a0       ?Spawn@CBaseSpectator@@UAEXXZ 100420a0 f   spectator.obj
 0001:000410d0       _monster_snark             100420d0 f   squeakgrenade.obj
 0001:000410e0       ?Save@CSqueakGrenade@@EAEHAAVCSave@@@Z 100420e0 f   squeakgrenade.obj
 0001:00041110       ?Restore@CSqueakGrenade@@EAEHAAVCRestore@@@Z 10042110 f   squeakgrenade.obj
 0001:00041140       ?Classify@CSqueakGrenade@@EAEHXZ 10042140 f   squeakgrenade.obj
 0001:000411b0       ?Spawn@CSqueakGrenade@@EAEXXZ 100421b0 f   squeakgrenade.obj
 0001:00041350       ?Precache@CSqueakGrenade@@EAEXXZ 10042350 f   squeakgrenade.obj
 0001:000413b0       ?Killed@CSqueakGrenade@@EAEXPAUentvars_t@@H@Z 100423b0 f   squeakgrenade.obj
 0001:000414d0       ?GibMonster@CSqueakGrenade@@EAEXXZ 100424d0 f   squeakgrenade.obj
 0001:00041500       ?HuntThink@CSqueakGrenade@@AAEXXZ 10042500 f   squeakgrenade.obj
 0001:00041b80       ?SuperBounceTouch@CSqueakGrenade@@AAEXPAVCBaseEntity@@@Z 10042b80 f   squeakgrenade.obj
 0001:00041ed0       _weapon_snark              10042ed0 f   squeakgrenade.obj
 0001:00041ee0       ?Spawn@CSqueak@@UAEXXZ     10042ee0 f   squeakgrenade.obj
 0001:00041f50       ?Precache@CSqueak@@UAEXXZ  10042f50 f   squeakgrenade.obj
 0001:00041fa0       ?GetItemInfo@CSqueak@@UAEHPAUItemInfo@@@Z 10042fa0 f   squeakgrenade.obj
 0001:00042010       ?Deploy@CSqueak@@UAEHXZ    10043010 f   squeakgrenade.obj
 0001:000420a0       ?Holster@CSqueak@@UAEXXZ   100430a0 f   squeakgrenade.obj
 0001:00042140       ?PrimaryAttack@CSqueak@@UAEXXZ 10043140 f   squeakgrenade.obj
 0001:000423f0       ?SecondaryAttack@CSqueak@@UAEXXZ 100433f0 f   squeakgrenade.obj
 0001:00042400       ?WeaponIdle@CSqueak@@UAEXXZ 10043400 f   squeakgrenade.obj
 0001:00042510       ?GetClassPtr@@YAPAVCSqueakGrenade@@PAV1@@Z 10043510 f i squeakgrenade.obj
 0001:00042570       ?BloodColor@CSqueakGrenade@@EAEHXZ 10043570 f i squeakgrenade.obj
 0001:00042580       ?GetClassPtr@@YAPAVCSqueak@@PAV1@@Z 10043580 f i squeakgrenade.obj
 0001:000425d0       ?iItemSlot@CSqueak@@UAEHXZ 100435d0 f i squeakgrenade.obj
 0001:000425e0       ?Spawn@CPointEntity@@UAEXXZ 100435e0 f   subs.obj
 0001:000425f0       ?Spawn@CNullEntity@@UAEXXZ 100435f0 f   subs.obj
 0001:00042610       _info_null                 10043610 f   subs.obj
 0001:00042620       _info_player_deathmatch    10043620 f   subs.obj
 0001:00042630       _info_player_start         10043630 f   subs.obj
 0001:00042640       _info_landmark             10043640 f   subs.obj
 0001:00042650       ?KeyValue@CBaseDMStart@@UAEXPAUKeyValueData_s@@@Z 10043650 f   subs.obj
 0001:000426d0       ?IsTriggered@CBaseDMStart@@UAEHPAVCBaseEntity@@@Z 100436d0 f   subs.obj
 0001:000426f0       ?UpdateOnRemove@CBaseEntity@@QAEXXZ 100436f0 f   subs.obj
 0001:00042750       ?SUB_Remove@CBaseEntity@@QAEXXZ 10043750 f   subs.obj
 0001:000427a0       ?SUB_DoNothing@CBaseEntity@@QAEXXZ 100437a0 f   subs.obj
 0001:000427b0       ?Save@CBaseDelay@@UAEHAAVCSave@@@Z 100437b0 f   subs.obj
 0001:000427e0       ?Restore@CBaseDelay@@UAEHAAVCRestore@@@Z 100437e0 f   subs.obj
 0001:00042810       ?KeyValue@CBaseDelay@@UAEXPAUKeyValueData_s@@@Z 10043810 f   subs.obj
 0001:000428d0       ?SUB_UseTargets@CBaseEntity@@QAEXPAV1@W4USE_TYPE@@M@Z 100438d0 f   subs.obj
 0001:00042910       ?FireTargets@@YAXPBDPAVCBaseEntity@@1W4USE_TYPE@@M@Z 10043910 f   subs.obj
 0001:000429c0       _DelayedUse                100439c0 f   subs.obj
 0001:000429d0       ?SUB_UseTargets@CBaseDelay@@QAEXPAVCBaseEntity@@W4USE_TYPE@@M@Z 100439d0 f   subs.obj
 0001:00042b90       ?SetMovedir@@YAXPAUentvars_t@@@Z 10043b90 f   subs.obj
 0001:00042ca0       ?DelayThink@CBaseDelay@@QAEXXZ 10043ca0 f   subs.obj
 0001:00042d00       ?Save@CBaseToggle@@UAEHAAVCSave@@@Z 10043d00 f   subs.obj
 0001:00042d30       ?Restore@CBaseToggle@@UAEHAAVCRestore@@@Z 10043d30 f   subs.obj
 0001:00042d60       ?KeyValue@CBaseToggle@@UAEXPAUKeyValueData_s@@@Z 10043d60 f   subs.obj
 0001:00042ed0       ?LinearMove@CBaseToggle@@QAEXVVector@@M@Z 10043ed0 f   subs.obj
 0001:00042fd0       ?LinearMoveDone@CBaseToggle@@QAEXXZ 10043fd0 f   subs.obj
 0001:00043030       ?IsLockedByMaster@CBaseToggle@@QAEHXZ 10044030 f   subs.obj
 0001:00043070       ?AngularMove@CBaseToggle@@QAEXVVector@@M@Z 10044070 f   subs.obj
 0001:00043170       ?AngularMoveDone@CBaseToggle@@QAEXXZ 10044170 f   subs.obj
 0001:000431d0       ?AxisValue@CBaseToggle@@SAMHABVVector@@@Z 100441d0 f   subs.obj
 0001:00043200       ?AxisDir@CBaseToggle@@SAXPAUentvars_t@@@Z 10044200 f   subs.obj
 0001:000432b0       ?AxisDelta@CBaseToggle@@SAMHABVVector@@0@Z 100442b0 f   subs.obj
 0001:000432f0       ?FEntIsVisible@@YAHPAUentvars_t@@0@Z 100442f0 f   subs.obj
 0001:000433c0       ?GetClassPtr@@YAPAVCNullEntity@@PAV1@@Z 100443c0 f i subs.obj
 0001:00043410       ?GetClassPtr@@YAPAVCBaseDMStart@@PAV1@@Z 10044410 f i subs.obj
 0001:00043460       ?GetClassPtr@@YAPAVCBaseDelay@@PAV1@@Z 10044460 f i subs.obj
 0001:000434b0       ??0CHalfLifeTeamplay@@QAE@XZ 100444b0 f   teamplay_gamerules.obj
 0001:00043590       ?Think@CHalfLifeTeamplay@@UAEXXZ 10044590 f   teamplay_gamerules.obj
 0001:00043630       ?ClientCommand@CHalfLifeTeamplay@@UAEHPAVCBasePlayer@@PBD@Z 10044630 f   teamplay_gamerules.obj
 0001:000436a0       ?UpdateGameMode@CHalfLifeTeamplay@@UAEXPAVCBasePlayer@@@Z 100446a0 f   teamplay_gamerules.obj
 0001:000436e0       ?SetDefaultPlayerTeam@CHalfLifeTeamplay@@UAEPBDPAVCBasePlayer@@@Z 100446e0 f   teamplay_gamerules.obj
 0001:000437b0       ?InitHUD@CHalfLifeTeamplay@@UAEXPAVCBasePlayer@@@Z 100447b0 f   teamplay_gamerules.obj
 0001:00043960       ?ChangePlayerTeam@CHalfLifeTeamplay@@UAEXPAVCBasePlayer@@PBDHH@Z 10044960 f   teamplay_gamerules.obj
 0001:00043a60       ?ClientUserInfoChanged@CHalfLifeTeamplay@@UAEXPAVCBasePlayer@@PAD@Z 10044a60 f   teamplay_gamerules.obj
 0001:00043c60       ?DeathNotice@CHalfLifeTeamplay@@UAEXPAVCBasePlayer@@PAUentvars_t@@1@Z 10044c60 f   teamplay_gamerules.obj
 0001:00043d40       ?PlayerKilled@CHalfLifeTeamplay@@UAEXPAVCBasePlayer@@PAUentvars_t@@1@Z 10044d40 f   teamplay_gamerules.obj
 0001:00043d70       ?IsTeamplay@CHalfLifeTeamplay@@UAEHXZ 10044d70 f   teamplay_gamerules.obj
 0001:00043d80       ?FPlayerCanTakeDamage@CHalfLifeTeamplay@@UAEHPAVCBasePlayer@@PAVCBaseEntity@@@Z 10044d80 f   teamplay_gamerules.obj
 0001:00043de0       ?PlayerRelationship@CHalfLifeTeamplay@@UAEHPAVCBaseEntity@@0@Z 10044de0 f   teamplay_gamerules.obj
 0001:00043e60       ?ShouldAutoAim@CHalfLifeTeamplay@@UAEHPAVCBasePlayer@@PAUedict_s@@@Z 10044e60 f   teamplay_gamerules.obj
 0001:00043ec0       ?IPointsForKill@CHalfLifeTeamplay@@UAEHPAVCBasePlayer@@0@Z 10044ec0 f   teamplay_gamerules.obj
 0001:00043f00       ?GetTeamID@CHalfLifeTeamplay@@UAEPBDPAVCBaseEntity@@@Z 10044f00 f   teamplay_gamerules.obj
 0001:00043f30       ?GetTeamIndex@CHalfLifeTeamplay@@UAEHPBD@Z 10044f30 f   teamplay_gamerules.obj
 0001:00043f80       ?GetIndexedTeamName@CHalfLifeTeamplay@@UAEPBDH@Z 10044f80 f   teamplay_gamerules.obj
 0001:00043fb0       ?IsValidTeam@CHalfLifeTeamplay@@UAEHPBD@Z 10044fb0 f   teamplay_gamerules.obj
 0001:00043fe0       ?TeamWithFewestPlayers@CHalfLifeTeamplay@@AAEPBDXZ 10044fe0 f   teamplay_gamerules.obj
 0001:00044090       ?RecountTeams@CHalfLifeTeamplay@@AAEXXZ 10045090 f   teamplay_gamerules.obj
 0001:00044230       ?GetGameDescription@CHalfLifeTeamplay@@UAEPBDXZ 10045230 f i teamplay_gamerules.obj
 0001:00044240       _func_friction             10045240 f   triggers.obj
 0001:00044250       ?Save@CFrictionModifier@@UAEHAAVCSave@@@Z 10045250 f   triggers.obj
 0001:00044280       ?Restore@CFrictionModifier@@UAEHAAVCRestore@@@Z 10045280 f   triggers.obj
 0001:000442b0       ?Spawn@CFrictionModifier@@UAEXXZ 100452b0 f   triggers.obj
 0001:00044300       ?ChangeFriction@CFrictionModifier@@QAEXPAVCBaseEntity@@@Z 10045300 f   triggers.obj
 0001:00044330       ?KeyValue@CFrictionModifier@@UAEXPAUKeyValueData_s@@@Z 10045330 f   triggers.obj
 0001:000443b0       _trigger_auto              100453b0 f   triggers.obj
 0001:000443c0       ?Save@CAutoTrigger@@UAEHAAVCSave@@@Z 100453c0 f   triggers.obj
 0001:000443f0       ?Restore@CAutoTrigger@@UAEHAAVCRestore@@@Z 100453f0 f   triggers.obj
 0001:00044420       ?KeyValue@CAutoTrigger@@UAEXPAUKeyValueData_s@@@Z 10045420 f   triggers.obj
 0001:00044510       ?Spawn@CAutoTrigger@@UAEXXZ 10045510 f   triggers.obj
 0001:00044520       ?Precache@CAutoTrigger@@UAEXXZ 10045520 f   triggers.obj
 0001:00044540       ?Think@CAutoTrigger@@UAEXXZ 10045540 f   triggers.obj
 0001:00044580       _trigger_relay             10045580 f   triggers.obj
 0001:00044590       ?Save@CTriggerRelay@@UAEHAAVCSave@@@Z 10045590 f   triggers.obj
 0001:000445c0       ?Restore@CTriggerRelay@@UAEHAAVCRestore@@@Z 100455c0 f   triggers.obj
 0001:000445f0       ?KeyValue@CTriggerRelay@@UAEXPAUKeyValueData_s@@@Z 100455f0 f   triggers.obj
 0001:00044690       ?Spawn@CTriggerRelay@@UAEXXZ 10045690 f   triggers.obj
 0001:000446a0       ?Use@CTriggerRelay@@UAEXPAVCBaseEntity@@0W4USE_TYPE@@M@Z 100456a0 f   triggers.obj
 0001:000446d0       _multi_manager             100456d0 f   triggers.obj
 0001:000446e0       ?Save@CMultiManager@@UAEHAAVCSave@@@Z 100456e0 f   triggers.obj
 0001:00044710       ?Restore@CMultiManager@@UAEHAAVCRestore@@@Z 10045710 f   triggers.obj
 0001:00044740       ?KeyValue@CMultiManager@@UAEXPAUKeyValueData_s@@@Z 10045740 f   triggers.obj
 0001:00044820       ?Spawn@CMultiManager@@UAEXXZ 10045820 f   triggers.obj
 0001:00044890       ?HasTarget@CMultiManager@@UAEHH@Z 10045890 f   triggers.obj
 0001:00044920       ?ManagerThink@CMultiManager@@QAEXXZ 10045920 f   triggers.obj
 0001:00044a00       ?Clone@CMultiManager@@AAEPAV1@XZ 10045a00 f   triggers.obj
 0001:00044a80       ?ManagerUse@CMultiManager@@QAEXPAVCBaseEntity@@0W4USE_TYPE@@M@Z 10045a80 f   triggers.obj
 0001:00044af0       _env_render                10045af0 f   triggers.obj
 0001:00044b00       ?Spawn@CRenderFxManager@@UAEXXZ 10045b00 f   triggers.obj
 0001:00044b10       ?Use@CRenderFxManager@@UAEXPAVCBaseEntity@@0W4USE_TYPE@@M@Z 10045b10 f   triggers.obj
 0001:00044bf0       _trigger                   10045bf0 f   triggers.obj
 0001:00044c00       ?InitTrigger@CBaseTrigger@@QAEXXZ 10045c00 f   triggers.obj
 0001:00044cb0       ?KeyValue@CBaseTrigger@@UAEXPAUKeyValueData_s@@@Z 10045cb0 f   triggers.obj
 0001:00044dd0       _trigger_hurt              10045dd0 f   triggers.obj
 0001:00044de0       _trigger_monsterjump       10045de0 f   triggers.obj
 0001:00044df0       ?Spawn@CTriggerMonsterJump@@UAEXXZ 10045df0 f   triggers.obj
 0001:00044e60       ?Think@CTriggerMonsterJump@@UAEXXZ 10045e60 f   triggers.obj
 0001:00044e90       ?Touch@CTriggerMonsterJump@@UAEXPAVCBaseEntity@@@Z 10045e90 f   triggers.obj
 0001:00044f40       _trigger_cdaudio           10045f40 f   triggers.obj
 0001:00044f50       ?Touch@CTriggerCDAudio@@UAEXPAVCBaseEntity@@@Z 10045f50 f   triggers.obj
 0001:00044f70       ?Spawn@CTriggerCDAudio@@UAEXXZ 10045f70 f   triggers.obj
 0001:00044f80       ?Use@CTriggerCDAudio@@UAEXPAVCBaseEntity@@0W4USE_TYPE@@M@Z 10045f80 f   triggers.obj
 0001:00044f90       ?PlayCDTrack@@YAXH@Z       10045f90 f   triggers.obj
 0001:00045010       ?PlayTrack@CTriggerCDAudio@@QAEXXZ 10046010 f   triggers.obj
 0001:00045040       _target_cdaudio            10046040 f   triggers.obj
 0001:00045050       ?KeyValue@CTargetCDAudio@@UAEXPAUKeyValueData_s@@@Z 10046050 f   triggers.obj
 0001:000450d0       ?Spawn@CTargetCDAudio@@UAEXXZ 100460d0 f   triggers.obj
 0001:00045110       ?Use@CTargetCDAudio@@UAEXPAVCBaseEntity@@0W4USE_TYPE@@M@Z 10046110 f   triggers.obj
 0001:00045120       ?Think@CTargetCDAudio@@UAEXXZ 10046120 f   triggers.obj
 0001:000451a0       ?Play@CTargetCDAudio@@QAEXXZ 100461a0 f   triggers.obj
 0001:000451d0       ?Spawn@CTriggerHurt@@UAEXXZ 100461d0 f   triggers.obj
 0001:00045260       ?RadiationThink@CTriggerHurt@@QAEXXZ 10046260 f   triggers.obj
 0001:00045550       ?ToggleUse@CBaseTrigger@@QAEXPAVCBaseEntity@@0W4USE_TYPE@@M@Z 10046550 f   triggers.obj
 0001:000455b0       ?HurtTouch@CBaseTrigger@@QAEXPAVCBaseEntity@@@Z 100465b0 f   triggers.obj
 0001:000457b0       _trigger_multiple          100467b0 f   triggers.obj
 0001:000457c0       ?Spawn@CTriggerMultiple@@UAEXXZ 100467c0 f   triggers.obj
 0001:000457f0       _trigger_once              100467f0 f   triggers.obj
 0001:00045800       ?Spawn@CTriggerOnce@@UAEXXZ 10046800 f   triggers.obj
 0001:00045810       ?MultiTouch@CBaseTrigger@@QAEXPAVCBaseEntity@@@Z 10046810 f   triggers.obj
 0001:000458b0       ?ActivateMultiTrigger@CBaseTrigger@@QAEXPAVCBaseEntity@@@Z 100468b0 f   triggers.obj
 0001:00045aa0       ?MultiWaitOver@CBaseTrigger@@QAEXXZ 10046aa0 f   triggers.obj
 0001:00045ab0       ?CounterUse@CBaseTrigger@@QAEXPAVCBaseEntity@@0W4USE_TYPE@@M@Z 10046ab0 f   triggers.obj
 0001:00045bf0       _trigger_counter           10046bf0 f   triggers.obj
 0001:00045c00       ?Spawn@CTriggerCounter@@UAEXXZ 10046c00 f   triggers.obj
 0001:00045c30       _trigger_transition        10046c30 f   triggers.obj
 0001:00045c40       ?Spawn@CTriggerVolume@@UAEXXZ 10046c40 f   triggers.obj
 0001:00045ca0       _fireanddie                10046ca0 f   triggers.obj
 0001:00045cb0       ?Spawn@CFireAndDie@@UAEXXZ 10046cb0 f   triggers.obj
 0001:00045cd0       ?Precache@CFireAndDie@@UAEXXZ 10046cd0 f   triggers.obj
 0001:00045cf0       ?Think@CFireAndDie@@UAEXXZ 10046cf0 f   triggers.obj
 0001:00045d10       _trigger_changelevel       10046d10 f   triggers.obj
 0001:00045d20       ?Save@CChangeLevel@@UAEHAAVCSave@@@Z 10046d20 f   triggers.obj
 0001:00045d50       ?Restore@CChangeLevel@@UAEHAAVCRestore@@@Z 10046d50 f   triggers.obj
 0001:00045d80       ?KeyValue@CChangeLevel@@UAEXPAUKeyValueData_s@@@Z 10046d80 f   triggers.obj
 0001:00045f60       ?Spawn@CChangeLevel@@UAEXXZ 10046f60 f   triggers.obj
 0001:00046040       ?ExecuteChangeLevel@CChangeLevel@@QAEXXZ 10047040 f   triggers.obj
 0001:00046080       ?FindLandmark@CChangeLevel@@SAPAUedict_s@@PBD@Z 10047080 f   triggers.obj
 0001:00046120       ?UseChangeLevel@CChangeLevel@@QAEXPAVCBaseEntity@@0W4USE_TYPE@@M@Z 10047120 f   triggers.obj
 0001:00046130       ?ChangeLevelNow@CChangeLevel@@QAEXPAVCBaseEntity@@@Z 10047130 f   triggers.obj
 0001:00046300       ?TouchChangeLevel@CChangeLevel@@QAEXPAVCBaseEntity@@@Z 10047300 f   triggers.obj
 0001:00046370       ?AddTransitionToList@CChangeLevel@@SAHPAULEVELLIST@@HPBD1PAUedict_s@@@Z 10047370 f   triggers.obj
 0001:00046480       ?BuildChangeList@@YAHPAULEVELLIST@@H@Z 10047480 f   triggers.obj
 0001:000464a0       ?InTransitionVolume@CChangeLevel@@SAHPAVCBaseEntity@@PAD@Z 100474a0 f   triggers.obj
 0001:000465a0       ?ChangeList@CChangeLevel@@SAHPAULEVELLIST@@H@Z 100475a0 f   triggers.obj
 0001:00046860       ?ObjectCaps@CBaseTrigger@@UAEHXZ 10047860 f i triggers.obj
 0001:00046870       ?NextLevel@@YAXXZ          10047870 f   triggers.obj
 0001:00046960       _func_ladder               10047960 f   triggers.obj
 0001:00046970       ?KeyValue@CLadder@@UAEXPAUKeyValueData_s@@@Z 10047970 f   triggers.obj
 0001:00046980       ?Precache@CLadder@@UAEXXZ  10047980 f   triggers.obj
 0001:000469f0       ?Spawn@CLadder@@UAEXXZ     100479f0 f   triggers.obj
 0001:00046a40       _trigger_push              10047a40 f   triggers.obj
 0001:00046a50       ?KeyValue@CTriggerPush@@UAEXPAUKeyValueData_s@@@Z 10047a50 f   triggers.obj
 0001:00046a60       ?Spawn@CTriggerPush@@UAEXXZ 10047a60 f   triggers.obj
 0001:00046b00       ?Touch@CTriggerPush@@UAEXPAVCBaseEntity@@@Z 10047b00 f   triggers.obj
 0001:00046cb0       ?TeleportTouch@CBaseTrigger@@QAEXPAVCBaseEntity@@@Z 10047cb0 f   triggers.obj
 0001:00046e40       _trigger_teleport          10047e40 f   triggers.obj
 0001:00046e50       ?Spawn@CTriggerTeleport@@UAEXXZ 10047e50 f   triggers.obj
 0001:00046e70       _info_teleport_destination 10047e70 f   triggers.obj
 0001:00046e80       _trigger_autosave          10047e80 f   triggers.obj
 0001:00046e90       ?Spawn@CTriggerSave@@UAEXXZ 10047e90 f   triggers.obj
 0001:00046ed0       ?SaveTouch@CTriggerSave@@QAEXPAVCBaseEntity@@@Z 10047ed0 f   triggers.obj
 0001:00046f20       _trigger_endsection        10047f20 f   triggers.obj
 0001:00046f30       ?EndSectionUse@CTriggerEndSection@@QAEXPAVCBaseEntity@@0W4USE_TYPE@@M@Z 10047f30 f   triggers.obj
 0001:00046f80       ?Spawn@CTriggerEndSection@@UAEXXZ 10047f80 f   triggers.obj
 0001:00046fd0       ?EndSectionTouch@CTriggerEndSection@@QAEXPAVCBaseEntity@@@Z 10047fd0 f   triggers.obj
 0001:00047020       ?KeyValue@CTriggerEndSection@@UAEXPAUKeyValueData_s@@@Z 10048020 f   triggers.obj
 0001:000470a0       _trigger_gravity           100480a0 f   triggers.obj
 0001:000470b0       ?Spawn@CTriggerGravity@@UAEXXZ 100480b0 f   triggers.obj
 0001:000470d0       ?GravityTouch@CTriggerGravity@@QAEXPAVCBaseEntity@@@Z 100480d0 f   triggers.obj
 0001:00047100       _trigger_changetarget      10048100 f   triggers.obj
 0001:00047110       ?Save@CTriggerChangeTarget@@UAEHAAVCSave@@@Z 10048110 f   triggers.obj
 0001:00047140       ?Restore@CTriggerChangeTarget@@UAEHAAVCRestore@@@Z 10048140 f   triggers.obj
 0001:00047170       ?KeyValue@CTriggerChangeTarget@@UAEXPAUKeyValueData_s@@@Z 10048170 f   triggers.obj
 0001:000471e0       ?Spawn@CTriggerChangeTarget@@UAEXXZ 100481e0 f   triggers.obj
 0001:000471f0       ?Use@CTriggerChangeTarget@@UAEXPAVCBaseEntity@@0W4USE_TYPE@@M@Z 100481f0 f   triggers.obj
 0001:00047240       _trigger_camera            10048240 f   triggers.obj
 0001:00047250       ?Save@CTriggerCamera@@UAEHAAVCSave@@@Z 10048250 f   triggers.obj
 0001:00047280       ?Restore@CTriggerCamera@@UAEHAAVCRestore@@@Z 10048280 f   triggers.obj
 0001:000472b0       ?Spawn@CTriggerCamera@@UAEXXZ 100482b0 f   triggers.obj
 0001:00047320       ?KeyValue@CTriggerCamera@@UAEXPAUKeyValueData_s@@@Z 10048320 f   triggers.obj
 0001:00047490       ?Use@CTriggerCamera@@UAEXPAVCBaseEntity@@0W4USE_TYPE@@M@Z 10048490 f   triggers.obj
 0001:00047760       ?FollowTarget@CTriggerCamera@@QAEXXZ 10048760 f   triggers.obj
 0001:00047a30       ?Move@CTriggerCamera@@QAEXXZ 10048a30 f   triggers.obj
 0001:00047d20       ?GetClassPtr@@YAPAVCFrictionModifier@@PAV1@@Z 10048d20 f i triggers.obj
 0001:00047d70       ?ObjectCaps@CFrictionModifier@@UAEHXZ 10048d70 f i triggers.obj
 0001:00047d80       ?GetClassPtr@@YAPAVCAutoTrigger@@PAV1@@Z 10048d80 f i triggers.obj
 0001:00047dd0       ?ObjectCaps@CAutoTrigger@@UAEHXZ 10048dd0 f i triggers.obj
 0001:00047de0       ?GetClassPtr@@YAPAVCTriggerRelay@@PAV1@@Z 10048de0 f i triggers.obj
 0001:00047e30       ?ObjectCaps@CTriggerRelay@@UAEHXZ 10048e30 f i triggers.obj
 0001:00047e40       ?GetClassPtr@@YAPAVCMultiManager@@PAV1@@Z 10048e40 f i triggers.obj
 0001:00047ea0       ?ObjectCaps@CMultiManager@@UAEHXZ 10048ea0 f i triggers.obj
 0001:00047eb0       ?GetClassPtr@@YAPAVCRenderFxManager@@PAV1@@Z 10048eb0 f i triggers.obj
 0001:00047f00       ?GetClassPtr@@YAPAVCBaseTrigger@@PAV1@@Z 10048f00 f i triggers.obj
 0001:00047f60       ?GetClassPtr@@YAPAVCTriggerHurt@@PAV1@@Z 10048f60 f i triggers.obj
 0001:00047fc0       ?GetClassPtr@@YAPAVCTriggerMonsterJump@@PAV1@@Z 10048fc0 f i triggers.obj
 0001:00048020       ?GetClassPtr@@YAPAVCTriggerCDAudio@@PAV1@@Z 10049020 f i triggers.obj
 0001:00048080       ?GetClassPtr@@YAPAVCTargetCDAudio@@PAV1@@Z 10049080 f i triggers.obj
 0001:000480d0       ?GetClassPtr@@YAPAVCTriggerMultiple@@PAV1@@Z 100490d0 f i triggers.obj
 0001:00048130       ?GetClassPtr@@YAPAVCTriggerOnce@@PAV1@@Z 10049130 f i triggers.obj
 0001:00048190       ?GetClassPtr@@YAPAVCTriggerCounter@@PAV1@@Z 10049190 f i triggers.obj
 0001:000481f0       ?GetClassPtr@@YAPAVCTriggerVolume@@PAV1@@Z 100491f0 f i triggers.obj
 0001:00048240       ?GetClassPtr@@YAPAVCFireAndDie@@PAV1@@Z 10049240 f i triggers.obj
 0001:00048290       ?ObjectCaps@CFireAndDie@@UAEHXZ 10049290 f i triggers.obj
 0001:000482a0       ?GetClassPtr@@YAPAVCChangeLevel@@PAV1@@Z 100492a0 f i triggers.obj
 0001:00048300       ?GetClassPtr@@YAPAVCLadder@@PAV1@@Z 10049300 f i triggers.obj
 0001:00048360       ?GetClassPtr@@YAPAVCTriggerPush@@PAV1@@Z 10049360 f i triggers.obj
 0001:000483c0       ?GetClassPtr@@YAPAVCTriggerTeleport@@PAV1@@Z 100493c0 f i triggers.obj
 0001:00048420       ?GetClassPtr@@YAPAVCTriggerSave@@PAV1@@Z 10049420 f i triggers.obj
 0001:00048480       ?GetClassPtr@@YAPAVCTriggerEndSection@@PAV1@@Z 10049480 f i triggers.obj
 0001:000484e0       ?GetClassPtr@@YAPAVCTriggerGravity@@PAV1@@Z 100494e0 f i triggers.obj
 0001:00048540       ?GetClassPtr@@YAPAVCTriggerChangeTarget@@PAV1@@Z 10049540 f i triggers.obj
 0001:00048590       ?ObjectCaps@CTriggerChangeTarget@@UAEHXZ 10049590 f i triggers.obj
 0001:000485a0       ?GetClassPtr@@YAPAVCTriggerCamera@@PAV1@@Z 100495a0 f i triggers.obj
 0001:000485f0       ?ObjectCaps@CTriggerCamera@@UAEHXZ 100495f0 f i triggers.obj
 0001:00048600       _monster_tripmine          10049600 f   tripmine.obj
 0001:00048610       ?Save@CTripmineGrenade@@EAEHAAVCSave@@@Z 10049610 f   tripmine.obj
 0001:00048640       ?Restore@CTripmineGrenade@@EAEHAAVCRestore@@@Z 10049640 f   tripmine.obj
 0001:00048670       ?Spawn@CTripmineGrenade@@EAEXXZ 10049670 f   tripmine.obj
 0001:000488a0       ?Precache@CTripmineGrenade@@EAEXXZ 100498a0 f   tripmine.obj
 0001:000488d0       ?WarningThink@CTripmineGrenade@@AAEXXZ 100498d0 f   tripmine.obj
 0001:000488f0       ?PowerupThink@CTripmineGrenade@@AAEXXZ 100498f0 f   tripmine.obj
 0001:00048dd0       ?KillBeam@CTripmineGrenade@@AAEXXZ 10049dd0 f   tripmine.obj
 0001:00048e00       ?MakeBeam@CTripmineGrenade@@AAEXXZ 10049e00 f   tripmine.obj
 0001:00048fa0       ?BeamBreakThink@CTripmineGrenade@@AAEXXZ 10049fa0 f   tripmine.obj
 0001:00049120       ?TakeDamage@CTripmineGrenade@@EAEHPAUentvars_t@@0MH@Z 1004a120 f   tripmine.obj
 0001:00049190       ?Killed@CTripmineGrenade@@EAEXPAUentvars_t@@H@Z 1004a190 f   tripmine.obj
 0001:00049220       ?DelayDeathThink@CTripmineGrenade@@AAEXXZ 1004a220 f   tripmine.obj
 0001:00049320       _weapon_tripmine           1004a320 f   tripmine.obj
 0001:00049330       ?Spawn@CTripmine@@UAEXXZ   1004a330 f   tripmine.obj
 0001:000493f0       ?Precache@CTripmine@@UAEXXZ 1004a3f0 f   tripmine.obj
 0001:00049420       ?GetItemInfo@CTripmine@@UAEHPAUItemInfo@@@Z 1004a420 f   tripmine.obj
 0001:00049490       ?Deploy@CTripmine@@UAEHXZ  1004a490 f   tripmine.obj
 0001:000494c0       ?Holster@CTripmine@@UAEXXZ 1004a4c0 f   tripmine.obj
 0001:00049560       ?PrimaryAttack@CTripmine@@UAEXXZ 1004a560 f   tripmine.obj
 0001:000497f0       ?WeaponIdle@CTripmine@@UAEXXZ 1004a7f0 f   tripmine.obj
 0001:000498d0       ?GetClassPtr@@YAPAVCTripmineGrenade@@PAV1@@Z 1004a8d0 f i tripmine.obj
 0001:00049930       ?GetClassPtr@@YAPAVCTripmine@@PAV1@@Z 1004a930 f i tripmine.obj
 0001:00049980       ?iItemSlot@CTripmine@@UAEHXZ 1004a980 f i tripmine.obj
 0001:00049990       ?SetObjectCollisionBox@CTripmine@@UAEXXZ 1004a990 f i tripmine.obj
 0001:00049a50       ?UTIL_AngleMod@@YAMM@Z     1004aa50 f   util.obj
 0001:00049ad0       ?UTIL_AngleDiff@@YAMMM@Z   1004aad0 f   util.obj
 0001:00049b10       ?UTIL_VecToAngles@@YA?AVVector@@ABV1@@Z 1004ab10 f   util.obj
 0001:00049b40       ?UTIL_MoveToOrigin@@YAXPAUedict_s@@ABVVector@@MH@Z 1004ab40 f   util.obj
 0001:00049b80       ?UTIL_EntitiesInBox@@YAHPAPAVCBaseEntity@@HABVVector@@1H@Z 1004ab80 f   util.obj
 0001:00049c90       ?UTIL_MonstersInSphere@@YAHPAPAVCBaseEntity@@HABVVector@@M@Z 1004ac90 f   util.obj
 0001:00049da0       ?UTIL_FindEntityInSphere@@YAPAVCBaseEntity@@PAV1@ABVVector@@M@Z 1004ada0 f   util.obj
 0001:00049df0       ?UTIL_FindEntityByString@@YAPAVCBaseEntity@@PAV1@PBD1@Z 1004adf0 f   util.obj
 0001:00049e40       ?UTIL_FindEntityByClassname@@YAPAVCBaseEntity@@PAV1@PBD@Z 1004ae40 f   util.obj
 0001:00049e60       ?UTIL_FindEntityByTargetname@@YAPAVCBaseEntity@@PAV1@PBD@Z 1004ae60 f   util.obj
 0001:00049e80       ?UTIL_FindEntityGeneric@@YAPAVCBaseEntity@@PBDAAVVector@@M@Z 1004ae80 f   util.obj
 0001:00049f20       ?UTIL_PlayerByIndex@@YAPAVCBaseEntity@@H@Z 1004af20 f   util.obj
 0001:00049f60       ?UTIL_MakeVectors@@YAXABVVector@@@Z 1004af60 f   util.obj
 0001:00049f70       ?UTIL_MakeAimVectors@@YAXABVVector@@@Z 1004af70 f   util.obj
 0001:00049fa0       ?UTIL_MakeInvVectors@@YAXABVVector@@PAUglobalvars_t@@@Z 1004afa0 f   util.obj
 0001:0004a030       ?UTIL_EmitAmbientSound@@YAXPAUedict_s@@ABVVector@@PBDMMHH@Z 1004b030 f   util.obj
 0001:0004a0d0       ?UTIL_ScreenShake@@YAXABVVector@@MMMM@Z 1004b0d0 f   util.obj
 0001:0004a270       ?UTIL_ScreenShakeAll@@YAXABVVector@@MMM@Z 1004b270 f   util.obj
 0001:0004a290       ?UTIL_ScreenFadeBuild@@YAXAAUScreenFade@@ABVVector@@MMHH@Z 1004b290 f   util.obj
 0001:0004a300       ?UTIL_ScreenFadeWrite@@YAXABUScreenFade@@PAVCBaseEntity@@@Z 1004b300 f   util.obj
 0001:0004a3a0       ?UTIL_ScreenFadeAll@@YAXABVVector@@MMHH@Z 1004b3a0 f   util.obj
 0001:0004a410       ?UTIL_ScreenFade@@YAXPAVCBaseEntity@@ABVVector@@MMHH@Z 1004b410 f   util.obj
 0001:0004a450       ?UTIL_HudMessage@@YAXPAVCBaseEntity@@ABUhudtextparms_s@@PBD@Z 1004b450 f   util.obj
 0001:0004a660       ?UTIL_HudMessageAll@@YAXABUhudtextparms_s@@PBD@Z 1004b660 f   util.obj
 0001:0004a6b0       ?UTIL_ClientPrintAll@@YAXHPBD0000@Z 1004b6b0 f   util.obj
 0001:0004a730       ?ClientPrint@@YAXPAUentvars_t@@HPBD1111@Z 1004b730 f   util.obj
 0001:0004a7c0       ?UTIL_SayText@@YAXPBDPAVCBaseEntity@@@Z 1004b7c0 f   util.obj
 0001:0004a820       ?UTIL_SayTextAll@@YAXPBDPAVCBaseEntity@@@Z 1004b820 f   util.obj
 0001:0004a870       ?UTIL_dtos1@@YAPADH@Z      1004b870 f   util.obj
 0001:0004a890       ?UTIL_dtos2@@YAPADH@Z      1004b890 f   util.obj
 0001:0004a8b0       ?UTIL_dtos3@@YAPADH@Z      1004b8b0 f   util.obj
 0001:0004a8d0       ?UTIL_dtos4@@YAPADH@Z      1004b8d0 f   util.obj
 0001:0004a8f0       ?UTIL_ShowMessage@@YAXPBDPAVCBaseEntity@@@Z 1004b8f0 f   util.obj
 0001:0004a940       ?UTIL_ShowMessageAll@@YAXPBD@Z 1004b940 f   util.obj
 0001:0004a990       ?UTIL_TraceLine@@YAXABVVector@@0W4IGNORE_MONSTERS@@W4IGNORE_GLASS@@PAUedict_s@@PAUTraceResult@@@Z 1004b990 f   util.obj
 0001:0004a9d0       ?UTIL_TraceLine@@YAXABVVector@@0W4IGNORE_MONSTERS@@PAUedict_s@@PAUTraceResult@@@Z 1004b9d0 f   util.obj
 0001:0004aa00       ?UTIL_TraceHull@@YAXABVVector@@0W4IGNORE_MONSTERS@@HPAUedict_s@@PAUTraceResult@@@Z 1004ba00 f   util.obj
 0001:0004aa30       ?UTIL_TraceModel@@YAXABVVector@@0HPAUedict_s@@PAUTraceResult@@@Z 1004ba30 f   util.obj
 0001:0004aa60       ?UTIL_GetGlobalTrace@@YA?AUTraceResult@@XZ 1004ba60 f   util.obj
 0001:0004ab30       ?UTIL_SetSize@@YAXPAUentvars_t@@ABVVector@@1@Z 1004bb30 f   util.obj
 0001:0004ab50       ?UTIL_VecToYaw@@YAMABVVector@@@Z 1004bb50 f   util.obj
 0001:0004ab60       ?UTIL_SetOrigin@@YAXPAUentvars_t@@ABVVector@@@Z 1004bb60 f   util.obj
 0001:0004ab80       ?UTIL_ParticleEffect@@YAXABVVector@@0KK@Z 1004bb80 f   util.obj
 0001:0004abd0       ?UTIL_Approach@@YAMMMM@Z   1004bbd0 f   util.obj
 0001:0004ac10       ?UTIL_ApproachAngle@@YAMMMM@Z 1004bc10 f   util.obj
 0001:0004acb0       ?UTIL_AngleDistance@@YAMMM@Z 1004bcb0 f   util.obj
 0001:0004ace0       ?UTIL_SplineFraction@@YAMMM@Z 1004bce0 f   util.obj
 0001:0004ad00       ?UTIL_VarArgs@@YAPADPADZZ  1004bd00 f   util.obj
 0001:0004ad20       ?UTIL_GetAimVector@@YA?AVVector@@PAUedict_s@@M@Z 1004bd20 f   util.obj
 0001:0004ad60       ?UTIL_IsMasterTriggered@@YAHHPAVCBaseEntity@@@Z 1004bd60 f   util.obj
 0001:0004ade0       ?UTIL_ShouldShowBlood@@YAHH@Z 1004bde0 f   util.obj
 0001:0004ae40       ?UTIL_PointContents@@YAHABVVector@@@Z 1004be40 f   util.obj
 0001:0004ae50       ?UTIL_BloodStream@@YAXABVVector@@0HH@Z 1004be50 f   util.obj
 0001:0004af00       ?UTIL_BloodDrips@@YAXABVVector@@0HH@Z 1004bf00 f   util.obj
 0001:0004b010       ?UTIL_RandomBloodVector@@YA?AVVector@@XZ 1004c010 f   util.obj
 0001:0004b060       ?UTIL_BloodDecalTrace@@YAXPAUTraceResult@@H@Z 1004c060 f   util.obj
 0001:0004b0b0       ?UTIL_DecalTrace@@YAXPAUTraceResult@@H@Z 1004c0b0 f   util.obj
 0001:0004b1c0       ?UTIL_PlayerDecalTrace@@YAXPAUTraceResult@@HHH@Z 1004c1c0 f   util.obj
 0001:0004b270       ?UTIL_GunshotDecalTrace@@YAXPAUTraceResult@@H@Z 1004c270 f   util.obj
 0001:0004b300       ?UTIL_Sparks@@YAXABVVector@@@Z 1004c300 f   util.obj
 0001:0004b350       ?UTIL_Ricochet@@YAXABVVector@@M@Z 1004c350 f   util.obj
 0001:0004b3b0       ?UTIL_TeamsMatch@@YAHPBD0@Z 1004c3b0 f   util.obj
 0001:0004b3f0       ?UTIL_StringToVector@@YAXPAMPBD@Z 1004c3f0 f   util.obj
 0001:0004b490       ?UTIL_StringToIntArray@@YAXPAHHPBD@Z 1004c490 f   util.obj
 0001:0004b530       ?UTIL_ClampVectorToBox@@YA?AVVector@@ABV1@0@Z 1004c530 f   util.obj
 0001:0004b680       ?UTIL_WaterLevel@@YAMABVVector@@MM@Z 1004c680 f   util.obj
 0001:0004b740       ?UTIL_Bubbles@@YAXVVector@@0H@Z 1004c740 f   util.obj
 0001:0004b860       ?UTIL_BubbleTrail@@YAXVVector@@0H@Z 1004c860 f   util.obj
 0001:0004b980       ?UTIL_Remove@@YAXPAVCBaseEntity@@@Z 1004c980 f   util.obj
 0001:0004b9c0       ?UTIL_IsValidEntity@@YAHPAUedict_s@@@Z 1004c9c0 f   util.obj
 0001:0004b9f0       ?UTIL_PrecacheOther@@YAXPBD@Z 1004c9f0 f   util.obj
 0001:0004ba70       ?UTIL_LogPrintf@@YAXPADZZ  1004ca70 f   util.obj
 0001:0004baa0       ?UTIL_DotPoints@@YAMABVVector@@00@Z 1004caa0 f   util.obj
 0001:0004bb40       ?UTIL_StripToken@@YAXPBDPAD@Z 1004cb40 f   util.obj
 0001:0004bb80       ??0CSaveRestoreBuffer@@QAE@XZ 1004cb80 f   util.obj
 0001:0004bb90       ??0CSaveRestoreBuffer@@QAE@PAUsaverestore_s@@@Z 1004cb90 f   util.obj
 0001:0004bba0       ??1CSaveRestoreBuffer@@QAE@XZ 1004cba0 f   util.obj
 0001:0004bbb0       ?EntityIndex@CSaveRestoreBuffer@@QAEHPAVCBaseEntity@@@Z 1004cbb0 f   util.obj
 0001:0004bbd0       ?EntityIndex@CSaveRestoreBuffer@@QAEHPAUentvars_t@@@Z 1004cbd0 f   util.obj
 0001:0004bbf0       ?EntityIndex@CSaveRestoreBuffer@@QAEHH@Z 1004cbf0 f   util.obj
 0001:0004bc10       ?EntityIndex@CSaveRestoreBuffer@@QAEHPAUedict_s@@@Z 1004cc10 f   util.obj
 0001:0004bc50       ?EntityFromIndex@CSaveRestoreBuffer@@QAEPAUedict_s@@H@Z 1004cc50 f   util.obj
 0001:0004bc90       ?EntityFlagsSet@CSaveRestoreBuffer@@QAEHHH@Z 1004cc90 f   util.obj
 0001:0004bce0       ?BufferRewind@CSaveRestoreBuffer@@IAEXH@Z 1004cce0 f   util.obj
 0001:0004bd10       ?HashString@CSaveRestoreBuffer@@IAEIPBD@Z 1004cd10 f   util.obj
 0001:0004bd30       ?TokenHash@CSaveRestoreBuffer@@QAEGPBD@Z 1004cd30 f   util.obj
 0001:0004be10       ?WriteData@CSave@@QAEXPBDH0@Z 1004ce10 f   util.obj
 0001:0004be30       ?WriteShort@CSave@@QAEXPBDPBFH@Z 1004ce30 f   util.obj
 0001:0004be50       ?WriteInt@CSave@@QAEXPBDPBHH@Z 1004ce50 f   util.obj
 0001:0004be70       ?WriteFloat@CSave@@QAEXPBDPBMH@Z 1004ce70 f   util.obj
 0001:0004be90       ?WriteTime@CSave@@QAEXPBDPBMH@Z 1004ce90 f   util.obj
 0001:0004bef0       ?WriteString@CSave@@QAEXPBD0@Z 1004cef0 f   util.obj
 0001:0004bf20       ?WriteString@CSave@@QAEXPBDPBHH@Z 1004cf20 f   util.obj
 0001:0004bfb0       ?WriteVector@CSave@@QAEXPBDABVVector@@@Z 1004cfb0 f   util.obj
 0001:0004bfd0       ?WriteVector@CSave@@QAEXPBDPBMH@Z 1004cfd0 f   util.obj
 0001:0004c000       ?WritePositionVector@CSave@@QAEXPBDABVVector@@@Z 1004d000 f   util.obj
 0001:0004c080       ?WritePositionVector@CSave@@QAEXPBDPBMH@Z 1004d080 f   util.obj
 0001:0004c140       ?WriteFunction@CSave@@QAEXPBDPBHH@Z 1004d140 f   util.obj
 0001:0004c190       ?EntvarsKeyvalue@@YAXPAUentvars_t@@PAUKeyValueData_s@@@Z 1004d190 f   util.obj
 0001:0004c2a0       ?WriteEntVars@CSave@@QAEHPBDPAUentvars_t@@@Z 1004d2a0 f   util.obj
 0001:0004c2c0       ?WriteFields@CSave@@QAEHPBDPAXPAUTYPEDESCRIPTION@@H@Z 1004d2c0 f   util.obj
 0001:0004c590       ?BufferString@CSave@@AAEXPADH@Z 1004d590 f   util.obj
 0001:0004c5c0       ?DataEmpty@CSave@@AAEHPBDH@Z 1004d5c0 f   util.obj
 0001:0004c5f0       ?BufferField@CSave@@AAEXPBDH0@Z 1004d5f0 f   util.obj
 0001:0004c620       ?BufferHeader@CSave@@AAEXPBDH@Z 1004d620 f   util.obj
 0001:0004c670       ?BufferData@CSave@@AAEXPBDH@Z 1004d670 f   util.obj
 0001:0004c6e0       ?ReadField@CRestore@@QAEHPAXPAUTYPEDESCRIPTION@@HHHPAD0@Z 1004d6e0 f   util.obj
 0001:0004ca40       ?ReadEntVars@CRestore@@QAEHPBDPAUentvars_t@@@Z 1004da40 f   util.obj
 0001:0004ca60       ?ReadFields@CRestore@@QAEHPBDPAXPAUTYPEDESCRIPTION@@H@Z 1004da60 f   util.obj
 0001:0004cb90       ?BufferReadHeader@CRestore@@AAEXPAUHEADER@@@Z 1004db90 f   util.obj
 0001:0004cbd0       ?ReadShort@CRestore@@QAEFXZ 1004dbd0 f   util.obj
 0001:0004cbf0       ?ReadInt@CRestore@@QAEHXZ  1004dbf0 f   util.obj
 0001:0004cc10       ?ReadNamedInt@CRestore@@QAEHPBD@Z 1004dc10 f   util.obj
 0001:0004cc30       ?ReadNamedString@CRestore@@QAEPADPBD@Z 1004dc30 f   util.obj
 0001:0004cc50       ?BufferPointer@CRestore@@AAEPADXZ 1004dc50 f   util.obj
 0001:0004cc60       ?BufferReadBytes@CRestore@@AAEXPADH@Z 1004dc60 f   util.obj
 0001:0004cce0       ?BufferSkipBytes@CRestore@@AAEXH@Z 1004dce0 f   util.obj
 0001:0004ccf0       ?BufferSkipZString@CRestore@@AAEHXZ 1004dcf0 f   util.obj
 0001:0004cd30       ?BufferCheckZString@CRestore@@AAEHPBD@Z 1004dd30 f   util.obj
 0001:0004cd80       ?MaxAmmoCarry@@YAHH@Z      1004dd80 f   weapons.obj
 0001:0004ce80       ?ClearMultiDamage@@YAXXZ   1004de80 f   weapons.obj
 0001:0004cea0       ?ApplyMultiDamage@@YAXPAUentvars_t@@0@Z 1004dea0 f   weapons.obj
 0001:0004ced0       ?AddMultiDamage@@YAXPAUentvars_t@@PAVCBaseEntity@@MH@Z 1004ded0 f   weapons.obj
 0001:0004cf30       ?SpawnBlood@@YAXVVector@@HM@Z 1004df30 f   weapons.obj
 0001:0004cf60       ?DamageDecal@@YAHPAVCBaseEntity@@H@Z 1004df60 f   weapons.obj
 0001:0004cf80       ?DecalGunshot@@YAXPAUTraceResult@@H@Z 1004df80 f   weapons.obj
 0001:0004d040       ?EjectBrass@@YAXABVVector@@0MHH@Z 1004e040 f   weapons.obj
 0001:0004d0d0       ?AddAmmoNameToAmmoRegistry@@YAXPBD@Z 1004e0d0 f   weapons.obj
 0001:0004d130       ?UTIL_PrecacheOtherWeapon@@YAXPBD@Z 1004e130 f   weapons.obj
 0001:0004d220       ?W_Precache@@YAXXZ         1004e220 f   weapons.obj
 0001:0004d490       ?Save@CBasePlayerItem@@UAEHAAVCSave@@@Z 1004e490 f   weapons.obj
 0001:0004d4c0       ?Restore@CBasePlayerItem@@UAEHAAVCRestore@@@Z 1004e4c0 f   weapons.obj
 0001:0004d4f0       ?Save@CBasePlayerWeapon@@UAEHAAVCSave@@@Z 1004e4f0 f   weapons.obj
 0001:0004d520       ?Restore@CBasePlayerWeapon@@UAEHAAVCRestore@@@Z 1004e520 f   weapons.obj
 0001:0004d550       ?SetObjectCollisionBox@CBasePlayerItem@@UAEXXZ 1004e550 f   weapons.obj
 0001:0004d600       ?FallInit@CBasePlayerItem@@QAEXXZ 1004e600 f   weapons.obj
 0001:0004d6a0       ?FallThink@CBasePlayerItem@@QAEXXZ 1004e6a0 f   weapons.obj
 0001:0004d730       ?Materialize@CBasePlayerItem@@QAEXXZ 1004e730 f   weapons.obj
 0001:0004d7b0       ?AttemptToMaterialize@CBasePlayerItem@@QAEXXZ 1004e7b0 f   weapons.obj
 0001:0004d7f0       ?CheckRespawn@CBasePlayerItem@@QAEXXZ 1004e7f0 f   weapons.obj
 0001:0004d810       ?Respawn@CBasePlayerItem@@UAEPAVCBaseEntity@@XZ 1004e810 f   weapons.obj
 0001:0004d8e0       ?DefaultTouch@CBasePlayerItem@@QAEXPAVCBaseEntity@@@Z 1004e8e0 f   weapons.obj
 0001:0004d970       ?ItemPostFrame@CBasePlayerWeapon@@UAEXXZ 1004e970 f   weapons.obj
 0001:0004dbb0       ?DestroyItem@CBasePlayerItem@@QAEXXZ 1004ebb0 f   weapons.obj
 0001:0004dbd0       ?AddToPlayer@CBasePlayerItem@@UAEHPAVCBasePlayer@@@Z 1004ebd0 f   weapons.obj
 0001:0004dbe0       ?Drop@CBasePlayerItem@@UAEXXZ 1004ebe0 f   weapons.obj
 0001:0004dc10       ?Kill@CBasePlayerItem@@UAEXXZ 1004ec10 f   weapons.obj
 0001:0004dc40       ?Holster@CBasePlayerItem@@UAEXXZ 1004ec40 f   weapons.obj
 0001:0004dc60       ?AttachToPlayer@CBasePlayerItem@@UAEXPAVCBasePlayer@@@Z 1004ec60 f   weapons.obj
 0001:0004dce0       ?AddDuplicate@CBasePlayerWeapon@@UAEHPAVCBasePlayerItem@@@Z 1004ece0 f   weapons.obj
 0001:0004dd00       ?AddToPlayer@CBasePlayerWeapon@@UAEHPAVCBasePlayer@@@Z 1004ed00 f   weapons.obj
 0001:0004dd90       ?UpdateClientData@CBasePlayerWeapon@@UAEHPAVCBasePlayer@@@Z 1004ed90 f   weapons.obj
 0001:0004de60       ?SendWeaponAnim@CBasePlayerWeapon@@UAEXH@Z 1004ee60 f   weapons.obj
 0001:0004deb0       ?AddPrimaryAmmo@CBasePlayerWeapon@@QAEHHPADHH@Z 1004eeb0 f   weapons.obj
 0001:0004df60       ?AddSecondaryAmmo@CBasePlayerWeapon@@QAEHHPADH@Z 1004ef60 f   weapons.obj
 0001:0004dfc0       ?IsUseable@CBasePlayerWeapon@@UAEHXZ 1004efc0 f   weapons.obj
 0001:0004e000       ?CanDeploy@CBasePlayerWeapon@@UAEHXZ 1004f000 f   weapons.obj
 0001:0004e070       ?DefaultDeploy@CBasePlayerWeapon@@QAEHPAD0H0@Z 1004f070 f   weapons.obj
 0001:0004e130       ?DefaultReload@CBasePlayerWeapon@@QAEHHHM@Z 1004f130 f   weapons.obj
 0001:0004e1b0       ?PlayEmptySound@CBasePlayerWeapon@@UAEHXZ 1004f1b0 f   weapons.obj
 0001:0004e1f0       ?ResetEmptySound@CBasePlayerWeapon@@UAEXXZ 1004f1f0 f   weapons.obj
 0001:0004e200       ?PrimaryAmmoIndex@CBasePlayerWeapon@@UAEHXZ 1004f200 f   weapons.obj
 0001:0004e210       ?SecondaryAmmoIndex@CBasePlayerWeapon@@UAEHXZ 1004f210 f   weapons.obj
 0001:0004e220       ?Holster@CBasePlayerWeapon@@UAEXXZ 1004f220 f   weapons.obj
 0001:0004e240       ?Spawn@CBasePlayerAmmo@@UAEXXZ 1004f240 f   weapons.obj
 0001:0004e2c0       ?Respawn@CBasePlayerAmmo@@UAEPAVCBaseEntity@@XZ 1004f2c0 f   weapons.obj
 0001:0004e330       ?Materialize@CBasePlayerAmmo@@QAEXXZ 1004f330 f   weapons.obj
 0001:0004e390       ?DefaultTouch@CBasePlayerAmmo@@QAEXPAVCBaseEntity@@@Z 1004f390 f   weapons.obj
 0001:0004e440       ?ExtractAmmo@CBasePlayerWeapon@@UAEHPAV1@@Z 1004f440 f   weapons.obj
 0001:0004e4c0       ?ExtractClipAmmo@CBasePlayerWeapon@@UAEHPAV1@@Z 1004f4c0 f   weapons.obj
 0001:0004e500       ?RetireWeapon@CBasePlayerWeapon@@UAEXXZ 1004f500 f   weapons.obj
 0001:0004e530       _weaponbox                 1004f530 f   weapons.obj
 0001:0004e540       ?Save@CWeaponBox@@UAEHAAVCSave@@@Z 1004f540 f   weapons.obj
 0001:0004e570       ?Restore@CWeaponBox@@UAEHAAVCRestore@@@Z 1004f570 f   weapons.obj
 0001:0004e5a0       ?Precache@CWeaponBox@@EAEXXZ 1004f5a0 f   weapons.obj
 0001:0004e5b0       ?KeyValue@CWeaponBox@@EAEXPAUKeyValueData_s@@@Z 1004f5b0 f   weapons.obj
 0001:0004e620       ?Spawn@CWeaponBox@@EAEXXZ  1004f620 f   weapons.obj
 0001:0004e670       ?Kill@CWeaponBox@@QAEXXZ   1004f670 f   weapons.obj
 0001:0004e6c0       ?Touch@CWeaponBox@@EAEXPAVCBaseEntity@@@Z 1004f6c0 f   weapons.obj
 0001:0004e7d0       ?PackWeapon@CWeaponBox@@QAEHPAVCBasePlayerItem@@@Z 1004f7d0 f   weapons.obj
 0001:0004e8a0       ?PackAmmo@CWeaponBox@@QAEHHH@Z 1004f8a0 f   weapons.obj
 0001:0004e900       ?GiveAmmo@CWeaponBox@@AAEHHPADHPAH@Z 1004f900 f   weapons.obj
 0001:0004e9e0       ?HasWeapon@CWeaponBox@@QAEHPAVCBasePlayerItem@@@Z 1004f9e0 f   weapons.obj
 0001:0004ea70       ?IsEmpty@CWeaponBox@@AAEHXZ 1004fa70 f   weapons.obj
 0001:0004eaa0       ?SetObjectCollisionBox@CWeaponBox@@EAEXXZ 1004faa0 f   weapons.obj
 0001:0004eb50       ?GetClassPtr@@YAPAVCWeaponBox@@PAV1@@Z 1004fb50 f i weapons.obj
 0001:0004ebd0       _infodecal                 1004fbd0 f   world.obj
 0001:0004ebe0       ?Spawn@CDecal@@UAEXXZ      1004fbe0 f   world.obj
 0001:0004ec50       ?TriggerDecal@CDecal@@QAEXPAVCBaseEntity@@0W4USE_TYPE@@M@Z 1004fc50 f   world.obj
 0001:0004eda0       ?StaticDecal@CDecal@@QAEXXZ 1004fda0 f   world.obj
 0001:0004ee90       ?KeyValue@CDecal@@UAEXPAUKeyValueData_s@@@Z 1004fe90 f   world.obj
 0001:0004ef20       _bodyque                   1004ff20 f   world.obj
 0001:0004ef30       ?CopyToBodyQue@@YAXPAUentvars_t@@@Z 1004ff30 f   world.obj
 0001:0004f050       ??0CGlobalState@@QAE@XZ    10050050 f   world.obj
 0001:0004f060       ?Reset@CGlobalState@@QAEXXZ 10050060 f   world.obj
 0001:0004f070       ?Find@CGlobalState@@AAEPAUglobalentity_s@@H@Z 10050070 f   world.obj
 0001:0004f0e0       ?DumpGlobals@CGlobalState@@QAEXXZ 100500e0 f   world.obj
 0001:0004f130       ?EntityAdd@CGlobalState@@QAEXHHW4GLOBALESTATE@@@Z 10050130 f   world.obj
 0001:0004f1d0       ?EntitySetState@CGlobalState@@QAEXHW4GLOBALESTATE@@@Z 100501d0 f   world.obj
 0001:0004f1f0       ?EntityFromTable@CGlobalState@@QAEPBUglobalentity_s@@H@Z 100501f0 f   world.obj
 0001:0004f200       ?EntityGetState@CGlobalState@@QAE?AW4GLOBALESTATE@@H@Z 10050200 f   world.obj
 0001:0004f220       ?Save@CGlobalState@@QAEHAAVCSave@@@Z 10050220 f   world.obj
 0001:0004f290       ?Restore@CGlobalState@@QAEHAAVCRestore@@@Z 10050290 f   world.obj
 0001:0004f330       ?EntityUpdate@CGlobalState@@QAEXHH@Z 10050330 f   world.obj
 0001:0004f380       ?ClearStates@CGlobalState@@QAEXXZ 10050380 f   world.obj
 0001:0004f3b0       ?SaveGlobalState@@YAXPAUsaverestore_s@@@Z 100503b0 f   world.obj
 0001:0004f410       ?RestoreGlobalState@@YAXPAUsaverestore_s@@@Z 10050410 f   world.obj
 0001:0004f480       ?ResetGlobalState@@YAXXZ   10050480 f   world.obj
 0001:0004f4a0       _worldspawn                100504a0 f   world.obj
 0001:0004f4b0       ?Spawn@CWorld@@UAEXXZ      100504b0 f   world.obj
 0001:0004f4e0       ?Precache@CWorld@@UAEXXZ   100504e0 f   world.obj
 0001:0004f910       ?KeyValue@CWorld@@UAEXPAUKeyValueData_s@@@Z 10050910 f   world.obj
 0001:0004fce0       ?GetClassPtr@@YAPAVCDecal@@PAV1@@Z 10050ce0 f i world.obj
 0001:0004fd30       ?GetClassPtr@@YAPAVCCorpse@@PAV1@@Z 10050d30 f i world.obj
 0001:0004fd80       ?ObjectCaps@CCorpse@@EAEHXZ 10050d80 f i world.obj
 0001:0004fd90       ?GetClassPtr@@YAPAVCWorld@@PAV1@@Z 10050d90 f i world.obj
 0001:0004fde0       ?Save@CActAnimating@@UAEHAAVCSave@@@Z 10050de0 f   xen.obj
 0001:0004fe10       ?Restore@CActAnimating@@UAEHAAVCRestore@@@Z 10050e10 f   xen.obj
 0001:0004fe40       ?SetActivity@CActAnimating@@QAEXW4Activity@@@Z 10050e40 f   xen.obj
 0001:0004fe80       _xen_plantlight            10050e80 f   xen.obj
 0001:0004fe90       ?Save@CXenPLight@@UAEHAAVCSave@@@Z 10050e90 f   xen.obj
 0001:0004fec0       ?Restore@CXenPLight@@UAEHAAVCRestore@@@Z 10050ec0 f   xen.obj
 0001:0004fef0       ?Spawn@CXenPLight@@UAEXXZ  10050ef0 f   xen.obj
 0001:000500e0       ?Precache@CXenPLight@@UAEXXZ 100510e0 f   xen.obj
 0001:00050100       ?Think@CXenPLight@@UAEXXZ  10051100 f   xen.obj
 0001:00050190       ?Touch@CXenPLight@@UAEXPAVCBaseEntity@@@Z 10051190 f   xen.obj
 0001:000501e0       ?LightOn@CXenPLight@@QAEXXZ 100511e0 f   xen.obj
 0001:00050210       ?LightOff@CXenPLight@@QAEXXZ 10051210 f   xen.obj
 0001:00050240       _xen_hair                  10051240 f   xen.obj
 0001:00050250       ?Spawn@CXenHair@@UAEXXZ    10051250 f   xen.obj
 0001:00050350       ?Think@CXenHair@@UAEXXZ    10051350 f   xen.obj
 0001:00050380       ?Precache@CXenHair@@UAEXXZ 10051380 f   xen.obj
 0001:00050390       _xen_ttrigger              10051390 f   xen.obj
 0001:000503a0       ?TriggerCreate@CXenTreeTrigger@@SAPAV1@PAUedict_s@@ABVVector@@@Z 100513a0 f   xen.obj
 0001:00050410       ?Touch@CXenTreeTrigger@@UAEXPAVCBaseEntity@@@Z 10051410 f   xen.obj
 0001:00050460       _xen_tree                  10051460 f   xen.obj
 0001:00050470       ?Save@CXenTree@@UAEHAAVCSave@@@Z 10051470 f   xen.obj
 0001:000504a0       ?Restore@CXenTree@@UAEHAAVCRestore@@@Z 100514a0 f   xen.obj
 0001:000504d0       ?Spawn@CXenTree@@UAEXXZ    100514d0 f   xen.obj
 0001:00050690       ?Precache@CXenTree@@UAEXXZ 10051690 f   xen.obj
 0001:000506f0       ?Touch@CXenTree@@UAEXPAVCBaseEntity@@@Z 100516f0 f   xen.obj
 0001:00050760       ?Attack@CXenTree@@QAEXXZ   10051760 f   xen.obj
 0001:000507d0       ?HandleAnimEvent@CXenTree@@UAEXPAUMonsterEvent_t@@@Z 100517d0 f   xen.obj
 0001:00050950       ?Think@CXenTree@@UAEXXZ    10051950 f   xen.obj
 0001:000509c0       ?CreateHull@CXenHull@@SAPAV1@PAVCBaseEntity@@ABVVector@@11@Z 100519c0 f   xen.obj
 0001:00050ac0       _xen_spore_small           10051ac0 f   xen.obj
 0001:00050ad0       _xen_spore_medium          10051ad0 f   xen.obj
 0001:00050ae0       _xen_spore_large           10051ae0 f   xen.obj
 0001:00050af0       _xen_hull                  10051af0 f   xen.obj
 0001:00050b00       ?Spawn@CXenSporeSmall@@EAEXXZ 10051b00 f   xen.obj
 0001:00050b70       ?Spawn@CXenSporeMed@@EAEXXZ 10051b70 f   xen.obj
 0001:00050c90       ?Spawn@CXenSporeLarge@@EAEXXZ 10051c90 f   xen.obj
 0001:00050e50       ?Spawn@CXenSpore@@UAEXXZ   10051e50 f   xen.obj
 0001:00050f10       ?Precache@CXenSpore@@UAEXXZ 10051f10 f   xen.obj
 0001:00050f30       ?Touch@CXenSpore@@UAEXPAVCBaseEntity@@@Z 10051f30 f   xen.obj
 0001:00050f40       ?Think@CXenSpore@@UAEXXZ   10051f40 f   xen.obj
 0001:00050f70       ?GetClassPtr@@YAPAVCXenPLight@@PAV1@@Z 10051f70 f i xen.obj
 0001:00050fc0       ?ObjectCaps@CActAnimating@@UAEHXZ 10051fc0 f i xen.obj
 0001:00050fd0       ?GetClassPtr@@YAPAVCXenHair@@PAV1@@Z 10051fd0 f i xen.obj
 0001:00051020       ?GetClassPtr@@YAPAVCXenTreeTrigger@@PAV1@@Z 10052020 f i xen.obj
 0001:00051070       ?GetClassPtr@@YAPAVCXenTree@@PAV1@@Z 10052070 f i xen.obj
 0001:000510c0       ?TakeDamage@CXenTree@@UAEHPAUentvars_t@@0MH@Z 100520c0 f i xen.obj
 0001:000510d0       ?Classify@CXenTree@@UAEHXZ 100520d0 f i xen.obj
 0001:000510e0       ?GetClassPtr@@YAPAVCXenHull@@PAV1@@Z 100520e0 f i xen.obj
 0001:00051130       ?Classify@CXenHull@@UAEHXZ 10052130 f i xen.obj
 0001:00051140       ?GetClassPtr@@YAPAVCXenSporeSmall@@PAV1@@Z 10052140 f i xen.obj
 0001:00051190       ?TakeDamage@CXenSpore@@UAEHPAUentvars_t@@0MH@Z 10052190 f i xen.obj
 0001:000511a0       ?GetClassPtr@@YAPAVCXenSporeMed@@PAV1@@Z 100521a0 f i xen.obj
 0001:000511f0       ?GetClassPtr@@YAPAVCXenSporeLarge@@PAV1@@Z 100521f0 f i xen.obj
 0001:00051240       __fpmath                   10052240 f   LIBCMT:fpinit.obj
 0001:00051257       __fpclear                  10052257 f   LIBCMT:fpinit.obj
 0001:00051258       __cfltcvt_init             10052258 f   LIBCMT:fpinit.obj
 0001:00051290       ___setfflag                10052290 f   LIBCMT:fpinit.obj
 0001:000512a0       __ftol                     100522a0 f   LIBCMT:ftol.obj
 0001:000512c7       _atof                      100522c7 f   LIBCMT:atof.obj
 0001:0005131e       _atol                      1005231e f   LIBCMT:atox.obj
 0001:000513a9       _atoi                      100523a9 f   LIBCMT:atox.obj
 0001:000513b4       __atoi64                   100523b4 f   LIBCMT:atox.obj
 0001:0005146e       ?_JumpToContinuation@@YGXPAXPAUEHRegistrationNode@@@Z 1005246e f   LIBCMT:trnsctrl.obj
 0001:000514a2       ?_CallMemberFunction0@@YGXPAX0@Z 100524a2 f   LIBCMT:trnsctrl.obj
 0001:000514a9       ?_CallMemberFunction1@@YGXPAX00@Z 100524a9 f   LIBCMT:trnsctrl.obj
 0001:000514b0       ?_CallMemberFunction2@@YGXPAX00H@Z 100524b0 f   LIBCMT:trnsctrl.obj
 0001:000514b7       ?_UnwindNestedFrames@@YGXPAUEHRegistrationNode@@PAUEHExceptionRecord@@@Z 100524b7 f   LIBCMT:trnsctrl.obj
 0001:00051506       ___CxxFrameHandler         10052506 f   LIBCMT:trnsctrl.obj
 0001:0005153c       ___CxxLongjmpUnwind@4      1005253c f   LIBCMT:trnsctrl.obj
 0001:00051556       ?_CallCatchBlock2@@YAPAXPAUEHRegistrationNode@@PBU_s_FuncInfo@@PAXHK@Z 10052556 f   LIBCMT:trnsctrl.obj
 0001:000515cf       ?_CallSETranslator@@YAHPAUEHExceptionRecord@@PAUEHRegistrationNode@@PAX2PBU_s_FuncInfo@@H1@Z 100525cf f   LIBCMT:trnsctrl.obj
 0001:000516fa       ?_GetRangeOfTrysToCheck@@YAPBU_s_TryBlockMapEntry@@PBU_s_FuncInfo@@HHPAI1@Z 100526fa f   LIBCMT:trnsctrl.obj
 0001:00051778       __global_unwind2           10052778 f   LIBCMT:exsup.obj
 0001:000517ba       __local_unwind2            100527ba f   LIBCMT:exsup.obj
 0001:00051812       __NLG_Return2              10052812 f   LIBCMT:exsup.obj
 0001:00051822       __abnormal_termination     10052822 f   LIBCMT:exsup.obj
 0001:00051845       __NLG_Notify1              10052845 f   LIBCMT:exsup.obj
 0001:0005184e       __NLG_Notify               1005284e f   LIBCMT:exsup.obj
 0001:00051861       __NLG_Dispatch             10052861 f   LIBCMT:exsup.obj
 0001:00051866       _sprintf                   10052866 f   LIBCMT:sprintf.obj
 0001:000518b8       _isalpha                   100528b8 f   LIBCMT:_ctype.obj
 0001:000518e6       _isupper                   100528e6 f   LIBCMT:_ctype.obj
 0001:0005190e       _islower                   1005290e f   LIBCMT:_ctype.obj
 0001:00051936       _isdigit                   10052936 f   LIBCMT:_ctype.obj
 0001:0005195e       _isxdigit                  1005295e f   LIBCMT:_ctype.obj
 0001:0005198b       _isspace                   1005298b f   LIBCMT:_ctype.obj
 0001:000519b3       _ispunct                   100529b3 f   LIBCMT:_ctype.obj
 0001:000519db       _isalnum                   100529db f   LIBCMT:_ctype.obj
 0001:00051a09       _isprint                   10052a09 f   LIBCMT:_ctype.obj
 0001:00051a37       _isgraph                   10052a37 f   LIBCMT:_ctype.obj
 0001:00051a65       _iscntrl                   10052a65 f   LIBCMT:_ctype.obj
 0001:00051a8d       ___isascii                 10052a8d f   LIBCMT:_ctype.obj
 0001:00051a9a       ___toascii                 10052a9a f   LIBCMT:_ctype.obj
 0001:00051aa2       ___iscsymf                 10052aa2 f   LIBCMT:_ctype.obj
 0001:00051adf       ___iscsym                  10052adf f   LIBCMT:_ctype.obj
 0001:00051b20       _strstr                    10052b20 f   LIBCMT:strstr.obj
 0001:00051ba0       _fmod                      10052ba0 f   LIBCMT:87fmod.obj
 0001:00051baa       __CIfmod                   10052baa f   LIBCMT:87fmod.obj
 0001:00051be0       _strncmp                   10052be0 f   LIBCMT:strncmp.obj
 0001:00051c18       ??3@YAXPAX@Z               10052c18 f   LIBCMT:delete.obj
 0001:00051c23       ??2@YAPAXI@Z               10052c23 f   LIBCMT:new.obj
 0001:00051c31       _sscanf                    10052c31 f   LIBCMT:sscanf.obj
 0001:00051c70       __CIpow                    10052c70 f   LIBCMT:pow.obj
 0001:00051c89       _pow                       10052c89 f   LIBCMT:pow.obj
 0001:00051e90       _strncpy                   10052e90 f   LIBCMT:strncpy.obj
 0001:00051f90       __strnicmp                 10052f90 f   LIBCMT:strnicmp.obj
 0001:00052091       __toupper                  10053091 f   LIBCMT:toupper.obj
 0001:00052099       _toupper                   10053099 f   LIBCMT:toupper.obj
 0001:00052108       __toupper_lk               10053108 f   LIBCMT:toupper.obj
 0001:000521d4       _strtok                    100531d4 f   LIBCMT:strtok.obj
 0001:00052280       __chkstk                   10053280 f   LIBCMT:chkstk.obj
 0001:00052280       __alloca_probe             10053280 f   LIBCMT:chkstk.obj
 0001:000522af       _vsprintf                  100532af f   LIBCMT:vsprintf.obj
 0001:00052300       _calloc                    10053300 f   LIBCMT:calloc.obj
 0001:0005238d       _free                      1005338d f   LIBCMT:free.obj
 0001:000523d5       __CRT_INIT@12              100533d5 f   LIBCMT:dllcrt0.obj
 0001:000524ae       __DllMainCRTStartup@12     100534ae f   LIBCMT:dllcrt0.obj
 0001:0005254b       __amsg_exit                1005354b f   LIBCMT:dllcrt0.obj
 0001:0005257e       __setdefaultprecision      1005357e f   LIBCMT:fp8.obj
 0001:00052590       __ms_p5_test_fdiv          10053590 f   LIBCMT:testfdiv.obj
 0001:000525ce       __ms_p5_mp_test_fdiv       100535ce f   LIBCMT:testfdiv.obj
 0001:000525f7       __forcdecpt                100535f7 f   LIBCMT:cvt.obj
 0001:00052651       __cropzeros                10053651 f   LIBCMT:cvt.obj
 0001:0005269f       __positive                 1005369f f   LIBCMT:cvt.obj
 0001:000526b7       __fassign                  100536b7 f   LIBCMT:cvt.obj
 0001:000526f5       __cftoe                    100536f5 f   LIBCMT:cvt.obj
 0001:00052818       __cftof                    10053818 f   LIBCMT:cvt.obj
 0001:00052914       __cftog                    10053914 f   LIBCMT:cvt.obj
 0001:000529a7       __cfltcvt                  100539a7 f   LIBCMT:cvt.obj
 0001:00052a1d       __fltin2                   10053a1d f   LIBCMT:cfin.obj
 0001:00052aa0       _strlen                    10053aa0 f   LIBCMT:strlen.obj
 0001:00052b1b       __isctype                  10053b1b f   LIBCMT:isctype.obj
 0001:00052b90       __allmul                   10053b90 f   LIBCMT:llmul.obj
 0001:00052bc4       ___InternalCxxFrameHandler 10053bc4 f   LIBCMT:frame.obj
 0001:00052f19       ___FrameUnwindToState      10053f19 f   LIBCMT:frame.obj
 0001:00053351       ?_DestructExceptionObject@@YAXPAUEHExceptionRecord@@E@Z 10054351 f   LIBCMT:frame.obj
 0001:000533e0       __CallSettingFrame@12      100543e0 f   LIBCMT:lowhelpr.obj
 0001:00053407       __NLG_Return               10054407 f   LIBCMT:lowhelpr.obj
 0001:0005342c       __mtinit                   1005442c f   LIBCMT:tidtable.obj
 0001:00053480       __mtterm                   10054480 f   LIBCMT:tidtable.obj
 0001:0005349e       __initptd                  1005449e f   LIBCMT:tidtable.obj
 0001:000534b1       __getptd                   100544b1 f   LIBCMT:tidtable.obj
 0001:00053518       __freeptd                  10054518 f   LIBCMT:tidtable.obj
 0001:000535b8       ___threadid                100545b8 f   LIBCMT:tidtable.obj
 0001:000535be       ___threadhandle            100545be f   LIBCMT:tidtable.obj
 0001:000535c4       ?terminate@@YAXXZ          100545c4 f   LIBCMT:hooks.obj
 0001:00053625       ?unexpected@@YAXXZ         10054625 f   LIBCMT:hooks.obj
 0001:0005363d       ?_inconsistency@@YAXXZ     1005463d f   LIBCMT:hooks.obj
 0001:00053693       __flsbuf                   10054693 f   LIBCMT:_flsbuf.obj
 0001:000537ab       __output                   100547ab f   LIBCMT:output.obj
 0001:00053fd0       _strchr                    10054fd0 f   LIBCMT:strchr.obj
 0001:00053fd6       ___from_strstr_to_strchr   10054fd6 f   LIBCMT:strchr.obj
 0001:00054090       __cintrindisp2             10055090 f   LIBCMT:87cdisp.obj
 0001:000540ce       __cintrindisp1             100550ce f   LIBCMT:87cdisp.obj
 0001:0005410b       __ctrandisp2               1005510b f   LIBCMT:87cdisp.obj
 0001:0005428b       __ctrandisp1               1005528b f   LIBCMT:87cdisp.obj
 0001:000542be       __fload                    100552be f   LIBCMT:87cdisp.obj
 0001:00054300       __trandisp1                10055300 f   LIBCMT:87disp.obj
 0001:00054367       __trandisp2                10055367 f   LIBCMT:87disp.obj
 0001:000543f3       __rttospopde               100553f3 f   LIBCMT:87disp.obj
 0001:000543f8       __rttospop                 100553f8 f   LIBCMT:87disp.obj
 0001:000543fa       __rtnospop                 100553fa f   LIBCMT:87disp.obj
 0001:000543fc       __rttosnpop                100553fc f   LIBCMT:87disp.obj
 0001:000543fd       __rtnospopde               100553fd f   LIBCMT:87disp.obj
 0001:00054404       __rtzeropop                10055404 f   LIBCMT:87disp.obj
 0001:00054406       __rtzeronpop               10055406 f   LIBCMT:87disp.obj
 0001:0005440b       __rtonepop                 1005540b f   LIBCMT:87disp.obj
 0001:0005440d       __rtonenpop                1005540d f   LIBCMT:87disp.obj
 0001:00054412       __tosnan1                  10055412 f   LIBCMT:87disp.obj
 0001:0005443d       __nosnan2                  1005543d f   LIBCMT:87disp.obj
 0001:0005443f       __tosnan2                  1005543f f   LIBCMT:87disp.obj
 0001:00054467       __nan2                     10055467 f   LIBCMT:87disp.obj
 0001:000544a6       __rtindfpop                100554a6 f   LIBCMT:87disp.obj
 0001:000544a8       __rtindfnpop               100554a8 f   LIBCMT:87disp.obj
 0001:000544b9       __rttosnpopde              100554b9 f   LIBCMT:87disp.obj
 0001:000544c3       __rtchsifneg               100554c3 f   LIBCMT:87disp.obj
 0001:000544d0       _fdiv_main_routine         100554d0 f   LIBCMT:adj_fdiv.obj
 0001:000545e7       __adj_fdiv_r               100555e7 f   LIBCMT:adj_fdiv.obj
 0001:00054a86       __fdivp_sti_st             10055a86 f   LIBCMT:adj_fdiv.obj
 0001:00054a99       __fdivrp_sti_st            10055a99 f   LIBCMT:adj_fdiv.obj
 0001:00054aac       __adj_fdiv_m32             10055aac f   LIBCMT:adj_fdiv.obj
 0001:00054af8       __adj_fdiv_m64             10055af8 f   LIBCMT:adj_fdiv.obj
 0001:00054b44       __adj_fdiv_m16i            10055b44 f   LIBCMT:adj_fdiv.obj
 0001:00054b78       __adj_fdiv_m32i            10055b78 f   LIBCMT:adj_fdiv.obj
 0001:00054bac       __adj_fdivr_m32            10055bac f   LIBCMT:adj_fdiv.obj
 0001:00054bf8       __adj_fdivr_m64            10055bf8 f   LIBCMT:adj_fdiv.obj
 0001:00054c44       __adj_fdivr_m16i           10055c44 f   LIBCMT:adj_fdiv.obj
 0001:00054c78       __adj_fdivr_m32i           10055c78 f   LIBCMT:adj_fdiv.obj
 0001:00054cac       __safe_fdiv                10055cac f   LIBCMT:adj_fdiv.obj
 0001:00054cc1       __safe_fdivr               10055cc1 f   LIBCMT:adj_fdiv.obj
 0001:00054cd6       __fprem_common             10055cd6 f   LIBCMT:adj_fdiv.obj
 0001:00054edc       __adj_fprem                10055edc f   LIBCMT:adj_fdiv.obj
 0001:00054f8e       __fprem1_common            10055f8e f   LIBCMT:adj_fdiv.obj
 0001:00055194       __adj_fprem1               10056194 f   LIBCMT:adj_fdiv.obj
 0001:00055249       __safe_fprem               10056249 f   LIBCMT:adj_fdiv.obj
 0001:0005524f       __safe_fprem1              1005624f f   LIBCMT:adj_fdiv.obj
 0001:00055255       __adj_fpatan               10056255 f   LIBCMT:adj_fdiv.obj
 0001:00055258       __adj_fptan                10056258 f   LIBCMT:adj_fdiv.obj
 0001:0005525b       _malloc                    1005625b f   LIBCMT:malloc.obj
 0001:0005526d       __nh_malloc                1005626d f   LIBCMT:malloc.obj
 0001:00055299       __heap_alloc               10056299 f   LIBCMT:malloc.obj
 0001:000552e7       __input                    100562e7 f   LIBCMT:input.obj
 0001:00055db1       __fFEXP                    10056db1 f   LIBCMT:87tran.obj
 0001:00055e18       __rtinfpopse               10056e18 f   LIBCMT:87tran.obj
 0001:00055e1a       __rtinfnpopse              10056e1a f   LIBCMT:87tran.obj
 0001:00055e2a       __fFLN                     10056e2a f   LIBCMT:87tran.obj
 0001:00055edf       __rtinfpop                 10056edf f   LIBCMT:87tran.obj
 0001:00055ee1       __rtinfnpop                10056ee1 f   LIBCMT:87tran.obj
 0001:00055efe       __ffexpm1                  10056efe f   LIBCMT:87tran.obj
 0001:00055fb0       __startTwoArgErrorHandling 10056fb0 f   LIBCMT:genexcep.obj
 0001:00055fc7       __startOneArgErrorHandling 10056fc7 f   LIBCMT:genexcep.obj
 0001:00056010       __twoToTOS                 10057010 f   LIBCMT:common.obj
 0001:00056025       __load_CW                  10057025 f   LIBCMT:common.obj
 0001:0005603c       __convertTOStoQNaN         1005703c f   LIBCMT:common.obj
 0001:00056055       __fload_withFB             10057055 f   LIBCMT:common.obj
 0001:00056098       __checkTOS_withFB          10057098 f   LIBCMT:common.obj
 0001:000560ae       __fast_exit                100570ae f   LIBCMT:common.obj
 0001:000560bb       __math_exit                100570bb f   LIBCMT:common.obj
 0001:000560e5       __check_overflow_exit      100570e5 f   LIBCMT:common.obj
 0001:000560f9       __check_range_exit         100570f9 f   LIBCMT:common.obj
 0001:0005619c       __powhlp                   1005719c f   LIBCMT:powhlp.obj
 0001:000562cc       __d_inttype                100572cc f   LIBCMT:powhlp.obj
 0001:00056331       __mtinitlocks              10057331 f   LIBCMT:mlock.obj
 0001:0005635a       __mtdeletelocks            1005735a f   LIBCMT:mlock.obj
 0001:000563c6       __lock                     100573c6 f   LIBCMT:mlock.obj
 0001:00056427       __unlock                   10057427 f   LIBCMT:mlock.obj
 0001:0005643c       __lockerr_exit             1005743c f   LIBCMT:mlock.obj
 0001:00056454       _setlocale                 10057454 f   LIBCMT:setlocal.obj
 0001:0005686e       __expandlocale             1005786e f   LIBCMT:setlocal.obj
 0001:00056986       ___init_dummy              10057986 f   LIBCMT:setlocal.obj
 0001:00056989       __strcats                  10057989 f   LIBCMT:setlocal.obj
 0001:000569ae       ___lc_strtolc              100579ae f   LIBCMT:setlocal.obj
 0001:00056a7a       ___lc_lctostr              10057a7a f   LIBCMT:setlocal.obj
 0001:00056acd       __tolower                  10057acd f   LIBCMT:tolower.obj
 0001:00056ad5       _tolower                   10057ad5 f   LIBCMT:tolower.obj
 0001:00056b44       __tolower_lk               10057b44 f   LIBCMT:tolower.obj
 0001:00056c0f       ___crtLCMapStringA         10057c0f f   LIBCMT:a_map.obj
 0001:00056e60       _memset                    10057e60 f   LIBCMT:memset.obj
 0001:00056eb8       ?_set_new_handler@@YAP6AHI@ZP6AHI@Z@Z 10057eb8 f   LIBCMT:handler.obj
 0001:00056edc       ?_query_new_handler@@YAP6AHI@ZXZ 10057edc f   LIBCMT:handler.obj
 0001:00056ee2       __callnewh                 10057ee2 f   LIBCMT:handler.obj
 0001:00056efd       __heap_init                10057efd f   LIBCMT:heapinit.obj
 0001:00056f39       __heap_term                10057f39 f   LIBCMT:heapinit.obj
 0001:00056fae       __get_sbh_threshold        10057fae f   LIBCMT:sbheap.obj
 0001:00056fb4       __set_sbh_threshold        10057fb4 f   LIBCMT:sbheap.obj
 0001:00056fcb       ___sbh_heap_init           10057fcb f   LIBCMT:sbheap.obj
 0001:00057009       ___sbh_find_block          10058009 f   LIBCMT:sbheap.obj
 0001:00057034       ___sbh_free_block          10058034 f   LIBCMT:sbheap.obj
 0001:0005735f       ___sbh_alloc_block         1005835f f   LIBCMT:sbheap.obj
 0001:00057668       ___sbh_alloc_new_region    10058668 f   LIBCMT:sbheap.obj
 0001:00057719       ___sbh_alloc_new_group     10058719 f   LIBCMT:sbheap.obj
 0001:00057814       ___sbh_resize_block        10058814 f   LIBCMT:sbheap.obj
 0001:00057b0a       ___sbh_heapmin             10058b0a f   LIBCMT:sbheap.obj
 0001:00057bdb       ___sbh_heap_check          10058bdb f   LIBCMT:sbheap.obj
 0001:00057f0a       __cinit                    10058f0a f   LIBCMT:crt0dat.obj
 0001:00057f37       _exit                      10058f37 f   LIBCMT:crt0dat.obj
 0001:00057f48       __exit                     10058f48 f   LIBCMT:crt0dat.obj
 0001:00057f59       __cexit                    10058f59 f   LIBCMT:crt0dat.obj
 0001:00057f68       __c_exit                   10058f68 f   LIBCMT:crt0dat.obj
 0001:0005801c       __lockexit                 1005901c f   LIBCMT:crt0dat.obj
 0001:00058025       __unlockexit               10059025 f   LIBCMT:crt0dat.obj
 0001:00058048       __ioinit                   10059048 f   LIBCMT:ioinit.obj
 0001:00058204       __ioterm                   10059204 f   LIBCMT:ioinit.obj
 0001:00058258       __setenvp                  10059258 f   LIBCMT:stdenvp.obj
 0001:00058311       __setargv                  10059311 f   LIBCMT:stdargv.obj
 0001:0005855e       ___crtGetEnvironmentStringsA 1005955e f   LIBCMT:a_env.obj
 0001:00058690       __FF_MSGBANNER             10059690 f   LIBCMT:crt0msg.obj
 0001:000586c9       __NMSG_WRITE               100596c9 f   LIBCMT:crt0msg.obj
 0001:0005881c       __GET_RTERRMSG             1005981c f   LIBCMT:crt0msg.obj
 0001:0005884d       __statusfp                 1005984d f   LIBCMT:ieee87.obj
 0001:00058860       __clearfp                  10059860 f   LIBCMT:ieee87.obj
 0001:00058874       __control87                10059874 f   LIBCMT:ieee87.obj
 0001:000588a9       __controlfp                100598a9 f   LIBCMT:ieee87.obj
 0001:000588bf       __fpreset                  100598bf f   LIBCMT:ieee87.obj
 0001:00058a3a       __ZeroTail                 10059a3a f   LIBCMT:intrncvt.obj
 0001:00058a83       __IncMan                   10059a83 f   LIBCMT:intrncvt.obj
 0001:00058ad9       __RoundMan                 10059ad9 f   LIBCMT:intrncvt.obj
 0001:00058b65       __CopyMan                  10059b65 f   LIBCMT:intrncvt.obj
 0001:00058b80       __FillZeroMan              10059b80 f   LIBCMT:intrncvt.obj
 0001:00058b8c       __IsZeroMan                10059b8c f   LIBCMT:intrncvt.obj
 0001:00058ba7       __ShrMan                   10059ba7 f   LIBCMT:intrncvt.obj
 0001:00058c34       __ld12cvt                  10059c34 f   LIBCMT:intrncvt.obj
 0001:00058da0       __ld12tod                  10059da0 f   LIBCMT:intrncvt.obj
 0001:00058db6       __ld12tof                  10059db6 f   LIBCMT:intrncvt.obj
 0001:00058dcc       __ld12told                 10059dcc f   LIBCMT:intrncvt.obj
 0001:00058e46       __atodbl                   10059e46 f   LIBCMT:intrncvt.obj
 0001:00058e73       __atoldbl                  10059e73 f   LIBCMT:intrncvt.obj
 0001:00058ea1       __atoflt                   10059ea1 f   LIBCMT:intrncvt.obj
 0001:00058ece       __fptostr                  10059ece f   LIBCMT:_fptostr.obj
 0001:00058f45       __fltout2                  10059f45 f   LIBCMT:cfout.obj
 0001:00058fa1       ___dtold                   10059fa1 f   LIBCMT:cfout.obj
 0001:00059060       _strcpy                    1005a060 f   LIBCMT:strcat.obj
 0001:00059070       _strcat                    1005a070 f   LIBCMT:strcat.obj
 0001:00059150       _memmove                   1005a150 f   LIBCMT:memmove.obj
 0001:00059485       __fptrap                   1005a485 f   LIBCMT:crt0fp.obj
 0001:0005948e       ___strgtold12              1005a48e f   LIBCMT:strgtold.obj
 0001:0005995f       ___STRINGTOLD              1005a95f f   LIBCMT:strgtold.obj
 0001:0005999b       ___crtGetStringTypeA       1005a99b f   LIBCMT:a_str.obj
 0001:00059ae4       ?__CxxUnhandledExceptionFilter@@YGJPAU_EXCEPTION_POINTERS@@@Z 1005aae4 f   LIBCMT:unhandld.obj
 0001:00059b2a       ?__CxxSetUnhandledExceptionFilter@@YAXXZ 1005ab2a f   LIBCMT:unhandld.obj
 0001:00059b3b       ?__CxxRestoreUnhandledExceptionFilter@@YAXXZ 1005ab3b f   LIBCMT:unhandld.obj
 0001:00059b48       ?_ValidateRead@@YAHPBXI@Z  1005ab48 f   LIBCMT:validate.obj
 0001:00059b64       ?_ValidateWrite@@YAHPAXI@Z 1005ab64 f   LIBCMT:validate.obj
 0001:00059b80       ?_ValidateExecute@@YAHP6GHXZ@Z 1005ab80 f   LIBCMT:validate.obj
 0001:00059ba0       _strcmp                    1005aba0 f   LIBCMT:strcmp.obj
 0001:00059c2c       __except_handler3          1005ac2c f   LIBCMT:exsup3.obj
 0001:00059ce9       __seh_longjmp_unwind@4     1005ace9 f   LIBCMT:exsup3.obj
 0001:00059d04       __XcptFilter               1005ad04 f   LIBCMT:winxfltr.obj
 0001:00059e7c       _abort                     1005ae7c f   LIBCMT:abort.obj
 0001:00059e93       __lseek                    1005ae93 f   LIBCMT:lseek.obj
 0001:00059ef8       __lseek_lk                 1005aef8 f   LIBCMT:lseek.obj
 0001:00059f6b       __write                    1005af6b f   LIBCMT:write.obj
 0001:00059fd0       __write_lk                 1005afd0 f   LIBCMT:write.obj
 0001:0005a15b       __getbuf                   1005b15b f   LIBCMT:_getbuf.obj
 0001:0005a19f       __isatty                   1005b19f f   LIBCMT:isatty.obj
 0001:0005a1c8       ___initstdio               1005b1c8 f   LIBCMT:_file.obj
 0001:0005a270       ___endstdio                1005b270 f   LIBCMT:_file.obj
 0001:0005a284       __lock_file                1005b284 f   LIBCMT:_file.obj
 0001:0005a2b3       __lock_file2               1005b2b3 f   LIBCMT:_file.obj
 0001:0005a2d6       __unlock_file              1005b2d6 f   LIBCMT:_file.obj
 0001:0005a305       __unlock_file2             1005b305 f   LIBCMT:_file.obj
 0001:0005a328       _wctomb                    1005b328 f   LIBCMT:wctomb.obj
 0001:0005a381       __wctomb_lk                1005b381 f   LIBCMT:wctomb.obj
 0001:0005a3f0       __aulldiv                  1005b3f0 f   LIBCMT:ulldiv.obj
 0001:0005a460       __aullrem                  1005b460 f   LIBCMT:ullrem.obj
 0001:0005a4d5       __87except                 1005b4d5 f   LIBCMT:87except.obj
 0001:0005a5a5       _mbtowc                    1005b5a5 f   LIBCMT:mbtowc.obj
 0001:0005a602       __mbtowc_lk                1005b602 f   LIBCMT:mbtowc.obj
 0001:0005a6d0       __allshl                   1005b6d0 f   LIBCMT:llshl.obj
 0001:0005a6ef       __filbuf                   1005b6ef f   LIBCMT:_filbuf.obj
 0001:0005a7cb       _ungetc                    1005b7cb f   LIBCMT:ungetc.obj
 0001:0005a7f4       __ungetc_lk                1005b7f4 f   LIBCMT:ungetc.obj
 0001:0005a862       __set_exp                  1005b862 f   LIBCMT:util.obj
 0001:0005a88b       __get_exp                  1005b88b f   LIBCMT:util.obj
 0001:0005a89f       __add_exp                  1005b89f f   LIBCMT:util.obj
 0001:0005a8cb       __set_bexp                 1005b8cb f   LIBCMT:util.obj
 0001:0005a8ef       __sptype                   1005b8ef f   LIBCMT:util.obj
 0001:0005a949       __decomp                   1005b949 f   LIBCMT:util.obj
 0001:0005aa0a       __frnd                     1005ba0a f   LIBCMT:frnd.obj
 0001:0005aa1c       __copysign                 1005ba1c f   LIBCMT:ieeemisc.obj
 0001:0005aa3d       __chgsign                  1005ba3d f   LIBCMT:ieeemisc.obj
 0001:0005aa62       __scalb                    1005ba62 f   LIBCMT:ieeemisc.obj
 0001:0005aa78       __logb                     1005ba78 f   LIBCMT:ieeemisc.obj
 0001:0005ab5f       __nextafter                1005bb5f f   LIBCMT:ieeemisc.obj
 0001:0005adf4       __finite                   1005bdf4 f   LIBCMT:ieeemisc.obj
 0001:0005ae08       __isnan                    1005be08 f   LIBCMT:ieeemisc.obj
 0001:0005ae36       __fpclass                  1005be36 f   LIBCMT:ieeemisc.obj
 0001:0005aec8       ___init_time               1005bec8 f   LIBCMT:inittime.obj
 0001:0005b437       ___init_numeric            1005c437 f   LIBCMT:initnum.obj
 0001:0005b643       ___init_monetary           1005c643 f   LIBCMT:initmon.obj
 0001:0005b8b5       ___init_ctype              1005c8b5 f   LIBCMT:initctyp.obj
 0001:0005bafa       ___init_collate            1005cafa f   LIBCMT:initcoll.obj
 0001:0005bb00       _strcspn                   1005cb00 f   LIBCMT:strcspn.obj
 0001:0005bb40       _strpbrk                   1005cb40 f   LIBCMT:strpbrk.obj
 0001:0005bb80       _memcpy                    1005cb80 f   LIBCMT:memcpy.obj
 0001:0005beb5       ___get_qualified_locale    1005ceb5 f   LIBCMT:getqloc.obj
 0001:0005c75c       __setmbcp                  1005d75c f   LIBCMT:mbctype.obj
 0001:0005cb34       __getmbcp                  1005db34 f   LIBCMT:mbctype.obj
 0001:0005cb44       ___initmbctable            1005db44 f   LIBCMT:mbctype.obj
 0001:0005cb60       ___crtMessageBoxA          1005db60 f   LIBCMT:crtmbox.obj
 0001:0005cbe9       _signal                    1005dbe9 f   LIBCMT:winsig.obj
 0001:0005cdcd       _raise                     1005ddcd f   LIBCMT:winsig.obj
 0001:0005cf8c       ___fpecode                 1005df8c f   LIBCMT:winsig.obj
 0001:0005cf95       ___pxcptinfoptrs           1005df95 f   LIBCMT:winsig.obj
 0001:0005cf9e       ___addl                    1005df9e f   LIBCMT:mantold.obj
 0001:0005cfbf       ___add_12                  1005dfbf f   LIBCMT:mantold.obj
 0001:0005d01d       ___shl_12                  1005e01d f   LIBCMT:mantold.obj
 0001:0005d04b       ___shr_12                  1005e04b f   LIBCMT:mantold.obj
 0001:0005d078       ___mtold12                 1005e078 f   LIBCMT:mantold.obj
 0001:0005d13f       _$I10_OUTPUT               1005e13f f   LIBCMT:x10fout.obj
 0001:0005d3d2       ___ld12mul                 1005e3d2 f   LIBCMT:tenpow.obj
 0001:0005d5f2       ___multtenpow12            1005e5f2 f   LIBCMT:tenpow.obj
 0001:0005d66e       __dosmaperr                1005e66e f   LIBCMT:dosmap.obj
 0001:0005d6e1       __errno                    1005e6e1 f   LIBCMT:dosmap.obj
 0001:0005d6ea       ___doserrno                1005e6ea f   LIBCMT:dosmap.obj
 0001:0005d6f3       __alloc_osfhnd             1005e6f3 f   LIBCMT:osfinfo.obj
 0001:0005d816       __set_osfhnd               1005e816 f   LIBCMT:osfinfo.obj
 0001:0005d892       __free_osfhnd              1005e892 f   LIBCMT:osfinfo.obj
 0001:0005d911       __get_osfhandle            1005e911 f   LIBCMT:osfinfo.obj
 0001:0005d953       __open_osfhandle           1005e953 f   LIBCMT:osfinfo.obj
 0001:0005d9fa       __lock_fhandle             1005e9fa f   LIBCMT:osfinfo.obj
 0001:0005da59       __unlock_fhandle           1005ea59 f   LIBCMT:osfinfo.obj
 0001:0005da7b       __fcloseall                1005ea7b f   LIBCMT:closeall.obj
 0001:0005dafc       _fflush                    1005eafc f   LIBCMT:fflush.obj
 0001:0005db2b       __fflush_lk                1005eb2b f   LIBCMT:fflush.obj
 0001:0005db59       __flush                    1005eb59 f   LIBCMT:fflush.obj
 0001:0005dbb5       __flushall                 1005ebb5 f   LIBCMT:fflush.obj
 0001:0005dc62       __handle_qnan1             1005ec62 f   LIBCMT:fpexcept.obj
 0001:0005dcb6       __handle_qnan2             1005ecb6 f   LIBCMT:fpexcept.obj
 0001:0005dd16       __except1                  1005ed16 f   LIBCMT:fpexcept.obj
 0001:0005ddae       __except2                  1005edae f   LIBCMT:fpexcept.obj
 0001:0005de53       __raise_exc                1005ee53 f   LIBCMT:fpexcept.obj
 0001:0005e106       __handle_exc               1005f106 f   LIBCMT:fpexcept.obj
 0001:0005e31d       __umatherr                 1005f31d f   LIBCMT:fpexcept.obj
 0001:0005e3a5       __set_errno                1005f3a5 f   LIBCMT:fpexcept.obj
 0001:0005e3f2       __errcode                  1005f3f2 f   LIBCMT:fpexcept.obj
 0001:0005e41f       __matherr                  1005f41f f   LIBCMT:matherr.obj
 0001:0005e422       __statfp                   1005f422 f   LIBCMT:fpctrl.obj
 0001:0005e430       __clrfp                    1005f430 f   LIBCMT:fpctrl.obj
 0001:0005e43f       __ctrlfp                   1005f43f f   LIBCMT:fpctrl.obj
 0001:0005e462       __set_statfp               1005f462 f   LIBCMT:fpctrl.obj
 0001:0005e4b8       __read                     1005f4b8 f   LIBCMT:read.obj
 0001:0005e51d       __read_lk                  1005f51d f   LIBCMT:read.obj
 0001:0005e6f6       _ldexp                     1005f6f6 f   LIBCMT:ldexp.obj
 0001:0005e8dc       __Getdays                  1005f8dc f   LIBCMT:strftime.obj
 0001:0005e96b       __Getmonths                1005f96b f   LIBCMT:strftime.obj
 0001:0005ea00       __Gettnames                1005fa00 f   LIBCMT:strftime.obj
 0001:0005ec32       _strftime                  1005fc32 f   LIBCMT:strftime.obj
 0001:0005ec4d       __Strftime                 1005fc4d f   LIBCMT:strftime.obj
 0001:0005f4e4       ___getlocaleinfo           100604e4 f   LIBCMT:inithelp.obj
 0001:0005f61c       _localeconv                1006061c f   LIBCMT:lconv.obj
 0001:0005f622       ___crtGetStringTypeW       10060622 f   LIBCMT:w_str.obj
 0001:0005f7e7       __itoa                     100607e7 f   LIBCMT:xtoa.obj
 0001:0005f7e7       _itoa                      100607e7 f   LIBCMT:xtoa.obj
 0001:0005f870       __ltoa                     10060870 f   LIBCMT:xtoa.obj
 0001:0005f89a       __ultoa                    1006089a f   LIBCMT:xtoa.obj
 0001:0005f8b5       __i64toa                   100608b5 f   LIBCMT:xtoa.obj
 0001:0005f96c       __ui64toa                  1006096c f   LIBCMT:xtoa.obj
 0001:0005f990       _stricmp                   10060990 f   LIBCMT:stricmp.obj
 0001:0005f990       __strcmpi                  10060990 f   LIBCMT:stricmp.obj
 0001:0005f990       __stricmp                  10060990 f   LIBCMT:stricmp.obj
 0001:0005fa60       _fclose                    10060a60 f   LIBCMT:fclose.obj
 0001:0005fa91       __fclose_lk                10060a91 f   LIBCMT:fclose.obj
 0001:0005fadd       __commit                   10060add f   LIBCMT:commit.obj
 0001:0005fb70       ___tzset                   10060b70 f   LIBCMT:tzset.obj
 0001:0005fb9e       __tzset                    10060b9e f   LIBCMT:tzset.obj
 0001:0005fe3b       __isindst                  10060e3b f   LIBCMT:tzset.obj
 0001:00060148       ___crtGetLocaleInfoW       10061148 f   LIBCMT:w_loc.obj
 0001:0006025b       ___crtGetLocaleInfoA       1006125b f   LIBCMT:a_loc.obj
 0001:00060379       __close                    10061379 f   LIBCMT:close.obj
 0001:000603d6       __close_lk                 100613d6 f   LIBCMT:close.obj
 0001:00060459       __freebuf                  10061459 f   LIBCMT:_freebuf.obj
 0001:00060484       _getenv                    10061484 f   LIBCMT:getenv.obj
 0001:000604a5       __getenv_lk                100614a5 f   LIBCMT:getenv.obj
 0001:00060522       __mbsnbicoll               10061522 f   LIBCMT:mbsnbico.obj
 0001:00060561       ___wtomb_environ           10061561 f   LIBCMT:wtombenv.obj
 0001:000605cf       ___crtCompareStringA       100615cf f   LIBCMT:a_cmp.obj
 0001:00060877       ___crtsetenv               10061877 f   LIBCMT:setenv.obj
 0001:00060abd       _realloc                   10061abd f   LIBCMT:realloc.obj
 0001:00060bf5       __mbschr                   10061bf5 f   LIBCMT:mbschr.obj
 0001:00060c8c       __strdup                   10061c8c f   LIBCMT:strdup.obj
 0001:00060cc0       _RtlUnwind@16              10061cc0 f   kernel32:KERNEL32.dll
 0001:00060cc6       _InterlockedDecrement@4    10061cc6 f   kernel32:KERNEL32.dll
 0001:00060ccc       _InterlockedIncrement@4    10061ccc f   kernel32:KERNEL32.dll
 0001:00060cd2       _HeapAlloc@12              10061cd2 f   kernel32:KERNEL32.dll
 0001:00060cd8       _HeapFree@12               10061cd8 f   kernel32:KERNEL32.dll
 0001:00060cde       _GetCommandLineA@0         10061cde f   kernel32:KERNEL32.dll
 0001:00060ce4       _GetVersion@0              10061ce4 f   kernel32:KERNEL32.dll
 0001:00060cea       _GetProcAddress@8          10061cea f   kernel32:KERNEL32.dll
 0001:00060cf0       _GetModuleHandleA@4        10061cf0 f   kernel32:KERNEL32.dll
 0001:00060cf6       _GetCurrentThreadId@0      10061cf6 f   kernel32:KERNEL32.dll
 0001:00060cfc       _TlsSetValue@8             10061cfc f   kernel32:KERNEL32.dll
 0001:00060d02       _TlsAlloc@0                10061d02 f   kernel32:KERNEL32.dll
 0001:00060d08       _TlsFree@4                 10061d08 f   kernel32:KERNEL32.dll
 0001:00060d0e       _SetLastError@4            10061d0e f   kernel32:KERNEL32.dll
 0001:00060d14       _TlsGetValue@4             10061d14 f   kernel32:KERNEL32.dll
 0001:00060d1a       _GetLastError@0            10061d1a f   kernel32:KERNEL32.dll
 0001:00060d20       _GetCurrentThread@0        10061d20 f   kernel32:KERNEL32.dll
 0001:00060d26       _InitializeCriticalSection@4 10061d26 f   kernel32:KERNEL32.dll
 0001:00060d2c       _DeleteCriticalSection@4   10061d2c f   kernel32:KERNEL32.dll
 0001:00060d32       _EnterCriticalSection@4    10061d32 f   kernel32:KERNEL32.dll
 0001:00060d38       _LeaveCriticalSection@4    10061d38 f   kernel32:KERNEL32.dll
 0001:00060d3e       _ExitProcess@4             10061d3e f   kernel32:KERNEL32.dll
 0001:00060d44       _FatalAppExitA@8           10061d44 f   kernel32:KERNEL32.dll
 0001:00060d4a       _Sleep@4                   10061d4a f   kernel32:KERNEL32.dll
 0001:00060d50       _WideCharToMultiByte@32    10061d50 f   kernel32:KERNEL32.dll
 0001:00060d56       _MultiByteToWideChar@24    10061d56 f   kernel32:KERNEL32.dll
 0001:00060d5c       _LCMapStringA@24           10061d5c f   kernel32:KERNEL32.dll
 0001:00060d62       _LCMapStringW@24           10061d62 f   kernel32:KERNEL32.dll
 0001:00060d68       _HeapDestroy@4             10061d68 f   kernel32:KERNEL32.dll
 0001:00060d6e       _HeapCreate@12             10061d6e f   kernel32:KERNEL32.dll
 0001:00060d74       _VirtualFree@12            10061d74 f   kernel32:KERNEL32.dll
 0001:00060d7a       _VirtualAlloc@16           10061d7a f   kernel32:KERNEL32.dll
 0001:00060d80       _HeapReAlloc@16            10061d80 f   kernel32:KERNEL32.dll
 0001:00060d86       _IsBadWritePtr@8           10061d86 f   kernel32:KERNEL32.dll
 0001:00060d8c       _TerminateProcess@8        10061d8c f   kernel32:KERNEL32.dll
 0001:00060d92       _GetCurrentProcess@0       10061d92 f   kernel32:KERNEL32.dll
 0001:00060d98       _SetHandleCount@4          10061d98 f   kernel32:KERNEL32.dll
 0001:00060d9e       _GetStdHandle@4            10061d9e f   kernel32:KERNEL32.dll
 0001:00060da4       _GetFileType@4             10061da4 f   kernel32:KERNEL32.dll
 0001:00060daa       _GetStartupInfoA@4         10061daa f   kernel32:KERNEL32.dll
 0001:00060db0       _GetModuleFileNameA@12     10061db0 f   kernel32:KERNEL32.dll
 0001:00060db6       _FreeEnvironmentStringsA@4 10061db6 f   kernel32:KERNEL32.dll
 0001:00060dbc       _FreeEnvironmentStringsW@4 10061dbc f   kernel32:KERNEL32.dll
 0001:00060dc2       _GetEnvironmentStrings@0   10061dc2 f   kernel32:KERNEL32.dll
 0001:00060dc8       _GetEnvironmentStringsW@0  10061dc8 f   kernel32:KERNEL32.dll
 0001:00060dce       _WriteFile@20              10061dce f   kernel32:KERNEL32.dll
 0001:00060dd4       _GetStringTypeA@20         10061dd4 f   kernel32:KERNEL32.dll
 0001:00060dda       _GetStringTypeW@16         10061dda f   kernel32:KERNEL32.dll
 0001:00060de0       _SetUnhandledExceptionFilter@4 10061de0 f   kernel32:KERNEL32.dll
 0001:00060de6       _IsBadReadPtr@8            10061de6 f   kernel32:KERNEL32.dll
 0001:00060dec       _IsBadCodePtr@4            10061dec f   kernel32:KERNEL32.dll
 0001:00060df2       _UnhandledExceptionFilter@4 10061df2 f   kernel32:KERNEL32.dll
 0001:00060df8       _SetFilePointer@16         10061df8 f   kernel32:KERNEL32.dll
 0001:00060dfe       _GetCPInfo@8               10061dfe f   kernel32:KERNEL32.dll
 0001:00060e04       _IsValidLocale@8           10061e04 f   kernel32:KERNEL32.dll
 0001:00060e0a       _IsValidCodePage@4         10061e0a f   kernel32:KERNEL32.dll
 0001:00060e10       _GetLocaleInfoA@16         10061e10 f   kernel32:KERNEL32.dll
 0001:00060e16       _EnumSystemLocalesA@8      10061e16 f   kernel32:KERNEL32.dll
 0001:00060e1c       _GetUserDefaultLCID@0      10061e1c f   kernel32:KERNEL32.dll
 0001:00060e22       _GetVersionExA@4           10061e22 f   kernel32:KERNEL32.dll
 0001:00060e28       _GetACP@0                  10061e28 f   kernel32:KERNEL32.dll
 0001:00060e2e       _GetOEMCP@0                10061e2e f   kernel32:KERNEL32.dll
 0001:00060e34       _LoadLibraryA@4            10061e34 f   kernel32:KERNEL32.dll
 0001:00060e3a       _SetConsoleCtrlHandler@8   10061e3a f   kernel32:KERNEL32.dll
 0001:00060e40       _SetStdHandle@8            10061e40 f   kernel32:KERNEL32.dll
 0001:00060e46       _RaiseException@16         10061e46 f   kernel32:KERNEL32.dll
 0001:00060e4c       _ReadFile@20               10061e4c f   kernel32:KERNEL32.dll
 0001:00060e52       _FlushFileBuffers@4        10061e52 f   kernel32:KERNEL32.dll
 0001:00060e58       _GetTimeZoneInformation@4  10061e58 f   kernel32:KERNEL32.dll
 0001:00060e5e       _GetLocaleInfoW@16         10061e5e f   kernel32:KERNEL32.dll
 0001:00060e64       _CloseHandle@4             10061e64 f   kernel32:KERNEL32.dll
 0001:00060e6a       _CompareStringA@24         10061e6a f   kernel32:KERNEL32.dll
 0001:00060e70       _CompareStringW@24         10061e70 f   kernel32:KERNEL32.dll
 0001:00060e76       _SetEnvironmentVariableA@8 10061e76 f   kernel32:KERNEL32.dll
 0002:0000001c       __real@4@4003f000000000000000 1006201c     airtank.obj
 0002:00000020       __real@4@4002c000000000000000 10062020     airtank.obj
 0002:00000024       ??_7CAirtank@@6B@          10062024     airtank.obj
 0002:00000150       __real@4@00000000000000000000 10062150     airtank.obj
 0002:00000154       __real@4@3ffe8000000000000000 10062154     airtank.obj
 0002:00000158       __real@8@3ff78000000000000000 10062158     animating.obj
 0002:00000160       __real@8@40078000000000000000 10062160     animating.obj
 0002:00000168       __real@8@3ff583126e978d4fe000 10062168     animating.obj
 0002:00000170       __real@8@00000000000000000000 10062170     animating.obj
 0002:00000178       __real@4@40078000000000000000 10062178     animating.obj
 0002:0000017c       __real@4@3ffbcccccd0000000000 1006217c     animating.obj
 0002:00000180       __real@8@3ff98efa351294e9c800 10062180     animating.obj
 0002:00000188       __real@4@3fff8000000000000000 10062188     animation.obj
 0002:00000190       __real@8@3ff78080808080808000 10062190     animation.obj
 0002:00000198       __real@4@4006ff00000000000000 10062198     animation.obj
 0002:000001a0       __real@8@3fff8000000000000000 100621a0     animation.obj
 0002:000001a8       __real@8@bff6b60b60b60b60b800 100621a8     animation.obj
 0002:000001b0       __real@8@4007b400000000000000 100621b0     animation.obj
 0002:000001b8       __real@8@3ff6b60b60b60b60b800 100621b8     animation.obj
 0002:000001c0       __real@4@4007b400000000000000 100621c0     animation.obj
 0002:000001c8       __real@8@4006b400000000000000 100621c8     animation.obj
 0002:000001d0       __real@8@3ffe8000000000000000 100621d0     animation.obj
 0002:000001d8       __real@8@4007b380000000000000 100621d8     animation.obj
 0002:000001e0       __real@8@40038000000000000000 100621e0     bmodels.obj
 0002:000001e8       __real@8@3ffbccccccccccccd000 100621e8     bmodels.obj
 0002:000001f0       __real@8@3ff8a3d70a3d70a3d800 100621f0     bmodels.obj
 0002:000001f8       __real@8@3fffc000000000000000 100621f8     bmodels.obj
 0002:00000200       __real@4@bfff8000000000000000 10062200     bmodels.obj
 0002:00000204       __real@4@3ffbccccccccccccd000 10062204     bmodels.obj
 0002:00000208       __real@4@40058c00000000000000 10062208     bmodels.obj
 0002:0000020c       __real@4@4002a000000000000000 1006220c     bmodels.obj
 0002:00000210       __real@8@4003f000000000000000 10062210     bmodels.obj
 0002:00000218       ??_7CFuncWall@@6B@         10062218     bmodels.obj
 0002:000002fc       ??_7CFuncWallToggle@@6B@   100622fc     bmodels.obj
 0002:000003e0       ??_7CFuncConveyor@@6B@     100623e0     bmodels.obj
 0002:000004c4       ??_7CFuncIllusionary@@6B@  100624c4     bmodels.obj
 0002:000005ac       ??_7CFuncMonsterClip@@6B@  100625ac     bmodels.obj
 0002:00000690       ??_7CFuncRotating@@6B@     10062690     bmodels.obj
 0002:00000774       ??_7CPendulum@@6B@         10062774     bmodels.obj
 0002:00000858       __real@4@40008000000000000000 10062858     buttons.obj
 0002:0000085c       __real@4@4001c000000000000000 1006285c     buttons.obj
 0002:00000860       __real@8@3ffdccccccccccccd000 10062860     buttons.obj
 0002:00000868       ??_7CEnvGlobal@@6B@        10062868     buttons.obj
 0002:0000094c       ??_7CMultiSource@@6B@      1006294c     buttons.obj
 0002:00000a30       ??_7CBaseButton@@6B@       10062a30     buttons.obj
 0002:00000b18       ??_7CRotButton@@6B@        10062b18     buttons.obj
 0002:00000c00       ??_7CMomentaryRotButton@@6B@ 10062c00     buttons.obj
 0002:00000ce8       ??_7CEnvSpark@@6B@         10062ce8     buttons.obj
 0002:00000dcc       ??_7CButtonTarget@@6B@     10062dcc     buttons.obj
 0002:00000eb0       __real@8@4008fa00000000000000 10062eb0     cbase.obj
 0002:00000eb8       __real@8@4001a000000000000000 10062eb8     cbase.obj
 0002:00000ec0       __real@8@400f9000000000000000 10062ec0     cbase.obj
 0002:00000ec8       __real@4@c009fa00000000000000 10062ec8     cbase.obj
 0002:00000ecc       __real@4@4009fa00000000000000 10062ecc     cbase.obj
 0002:00000ed0       __real@4@c00b8000000000000000 10062ed0     cbase.obj
 0002:00000ed4       __real@4@400b8000000000000000 10062ed4     cbase.obj
 0002:00000ed8       ??_7CBasePlayer@@6B@       10062ed8     client.obj
 0002:0000101c       __real@4@4009bb80000000000000 1006301c     combat.obj
 0002:00001020       __real@8@4009bb80000000000000 10063020     combat.obj
 0002:00001028       __real@4@40018000000000000000 10063028     combat.obj
 0002:0000102c       __real@4@c006c800000000000000 1006302c     combat.obj
 0002:00001030       __real@4@3ffeb333330000000000 10063030     combat.obj
 0002:00001034       __real@4@c004c800000000000000 10063034     combat.obj
 0002:00001038       __real@4@4008e100000000000000 10063038     combat.obj
 0002:0000103c       __real@4@4005c800000000000000 1006303c     combat.obj
 0002:00001040       __real@4@40079600000000000000 10063040     combat.obj
 0002:00001044       __real@4@40058000000000000000 10063044     combat.obj
 0002:00001048       __real@8@bffd9999999999999800 10063048     combat.obj
 0002:00001050       __real@8@3ffd9999999999999800 10063050     combat.obj
 0002:00001058       __real@4@c003f000000000000000 10063058     combat.obj
 0002:0000105c       __real@4@c005c600000000000000 1006305c     combat.obj
 0002:00001060       __real@8@3ffcccccccccccccd000 10063060     combat.obj
 0002:00001068       __real@4@4001e000000000000000 10063068     combat.obj
 0002:00001070       __real@8@3ffeccccccccccccd000 10063070     combat.obj
 0002:00001078       __real@8@3ff691a2b3c4d5e6f800 10063078     combat.obj
 0002:00001080       __real@4@4003c000000000000000 10063080     combat.obj
 0002:00001084       __real@4@40028000000000000000 10063084     combat.obj
 0002:00001088       __real@4@3ffee666660000000000 10063088     combat.obj
 0002:0000108c       __real@4@40048000000000000000 1006308c     combat.obj
 0002:00001090       __real@4@4003a000000000000000 10063090     combat.obj
 0002:00001094       __real@4@4008fa00000000000000 10063094     combat.obj
 0002:00001098       __real@8@4000a000000000000000 10063098     combat.obj
 0002:000010a0       __real@8@3ff98000000000000000 100630a0     combat.obj
 0002:000010a8       __real@4@40038000000000000000 100630a8     combat.obj
 0002:000010ac       __real@4@c006ac00000000000000 100630ac     combat.obj
 0002:000010b0       __real@4@4003c800000000000000 100630b0     combat.obj
 0002:000010b4       __real@4@4006ac00000000000000 100630b4     combat.obj
 0002:000010b8       ??_7CGib@@6B@              100630b8     combat.obj
 0002:000011a0       __real@8@4002a000000000000000 100631a0     crossbow.obj
 0002:000011a8       __real@4@400c8000000000000000 100631a8     crossbow.obj
 0002:000011b0       __real@8@3ffec000000000000000 100631b0     crossbow.obj
 0002:000011b8       __real@8@4000aaaaaaaaaaaaa800 100631b8     crossbow.obj
 0002:000011c0       __real@8@4000c000000000000000 100631c0     crossbow.obj
 0002:000011c8       ??_7CCrossbowBolt@@6B@     100631c8     crossbow.obj
 0002:000012ac       ??_7CCrossbow@@6B@         100632ac     crossbow.obj
 0002:0000140c       ??_7CCrossbowAmmo@@6B@     1006340c     crossbow.obj
 0002:000014f4       __real@4@40088000000000000000 100634f4     crowbar.obj
 0002:000014f8       __real@8@3ffd8000000000000000 100634f8     crowbar.obj
 0002:00001500       ??_7CCrowbar@@6B@          10063500     crowbar.obj
 0002:00001660       __real@8@3ffc8000000000000000 10063660     doors.obj
 0002:00001668       ??_7CBaseDoor@@6B@         10063668     doors.obj
 0002:00001750       ??_7CRotDoor@@6B@          10063750     doors.obj
 0002:00001838       ??_7CMomentaryDoor@@6B@    10063838     doors.obj
 0002:00001920       __real@8@40008000000000000000 10063920     effects.obj
 0002:00001928       __real@4@4000c000000000000000 10063928     effects.obj
 0002:0000192c       __real@4@40068000000000000000 1006392c     effects.obj
 0002:00001930       ??_7CPointEntity@@6B@      10063930     effects.obj
 0002:00001a14       ??_7CBubbling@@6B@         10063a14     effects.obj
 0002:00001af8       ??_7CBeam@@6B@             10063af8     effects.obj
 0002:00001bdc       ??_7CLightning@@6B@        10063bdc     effects.obj
 0002:00001cc0       ??_7CLaser@@6B@            10063cc0     effects.obj
 0002:00001da4       ??_7CGlow@@6B@             10063da4     effects.obj
 0002:00001e88       ??_7CSprite@@6B@           10063e88     effects.obj
 0002:00001f6c       ??_7CGibShooter@@6B@       10063f6c     effects.obj
 0002:00002054       ??_7CEnvShooter@@6B@       10064054     effects.obj
 0002:0000213c       ??_7CTestEffect@@6B@       1006413c     effects.obj
 0002:00002220       ??_7CBlood@@6B@            10064220     effects.obj
 0002:00002304       ??_7CShake@@6B@            10064304     effects.obj
 0002:000023e8       ??_7CFade@@6B@             100643e8     effects.obj
 0002:000024cc       ??_7CMessage@@6B@          100644cc     effects.obj
 0002:000025b0       ??_7CEnvFunnel@@6B@        100645b0     effects.obj
 0002:00002694       ??_7CEnvBeverage@@6B@      10064694     effects.obj
 0002:00002778       ??_7CItemSoda@@6B@         10064778     effects.obj
 0002:00002860       __real@8@3ffca9fbe76c8b439800 10064860     egon.obj
 0002:00002868       __real@4@3ffd8000000000000000 10064868     egon.obj
 0002:0000286c       __real@4@c0028000000000000000 1006486c     egon.obj
 0002:00002870       __real@4@400a8000000000000000 10064870     egon.obj
 0002:00002874       __real@4@4005f000000000000000 10064874     egon.obj
 0002:00002878       __real@4@4004f000000000000000 10064878     egon.obj
 0002:00002880       __real@8@40058000000000000000 10064880     egon.obj
 0002:00002888       __real@8@4005a000000000000000 10064888     egon.obj
 0002:00002890       __real@4@4004a000000000000000 10064890     egon.obj
 0002:00002894       __real@4@4006b400000000000000 10064894     egon.obj
 0002:00002898       ??_7CEgon@@6B@             10064898     egon.obj
 0002:000029f8       ??_7CEgonAmmo@@6B@         100649f8     egon.obj
 0002:00002ae0       __real@4@4006c800000000000000 10064ae0     explode.obj
 0002:00002ae4       __real@4@3ffe99999a0000000000 10064ae4     explode.obj
 0002:00002ae8       __real@8@3ffe9999999999999800 10064ae8     explode.obj
 0002:00002af0       ??_7CShower@@6B@           10064af0     explode.obj
 0002:00002bd4       ??_7CEnvExplosion@@6B@     10064bd4     explode.obj
 0002:00002d00       __real@8@3ff483126e978d4fe000 10064d00     func_break.obj
 0002:00002d08       __real@4@4007c800000000000000 10064d08     func_break.obj
 0002:00002d0c       __real@4@4007c780000000000000 10064d0c     func_break.obj
 0002:00002d10       __real@8@3ffeb333333333333000 10064d10     func_break.obj
 0002:00002d18       ??_7CBreakable@@6B@        10064d18     func_break.obj
 0002:00002dfc       ??_7CPushable@@6B@         10064dfc     func_break.obj
 0002:00002ee0       __real@8@3ffaccccccccccccd000 10064ee0     func_tank.obj
 0002:00002ee8       __real@8@4004e52ee0d31e0fc000 10064ee8     func_tank.obj
 0002:00002ef0       __real@4@3ff98888888888888800 10064ef0     func_tank.obj
 0002:00002ef4       ??_7CFuncTankGun@@6B@      10064ef4     func_tank.obj
 0002:00002fe0       ??_7CFuncTankLaser@@6B@    10064fe0     func_tank.obj
 0002:000030cc       ??_7CFuncTankRocket@@6B@   100650cc     func_tank.obj
 0002:000031b8       ??_7CFuncTankMortar@@6B@   100651b8     func_tank.obj
 0002:000032a4       ??_7CFuncTankControls@@6B@ 100652a4     func_tank.obj
 0002:00003388       __real@4@3fffc000000000000000 10065388     gauss.obj
 0002:00003390       __real@8@3ffc9999999999999800 10065390     gauss.obj
 0002:00003398       __real@4@40069600000000000000 10065398     gauss.obj
 0002:000033a0       __real@8@3ff6a3d70a3d70a3d800 100653a0     gauss.obj
 0002:000033a8       __real@4@4001a000000000000000 100653a8     gauss.obj
 0002:000033ac       ??_7CGauss@@6B@            100653ac     gauss.obj
 0002:0000350c       ??_7CGaussAmmo@@6B@        1006550c     gauss.obj
 0002:000035f4       __real@4@4004c800000000000000 100655f4     ggrenade.obj
 0002:000035f8       __real@8@3ff7a3d70a3d70a3d800 100655f8     ggrenade.obj
 0002:00003600       __real@4@3ffecccccd0000000000 10065600     ggrenade.obj
 0002:00003608       __real@8@3ffde666666666666800 10065608     ggrenade.obj
 0002:00003610       __real@4@3ffef333330000000000 10065610     ggrenade.obj
 0002:00003614       ??_7CGrenade@@6B@          10065614     ggrenade.obj
 0002:00003740       __real@4@c002c000000000000000 10065740     glock.obj
 0002:00003748       __real@8@4000f000000000000000 10065748     glock.obj
 0002:00003750       __real@8@4000c400000000000000 10065750     glock.obj
 0002:00003758       ??_7CGlock@@6B@            10065758     glock.obj
 0002:000038b8       ??_7CGlockAmmo@@6B@        100658b8     glock.obj
 0002:000039a0       __real@4@4002f000000000000000 100659a0     h_ai.obj
 0002:000039a4       __real@4@4007fa00000000000000 100659a4     h_ai.obj
 0002:000039a8       __real@8@3ffe9eb851eb851eb800 100659a8     h_battery.obj
 0002:000039b0       __real@8@3ffe8f5c28f5c28f6000 100659b0     h_battery.obj
 0002:000039b8       ??_7CRecharge@@6B@         100659b8     h_battery.obj
 0002:00003aa0       ??_7CGenericCycler@@6B@    10065aa0     h_cycler.obj
 0002:00003bc8       ??_7CCyclerProbe@@6B@      10065bc8     h_cycler.obj
 0002:00003cf0       ??_7CCyclerSprite@@6B@     10065cf0     h_cycler.obj
 0002:00003dd4       ??_7CWeaponCycler@@6B@     10065dd4     h_cycler.obj
 0002:00003f34       ??_7CWreckage@@6B@         10065f34     h_cycler.obj
 0002:0000405c       __real@4@4005b400000000000000 1006605c     handgrenade.obj
 0002:00004060       __real@8@3fff8e38e38e38e39000 10066060     handgrenade.obj
 0002:00004068       __real@8@3ffee38e38e38e38e000 10066068     handgrenade.obj
 0002:00004070       ??_7CHandGrenade@@6B@      10066070     handgrenade.obj
 0002:000041d0       ??_7CHealthKit@@6B@        100661d0     healthkit.obj
 0002:000042b8       ??_7CWallHealth@@6B@       100662b8     healthkit.obj
 0002:000043a0       __real@8@4000e000000000000000 100663a0     hornet.obj
 0002:000043a8       ??_7CHornet@@6B@           100663a8     hornet.obj
 0002:000044d0       __real@8@40008c00000000000000 100664d0     hornetgun.obj
 0002:000044d8       __real@8@3ffee000000000000000 100664d8     hornetgun.obj
 0002:000044e0       ??_7CHgun@@6B@             100664e0     hornetgun.obj
 0002:00004640       ??_7CWorldItem@@6B@        10066640     items.obj
 0002:00004724       ??_7CItemSuit@@6B@         10066724     items.obj
 0002:0000480c       ??_7CItemBattery@@6B@      1006680c     items.obj
 0002:000048f8       __real@8@4005c800000000000000 100668f8     items.obj
 0002:00004900       ??_7CItemAntidote@@6B@     10066900     items.obj
 0002:000049e8       ??_7CItemSecurity@@6B@     100669e8     items.obj
 0002:00004ad0       ??_7CItemLongJump@@6B@     10066ad0     items.obj
 0002:00004bb8       __real@8@40078400000000000000 10066bb8     lights.obj
 0002:00004bc0       __real@8@3ff88fb823ee08fb8000 10066bc0     lights.obj
 0002:00004bc8       ??_7CLight@@6B@            10066bc8     lights.obj
 0002:00004cac       ??_7CEnvLight@@6B@         10066cac     lights.obj
 0002:00004d90       __real@8@3ff9a3d70a3d70a3d800 10066d90     m4a1.obj
 0002:00004d98       ??_7CM4A1@@6B@             10066d98     m4a1.obj
 0002:00004ef8       ??_7CM4A1Ammo@@6B@         10066ef8     m4a1.obj
 0002:00004fe0       ??_7CGameScore@@6B@        10066fe0     maprules.obj
 0002:000050c4       ??_7CGameEnd@@6B@          100670c4     maprules.obj
 0002:000051a8       ??_7CGameText@@6B@         100671a8     maprules.obj
 0002:0000528c       ??_7CGameTeamMaster@@6B@   1006728c     maprules.obj
 0002:00005370       ??_7CGameTeamSet@@6B@      10067370     maprules.obj
 0002:00005454       ??_7CGamePlayerZone@@6B@   10067454     maprules.obj
 0002:00005538       ??_7CGamePlayerHurt@@6B@   10067538     maprules.obj
 0002:0000561c       ??_7CGameCounter@@6B@      1006761c     maprules.obj
 0002:00005700       ??_7CGameCounterSet@@6B@   10067700     maprules.obj
 0002:000057e4       ??_7CGamePlayerEquip@@6B@  100677e4     maprules.obj
 0002:000058c8       ??_7CGamePlayerTeam@@6B@   100678c8     maprules.obj
 0002:000059ac       __real@4@40098000000000000000 100679ac     mortar.obj
 0002:000059b0       ??_7CFuncMortarField@@6B@  100679b0     mortar.obj
 0002:00005a98       ??_7CMortar@@6B@           10067a98     mortar.obj
 0002:00005bc4       ??_7CMP5@@6B@              10067bc4     mp5.obj
 0002:00005d24       ??_7CMP5AmmoClip@@6B@      10067d24     mp5.obj
 0002:00005e0c       ??_7CMP5Chainammo@@6B@     10067e0c     mp5.obj
 0002:00005ef4       ??_7CMP5AmmoGrenade@@6B@   10067ef4     mp5.obj
 0002:00005fdc       ??_7CHalfLifeMultiplay@@6B@ 10067fdc     multiplay_gamerules.obj
 0002:000060d4       __real@4@3ffce6a171024e6a1800 100680d4     multiplay_gamerules.obj
 0002:000060d8       __real@4@40089100000000000000 100680d8     multiplay_gamerules.obj
 0002:000060dc       __real@4@4006dc00000000000000 100680dc     multiplay_gamerules.obj
 0002:000060e0       ??_7CPathCorner@@6B@       100680e0     pathcorner.obj
 0002:000061c4       ??_7CPathTrack@@6B@        100681c4     pathcorner.obj
 0002:000062a8       __real@4@c001a000000000000000 100682a8     plats.obj
 0002:000062ac       __real@4@40059000000000000000 100682ac     plats.obj
 0002:000062b0       ??_7CFuncPlat@@6B@         100682b0     plats.obj
 0002:000063ac       ??_7CPlatTrigger@@6B@      100683ac     plats.obj
 0002:00006490       ??_7CFuncPlatRot@@6B@      10068490     plats.obj
 0002:0000658c       ??_7CFuncTrain@@6B@        1006858c     plats.obj
 0002:00006678       ??_7CFuncTrackTrain@@6B@   10068678     plats.obj
 0002:0000675c       ??_7CFuncTrainControls@@6B@ 1006875c     plats.obj
 0002:00006840       ??_7CFuncTrackChange@@6B@  10068840     plats.obj
 0002:00006940       ??_7CFuncTrackAuto@@6B@    10068940     plats.obj
 0002:00006a40       ??_7CGunTarget@@6B@        10068a40     plats.obj
 0002:00006b68       ??_7CBaseEntity@@6B@       10068b68     plats.obj
 0002:00006c50       __real@8@3ffea8f5c28f5c28f800 10068c50     player.obj
 0002:00006c58       __real@8@3ffda8f5c28f5c28f800 10068c58     player.obj
 0002:00006c60       __real@4@40059600000000000000 10068c60     player.obj
 0002:00006c64       __real@4@3ffccccccd0000000000 10068c64     player.obj
 0002:00006c68       __real@4@3fff99999a0000000000 10068c68     player.obj
 0002:00006c6c       __real@4@c004a000000000000000 10068c6c     player.obj
 0002:00006c70       __real@4@40029000000000000000 10068c70     player.obj
 0002:00006c78       __real@8@400f8ca0000000000000 10068c78     player.obj
 0002:00006c80       __real@8@400faf00000000000000 10068c80     player.obj
 0002:00006c88       __real@4@40088c00000000000000 10068c88     player.obj
 0002:00006c8c       __real@4@4005a000000000000000 10068c8c     player.obj
 0002:00006c90       __real@4@4003e000000000000000 10068c90     player.obj
 0002:00006c98       __real@8@3ffe8cccccccccccd000 10068c98     player.obj
 0002:00006ca0       __real@8@4003c000000000000000 10068ca0     player.obj
 0002:00006ca8       __real@8@40018000000000000000 10068ca8     player.obj
 0002:00006cb0       __real@8@3ffdb333333333333000 10068cb0     player.obj
 0002:00006cb8       __real@4@40049800000000000000 10068cb8     player.obj
 0002:00006cbc       __real@4@4006fa00000000000000 10068cbc     player.obj
 0002:00006cc0       __real@8@3ff89374bc6a7ef9d800 10068cc0     player.obj
 0002:00006cc8       __real@8@3ff99374bc6a7ef9d800 10068cc8     player.obj
 0002:00006cd0       __real@4@40079100000000000000 10068cd0     player.obj
 0002:00006cd4       __real@4@4007af00000000000000 10068cd4     player.obj
 0002:00006cd8       __real@8@3fff9999999999999800 10068cd8     player.obj
 0002:00006ce0       __real@4@3ffeab851f0000000000 10068ce0     player.obj
 0002:00006ce4       __real@4@3ffda8f5c30000000000 10068ce4     player.obj
 0002:00006ce8       __real@4@c003c800000000000000 10068ce8     player.obj
 0002:00006cec       __real@4@c006b400000000000000 10068cec     player.obj
 0002:00006cf0       ??_7CSprayCan@@6B@         10068cf0     player.obj
 0002:00006dd4       ??_7CBloodSplat@@6B@       10068dd4     player.obj
 0002:00006eb8       ??_7CDeadHEV@@6B@          10068eb8     player.obj
 0002:00006fe0       ??_7CStripWeapons@@6B@     10068fe0     player.obj
 0002:000070c4       ??_7CRevertSaved@@6B@      100690c4     player.obj
 0002:000071a8       ??_7CInfoIntermission@@6B@ 100691a8     player.obj
 0002:00007290       __real@8@4001b555555555555800 10069290     python.obj
 0002:00007298       __real@8@4000bbbbbbbbbbbbb800 10069298     python.obj
 0002:000072a0       __real@8@3ffee666666666666800 100692a0     python.obj
 0002:000072a8       __real@8@40009555555555555800 100692a8     python.obj
 0002:000072b0       ??_7CPython@@6B@           100692b0     python.obj
 0002:00007410       ??_7CPythonAmmo@@6B@       10069410     python.obj
 0002:000074f8       __real@4@3ffecc49ba0000000000 100694f8     rpg.obj
 0002:00007500       __real@8@4007c800000000000000 10069500     rpg.obj
 0002:00007508       __real@8@40008666666666666800 10069508     rpg.obj
 0002:00007510       __real@8@4001c000000000000000 10069510     rpg.obj
 0002:00007518       ??_7CLaserSpot@@6B@        10069518     rpg.obj
 0002:000075fc       ??_7CRpg@@6B@              100695fc     rpg.obj
 0002:0000775c       ??_7CRpgRocket@@6B@        1006975c     rpg.obj
 0002:00007888       ??_7CRpgAmmo@@6B@          10069888     rpg.obj
 0002:00007970       __real@4@40078900000000000000 10069970     satchel.obj
 0002:00007974       ??_7CSatchelCharge@@6B@    10069974     satchel.obj
 0002:00007aa0       ??_7CSatchel@@6B@          10069aa0     satchel.obj
 0002:00007c00       __real@8@3ffef333333333333000 10069c00     shotgun.obj
 0002:00007c08       __real@8@40008e38e38e38e39000 10069c08     shotgun.obj
 0002:00007c10       ??_7CShotgun@@6B@          10069c10     shotgun.obj
 0002:00007d70       ??_7CShotgunAmmo@@6B@      10069d70     shotgun.obj
 0002:00007e58       ??_7CHalfLifeRules@@6B@    10069e58     singleplay_gamerules.obj
 0002:00007f48       __real@4@3ff8a3d70a0000000000 10069f48     sound.obj
 0002:00007f50       __real@8@3ffeaaaaaaaaaaaaa800 10069f50     sound.obj
 0002:00007f58       ??_7CAmbientGeneric@@6B@   10069f58     sound.obj
 0002:0000803c       ??_7CEnvSound@@6B@         1006a03c     sound.obj
 0002:00008120       ??_7CSpeaker@@6B@          1006a120     sound.obj
 0002:00008204       ??_7CSoundEnt@@6B@         1006a204     soundent.obj
 0002:000082e8       __real@8@4002f000000000000000 1006a2e8     squeakgrenade.obj
 0002:000082f0       __real@8@4012f424000000000000 1006a2f0     squeakgrenade.obj
 0002:000082f8       __real@8@4004c800000000000000 1006a2f8     squeakgrenade.obj
 0002:00008300       __real@8@40028000000000000000 1006a300     squeakgrenade.obj
 0002:00008308       __real@8@40069b00000000000000 1006a308     squeakgrenade.obj
 0002:00008310       __real@8@4004f000000000000000 1006a310     squeakgrenade.obj
 0002:00008318       __real@8@3ffb8888888888888800 1006a318     squeakgrenade.obj
 0002:00008320       __real@8@40018c00000000000000 1006a320     squeakgrenade.obj
 0002:00008328       ??_7CSqueakGrenade@@6B@    1006a328     squeakgrenade.obj
 0002:00008454       ??_7CSqueak@@6B@           1006a454     squeakgrenade.obj
 0002:000085b4       ??_7CNullEntity@@6B@       1006a5b4     subs.obj
 0002:00008698       ??_7CBaseDMStart@@6B@      1006a698     subs.obj
 0002:0000877c       ??_7CBaseDelay@@6B@        1006a77c     subs.obj
 0002:00008860       ??_7CHalfLifeTeamplay@@6B@ 1006a860     teamplay_gamerules.obj
 0002:00008958       ??_7CChangeLevel@@6B@      1006a958     triggers.obj
 0002:00008a40       ??_7CFrictionModifier@@6B@ 1006aa40     triggers.obj
 0002:00008b24       ??_7CAutoTrigger@@6B@      1006ab24     triggers.obj
 0002:00008c08       ??_7CTriggerRelay@@6B@     1006ac08     triggers.obj
 0002:00008cec       ??_7CMultiManager@@6B@     1006acec     triggers.obj
 0002:00008dd4       ??_7CRenderFxManager@@6B@  1006add4     triggers.obj
 0002:00008eb8       ??_7CBaseTrigger@@6B@      1006aeb8     triggers.obj
 0002:00008fa0       ??_7CTriggerHurt@@6B@      1006afa0     triggers.obj
 0002:00009088       ??_7CTriggerMonsterJump@@6B@ 1006b088     triggers.obj
 0002:00009170       ??_7CTriggerCDAudio@@6B@   1006b170     triggers.obj
 0002:00009258       ??_7CTargetCDAudio@@6B@    1006b258     triggers.obj
 0002:0000933c       ??_7CTriggerMultiple@@6B@  1006b33c     triggers.obj
 0002:00009424       ??_7CTriggerOnce@@6B@      1006b424     triggers.obj
 0002:0000950c       ??_7CTriggerCounter@@6B@   1006b50c     triggers.obj
 0002:000095f4       ??_7CTriggerVolume@@6B@    1006b5f4     triggers.obj
 0002:000096d8       ??_7CFireAndDie@@6B@       1006b6d8     triggers.obj
 0002:000097bc       ??_7CLadder@@6B@           1006b7bc     triggers.obj
 0002:000098a4       ??_7CTriggerPush@@6B@      1006b8a4     triggers.obj
 0002:0000998c       ??_7CTriggerTeleport@@6B@  1006b98c     triggers.obj
 0002:00009a74       ??_7CTriggerSave@@6B@      1006ba74     triggers.obj
 0002:00009b5c       ??_7CTriggerEndSection@@6B@ 1006bb5c     triggers.obj
 0002:00009c44       ??_7CTriggerGravity@@6B@   1006bc44     triggers.obj
 0002:00009d2c       ??_7CTriggerChangeTarget@@6B@ 1006bd2c     triggers.obj
 0002:00009e10       ??_7CTriggerCamera@@6B@    1006be10     triggers.obj
 0002:00009ef8       __real@8@4000d555555555555800 1006bef8     tripmine.obj
 0002:00009f00       ??_7CTripmineGrenade@@6B@  1006bf00     tripmine.obj
 0002:0000a02c       ??_7CTripmine@@6B@         1006c02c     tripmine.obj
 0002:0000a18c       __real@4@3ff6b60b60b60b60b800 1006c18c     util.obj
 0002:0000a190       __real@4@bff6b60b60b60b60b800 1006c190     util.obj
 0002:0000a194       ??_7CWeaponBox@@6B@        1006c194     weapons.obj
 0002:0000a278       ??_7CDecal@@6B@            1006c278     world.obj
 0002:0000a35c       ??_7CCorpse@@6B@           1006c35c     world.obj
 0002:0000a440       ??_7CWorld@@6B@            1006c440     world.obj
 0002:0000a524       ??_7CXenPLight@@6B@        1006c524     xen.obj
 0002:0000a60c       ??_7CXenHair@@6B@          1006c60c     xen.obj
 0002:0000a6f4       ??_7CXenTreeTrigger@@6B@   1006c6f4     xen.obj
 0002:0000a7d8       ??_7CXenTree@@6B@          1006c7d8     xen.obj
 0002:0000a8c0       ??_7CXenHull@@6B@          1006c8c0     xen.obj
 0002:0000a9a4       ??_7CXenSporeSmall@@6B@    1006c9a4     xen.obj
 0002:0000aa8c       ??_7CXenSporeMed@@6B@      1006ca8c     xen.obj
 0002:0000ab74       ??_7CXenSporeLarge@@6B@    1006cb74     xen.obj
 0002:0000ac60       __real@8@4015800bf60000000000 1006cc60     LIBCMT:testfdiv.obj
 0002:0000ac68       __real@8@4014bffffc0000000000 1006cc68     LIBCMT:testfdiv.obj
 0002:0000ac70       ??_C@_0BK@JEGK@IsProcessorFeaturePresent?$AA@ 1006cc70     LIBCMT:testfdiv.obj
 0002:0000ac8c       ??_C@_08OBID@KERNEL32?$AA@ 1006cc8c     LIBCMT:testfdiv.obj
 0002:0000ac98       ??_C@_05OFLO@e?$CL000?$AA@ 1006cc98     LIBCMT:cvt.obj
 0002:0000ad18       ___lookuptable             1006cd18     LIBCMT:output.obj
 0002:0000ad74       ??_C@_1O@POHA@?$AA?$CI?$AAn?$AAu?$AAl?$AAl?$AA?$CJ?$AA?$AA@ 1006cd74     LIBCMT:output.obj
 0002:0000ad84       ??_C@_06ONKE@?$CInull?$CJ?$AA@ 1006cd84     LIBCMT:output.obj
 0002:0000adc8       __DEFAULT_CW_in_mem        1006cdc8     LIBCMT:common.obj
 0002:0000adca       __pi_by_2_to_61            1006cdca     LIBCMT:common.obj
 0002:0000ae04       ??_C@_07PCLE@LC_TIME?$AA@  1006ce04     LIBCMT:setlocal.obj
 0002:0000ae0c       ??_C@_0L@NKG@LC_NUMERIC?$AA@ 1006ce0c     LIBCMT:setlocal.obj
 0002:0000ae18       ??_C@_0M@CBIH@LC_MONETARY?$AA@ 1006ce18     LIBCMT:setlocal.obj
 0002:0000ae24       ??_C@_08LFGE@LC_CTYPE?$AA@ 1006ce24     LIBCMT:setlocal.obj
 0002:0000ae30       ??_C@_0L@CFLC@LC_COLLATE?$AA@ 1006ce30     LIBCMT:setlocal.obj
 0002:0000ae3c       ??_C@_06GCPK@LC_ALL?$AA@   1006ce3c     LIBCMT:setlocal.obj
 0002:0000ae44       ??_C@_02BGDO@?$DN?$DL?$AA@ 1006ce44     LIBCMT:setlocal.obj
 0002:0000ae48       ??_C@_01KPOD@?$DN?$AA@     1006ce48     LIBCMT:setlocal.obj
 0002:0000ae4c       ??_C@_03DBOJ@_?4?0?$AA@    1006ce4c     LIBCMT:setlocal.obj
 0002:0000ae50       ??_C@_01PJCK@?4?$AA@       1006ce50     LIBCMT:setlocal.obj
 0002:0000ae54       ??_C@_01NON@_?$AA@         1006ce54     LIBCMT:setlocal.obj
 0002:0000ae58       ??_C@_01A@?$AA?$AA@        1006ce58     LIBCMT:a_map.obj
 0002:0000ae5c       ??_C@_13A@?$AA?$AA?$AA?$AA@ 1006ce5c     LIBCMT:a_map.obj
 0002:0000ae78       ??_C@_0P@GGKG@runtime?5error?5?$AA@ 1006ce78     LIBCMT:crt0msg.obj
 0002:0000ae88       ??_C@_02PIMC@?$AN?6?$AA@   1006ce88     LIBCMT:crt0msg.obj
 0002:0000ae8c       ??_C@_0O@DELO@TLOSS?5error?$AN?6?$AA@ 1006ce8c     LIBCMT:crt0msg.obj
 0002:0000ae9c       ??_C@_0N@OMLL@SING?5error?$AN?6?$AA@ 1006ce9c     LIBCMT:crt0msg.obj
 0002:0000aeac       ??_C@_0P@OJAK@DOMAIN?5error?$AN?6?$AA@ 1006ceac     LIBCMT:crt0msg.obj
 0002:0000aebc       ??_C@_0CF@EANP@R6028?$AN?6?9?5unable?5to?5initialize?5he@ 1006cebc     LIBCMT:crt0msg.obj
 0002:0000aee4       ??_C@_0DF@ECGN@R6027?$AN?6?9?5not?5enough?5space?5for?5lo@ 1006cee4     LIBCMT:crt0msg.obj
 0002:0000af1c       ??_C@_0DF@FKAC@R6026?$AN?6?9?5not?5enough?5space?5for?5st@ 1006cf1c     LIBCMT:crt0msg.obj
 0002:0000af54       ??_C@_0CG@DPMN@R6025?$AN?6?9?5pure?5virtual?5function?5c@ 1006cf54     LIBCMT:crt0msg.obj
 0002:0000af7c       ??_C@_0DF@CKIP@R6024?$AN?6?9?5not?5enough?5space?5for?5_o@ 1006cf7c     LIBCMT:crt0msg.obj
 0002:0000afb4       ??_C@_0CJ@GGOE@R6019?$AN?6?9?5unable?5to?5open?5console?5@ 1006cfb4     LIBCMT:crt0msg.obj
 0002:0000afe0       ??_C@_0CB@LBOB@R6018?$AN?6?9?5unexpected?5heap?5error?$AN?6@ 1006cfe0     LIBCMT:crt0msg.obj
 0002:0000b004       ??_C@_0CN@FPEG@R6017?$AN?6?9?5unexpected?5multithread?5@ 1006d004     LIBCMT:crt0msg.obj
 0002:0000b034       ??_C@_0CM@OBIC@R6016?$AN?6?9?5not?5enough?5space?5for?5th@ 1006d034     LIBCMT:crt0msg.obj
 0002:0000b060       ??_C@_0CB@HPAL@?$AN?6abnormal?5program?5termination?$AN?6@ 1006d060     LIBCMT:crt0msg.obj
 0002:0000b084       ??_C@_0CM@JOOB@R6009?$AN?6?9?5not?5enough?5space?5for?5en@ 1006d084     LIBCMT:crt0msg.obj
 0002:0000b0b0       ??_C@_0CK@OIBL@R6008?$AN?6?9?5not?5enough?5space?5for?5ar@ 1006d0b0     LIBCMT:crt0msg.obj
 0002:0000b0dc       ??_C@_0CF@LKPB@R6002?$AN?6?9?5floating?5point?5not?5load@ 1006d0dc     LIBCMT:crt0msg.obj
 0002:0000b104       ??_C@_0CF@JPDF@Microsoft?5Visual?5C?$CL?$CL?5Runtime?5Lib@ 1006d104     LIBCMT:crt0msg.obj
 0002:0000b12c       ??_C@_02JJJH@?6?6?$AA@     1006d12c     LIBCMT:crt0msg.obj
 0002:0000b130       ??_C@_0BK@DEOK@Runtime?5Error?$CB?6?6Program?3?5?$AA@ 1006d130     LIBCMT:crt0msg.obj
 0002:0000b14c       ??_C@_03NAME@?4?4?4?$AA@   1006d14c     LIBCMT:crt0msg.obj
 0002:0000b150       ??_C@_0BH@NNCD@?$DMprogram?5name?5unknown?$DO?$AA@ 1006d150     LIBCMT:crt0msg.obj
 0002:0000b174       ??_C@_08OBJD@Paraguay?$AA@ 1006d174     LIBCMT:getqloc.obj
 0002:0000b180       ??_C@_07GLKH@Uruguay?$AA@  1006d180     LIBCMT:getqloc.obj
 0002:0000b188       ??_C@_05FPFC@Chile?$AA@    1006d188     LIBCMT:getqloc.obj
 0002:0000b190       ??_C@_07IIGF@Ecuador?$AA@  1006d190     LIBCMT:getqloc.obj
 0002:0000b198       ??_C@_09PKAL@Argentina?$AA@ 1006d198     LIBCMT:getqloc.obj
 0002:0000b1a4       ??_C@_04LKAH@Peru?$AA@     1006d1a4     LIBCMT:getqloc.obj
 0002:0000b1ac       ??_C@_08NEEM@Colombia?$AA@ 1006d1ac     LIBCMT:getqloc.obj
 0002:0000b1b8       ??_C@_09ODEB@Venezuela?$AA@ 1006d1b8     LIBCMT:getqloc.obj
 0002:0000b1c4       ??_C@_0BD@CLEL@Dominican?5Republic?$AA@ 1006d1c4     LIBCMT:getqloc.obj
 0002:0000b1d8       ??_C@_0N@MDGL@South?5Africa?$AA@ 1006d1d8     LIBCMT:getqloc.obj
 0002:0000b1e8       ??_C@_06NKBG@Panama?$AA@   1006d1e8     LIBCMT:getqloc.obj
 0002:0000b1f0       ??_C@_0L@BMHO@Luxembourg?$AA@ 1006d1f0     LIBCMT:getqloc.obj
 0002:0000b1fc       ??_C@_0L@IMDK@Costa?5Rica?$AA@ 1006d1fc     LIBCMT:getqloc.obj
 0002:0000b208       ??_C@_0M@BLJF@Switzerland?$AA@ 1006d208     LIBCMT:getqloc.obj
 0002:0000b214       ??_C@_09KBOL@Guatemala?$AA@ 1006d214     LIBCMT:getqloc.obj
 0002:0000b220       ??_C@_06JNAK@Canada?$AA@   1006d220     LIBCMT:getqloc.obj
 0002:0000b228       ??_C@_0BG@OLLP@Spanish?5?9?5Modern?5Sort?$AA@ 1006d228     LIBCMT:getqloc.obj
 0002:0000b240       ??_C@_09IDKE@Australia?$AA@ 1006d240     LIBCMT:getqloc.obj
 0002:0000b24c       ??_C@_07JJJJ@English?$AA@  1006d24c     LIBCMT:getqloc.obj
 0002:0000b254       ??_C@_07NMDO@Austria?$AA@  1006d254     LIBCMT:getqloc.obj
 0002:0000b25c       ??_C@_06DEFE@German?$AA@   1006d25c     LIBCMT:getqloc.obj
 0002:0000b264       ??_C@_07JAIH@Belgium?$AA@  1006d264     LIBCMT:getqloc.obj
 0002:0000b26c       ??_C@_06BNLJ@Mexico?$AA@   1006d26c     LIBCMT:getqloc.obj
 0002:0000b274       ??_C@_07JHAG@Spanish?$AA@  1006d274     LIBCMT:getqloc.obj
 0002:0000b27c       ??_C@_06DADE@Basque?$AA@   1006d27c     LIBCMT:getqloc.obj
 0002:0000b284       ??_C@_06ENFP@Sweden?$AA@   1006d284     LIBCMT:getqloc.obj
 0002:0000b28c       ??_C@_07JPMH@Swedish?$AA@  1006d28c     LIBCMT:getqloc.obj
 0002:0000b294       ??_C@_07IEKF@Iceland?$AA@  1006d294     LIBCMT:getqloc.obj
 0002:0000b29c       ??_C@_09KNEA@Icelandic?$AA@ 1006d29c     LIBCMT:getqloc.obj
 0002:0000b2a8       ??_C@_06IJOD@France?$AA@   1006d2a8     LIBCMT:getqloc.obj
 0002:0000b2b0       ??_C@_06EINI@French?$AA@   1006d2b0     LIBCMT:getqloc.obj
 0002:0000b2b8       ??_C@_07FOOE@Finland?$AA@  1006d2b8     LIBCMT:getqloc.obj
 0002:0000b2c0       ??_C@_07OJOM@Finnish?$AA@  1006d2c0     LIBCMT:getqloc.obj
 0002:0000b2c8       ??_C@_05FFAC@Spain?$AA@    1006d2c8     LIBCMT:getqloc.obj
 0002:0000b2d0       ??_C@_0BL@BIHM@Spanish?5?9?5Traditional?5Sort?$AA@ 1006d2d0     LIBCMT:getqloc.obj
 0002:0000b2ec       ??_C@_0O@GLHB@united?9states?$AA@ 1006d2ec     LIBCMT:getqloc.obj
 0002:0000b2fc       ??_C@_0P@IIKK@united?9kingdom?$AA@ 1006d2fc     LIBCMT:getqloc.obj
 0002:0000b30c       ??_C@_0BC@FHBO@trinidad?5?$CG?5tobago?$AA@ 1006d30c     LIBCMT:getqloc.obj
 0002:0000b320       ??_C@_0M@BDFM@south?9korea?$AA@ 1006d320     LIBCMT:getqloc.obj
 0002:0000b32c       ??_C@_0N@CKFA@south?9africa?$AA@ 1006d32c     LIBCMT:getqloc.obj
 0002:0000b33c       ??_C@_0M@HNHN@south?5korea?$AA@ 1006d33c     LIBCMT:getqloc.obj
 0002:0000b348       ??_C@_0N@MKDO@south?5africa?$AA@ 1006d348     LIBCMT:getqloc.obj
 0002:0000b358       ??_C@_06KFFJ@slovak?$AA@   1006d358     LIBCMT:getqloc.obj
 0002:0000b360       ??_C@_0M@NMAC@puerto?9rico?$AA@ 1006d360     LIBCMT:getqloc.obj
 0002:0000b36c       ??_C@_08EJOH@pr?9china?$AA@ 1006d36c     LIBCMT:getqloc.obj
 0002:0000b378       ??_C@_08CHMG@pr?5china?$AA@ 1006d378     LIBCMT:getqloc.obj
 0002:0000b384       ??_C@_02OCJK@nz?$AA@       1006d384     LIBCMT:getqloc.obj
 0002:0000b388       ??_C@_0M@MMKA@new?9zealand?$AA@ 1006d388     LIBCMT:getqloc.obj
 0002:0000b394       ??_C@_09MGEH@hong?9kong?$AA@ 1006d394     LIBCMT:getqloc.obj
 0002:0000b3a0       ??_C@_07CCAK@holland?$AA@  1006d3a0     LIBCMT:getqloc.obj
 0002:0000b3a8       ??_C@_0O@MEPL@great?5britain?$AA@ 1006d3a8     LIBCMT:getqloc.obj
 0002:0000b3b8       ??_C@_07LGIB@england?$AA@  1006d3b8     LIBCMT:getqloc.obj
 0002:0000b3c0       ??_C@_05BMOA@czech?$AA@    1006d3c0     LIBCMT:getqloc.obj
 0002:0000b3c8       ??_C@_05NMPB@china?$AA@    1006d3c8     LIBCMT:getqloc.obj
 0002:0000b3d0       ??_C@_07GN@britain?$AA@    1006d3d0     LIBCMT:getqloc.obj
 0002:0000b3d8       ??_C@_07DLAK@america?$AA@  1006d3d8     LIBCMT:getqloc.obj
 0002:0000b3e0       ??_C@_03IPEP@usa?$AA@      1006d3e0     LIBCMT:getqloc.obj
 0002:0000b3e4       ??_C@_02PILH@us?$AA@       1006d3e4     LIBCMT:getqloc.obj
 0002:0000b3e8       ??_C@_02FHP@uk?$AA@        1006d3e8     LIBCMT:getqloc.obj
 0002:0000b3ec       ??_C@_05DEAI@swiss?$AA@    1006d3ec     LIBCMT:getqloc.obj
 0002:0000b3f4       ??_C@_0BA@LIAF@swedish?9finland?$AA@ 1006d3f4     LIBCMT:getqloc.obj
 0002:0000b404       ??_C@_0BC@FMEG@spanish?9venezuela?$AA@ 1006d404     LIBCMT:getqloc.obj
 0002:0000b418       ??_C@_0BA@BNMG@spanish?9uruguay?$AA@ 1006d418     LIBCMT:getqloc.obj
 0002:0000b428       ??_C@_0BE@BKDJ@spanish?9puerto?5rico?$AA@ 1006d428     LIBCMT:getqloc.obj
 0002:0000b43c       ??_C@_0N@JIBL@spanish?9peru?$AA@ 1006d43c     LIBCMT:getqloc.obj
 0002:0000b44c       ??_C@_0BB@OGOF@spanish?9paraguay?$AA@ 1006d44c     LIBCMT:getqloc.obj
 0002:0000b460       ??_C@_0P@LLFA@spanish?9panama?$AA@ 1006d460     LIBCMT:getqloc.obj
 0002:0000b470       ??_C@_0BC@BBJM@spanish?9nicaragua?$AA@ 1006d470     LIBCMT:getqloc.obj
 0002:0000b484       ??_C@_0P@NJBN@spanish?9modern?$AA@ 1006d484     LIBCMT:getqloc.obj
 0002:0000b494       ??_C@_0BA@NHDN@spanish?9mexican?$AA@ 1006d494     LIBCMT:getqloc.obj
 0002:0000b4a4       ??_C@_0BB@JHOJ@spanish?9honduras?$AA@ 1006d4a4     LIBCMT:getqloc.obj
 0002:0000b4b8       ??_C@_0BC@BOOM@spanish?9guatemala?$AA@ 1006d4b8     LIBCMT:getqloc.obj
 0002:0000b4cc       ??_C@_0BE@EELI@spanish?9el?5salvador?$AA@ 1006d4cc     LIBCMT:getqloc.obj
 0002:0000b4e0       ??_C@_0BA@POAE@spanish?9ecuador?$AA@ 1006d4e0     LIBCMT:getqloc.obj
 0002:0000b4f0       ??_C@_0BL@LDKN@spanish?9dominican?5republic?$AA@ 1006d4f0     LIBCMT:getqloc.obj
 0002:0000b50c       ??_C@_0BD@HPMH@spanish?9costa?5rica?$AA@ 1006d50c     LIBCMT:getqloc.obj
 0002:0000b520       ??_C@_0BB@NDDK@spanish?9colombia?$AA@ 1006d520     LIBCMT:getqloc.obj
 0002:0000b534       ??_C@_0O@BJHA@spanish?9chile?$AA@ 1006d534     LIBCMT:getqloc.obj
 0002:0000b544       ??_C@_0BA@OBNG@spanish?9bolivia?$AA@ 1006d544     LIBCMT:getqloc.obj
 0002:0000b554       ??_C@_0BC@EFAM@spanish?9argentina?$AA@ 1006d554     LIBCMT:getqloc.obj
 0002:0000b568       ??_C@_0BF@KMMM@portuguese?9brazilian?$AA@ 1006d568     LIBCMT:getqloc.obj
 0002:0000b580       ??_C@_0BC@BAAE@norwegian?9nynorsk?$AA@ 1006d580     LIBCMT:getqloc.obj
 0002:0000b594       ??_C@_0BB@PBHK@norwegian?9bokmal?$AA@ 1006d594     LIBCMT:getqloc.obj
 0002:0000b5a8       ??_C@_09EHKL@norwegian?$AA@ 1006d5a8     LIBCMT:getqloc.obj
 0002:0000b5b4       ??_C@_0O@BEAN@italian?9swiss?$AA@ 1006d5b4     LIBCMT:getqloc.obj
 0002:0000b5c4       ??_C@_0O@OIFK@irish?9english?$AA@ 1006d5c4     LIBCMT:getqloc.obj
 0002:0000b5d4       ??_C@_0N@NBPL@german?9swiss?$AA@ 1006d5d4     LIBCMT:getqloc.obj
 0002:0000b5e4       ??_C@_0BC@ICFJ@german?9luxembourg?$AA@ 1006d5e4     LIBCMT:getqloc.obj
 0002:0000b5f8       ??_C@_0BE@GGPC@german?9lichtenstein?$AA@ 1006d5f8     LIBCMT:getqloc.obj
 0002:0000b60c       ??_C@_0BA@MKDC@german?9austrian?$AA@ 1006d60c     LIBCMT:getqloc.obj
 0002:0000b61c       ??_C@_0N@ODNB@french?9swiss?$AA@ 1006d61c     LIBCMT:getqloc.obj
 0002:0000b62c       ??_C@_0BC@MGCM@french?9luxembourg?$AA@ 1006d62c     LIBCMT:getqloc.obj
 0002:0000b640       ??_C@_0BA@NABK@french?9canadian?$AA@ 1006d640     LIBCMT:getqloc.obj
 0002:0000b650       ??_C@_0P@CJNO@french?9belgian?$AA@ 1006d650     LIBCMT:getqloc.obj
 0002:0000b660       ??_C@_0M@LJOL@english?9usa?$AA@ 1006d660     LIBCMT:getqloc.obj
 0002:0000b66c       ??_C@_0L@FMNC@english?9us?$AA@ 1006d66c     LIBCMT:getqloc.obj
 0002:0000b678       ??_C@_0L@KBBK@english?9uk?$AA@ 1006d678     LIBCMT:getqloc.obj
 0002:0000b684       ??_C@_0BK@NDDE@english?9trinidad?5y?5tobago?$AA@ 1006d684     LIBCMT:getqloc.obj
 0002:0000b6a0       ??_C@_0BF@LKML@english?9south?5africa?$AA@ 1006d6a0     LIBCMT:getqloc.obj
 0002:0000b6b8       ??_C@_0L@EGPP@english?9nz?$AA@ 1006d6b8     LIBCMT:getqloc.obj
 0002:0000b6c4       ??_C@_0BA@HLH@english?9jamaica?$AA@ 1006d6c4     LIBCMT:getqloc.obj
 0002:0000b6d4       ??_C@_0M@PMJI@english?9ire?$AA@ 1006d6d4     LIBCMT:getqloc.obj
 0002:0000b6e0       ??_C@_0BC@HINE@english?9caribbean?$AA@ 1006d6e0     LIBCMT:getqloc.obj
 0002:0000b6f4       ??_C@_0M@DCFH@english?9can?$AA@ 1006d6f4     LIBCMT:getqloc.obj
 0002:0000b700       ??_C@_0P@DGHK@english?9belize?$AA@ 1006d700     LIBCMT:getqloc.obj
 0002:0000b710       ??_C@_0M@FLHK@english?9aus?$AA@ 1006d710     LIBCMT:getqloc.obj
 0002:0000b71c       ??_C@_0BB@HNCK@english?9american?$AA@ 1006d71c     LIBCMT:getqloc.obj
 0002:0000b730       ??_C@_0O@PAMI@dutch?9belgian?$AA@ 1006d730     LIBCMT:getqloc.obj
 0002:0000b740       ??_C@_0BE@FPEJ@chinese?9traditional?$AA@ 1006d740     LIBCMT:getqloc.obj
 0002:0000b754       ??_C@_0BC@CHFL@chinese?9singapore?$AA@ 1006d754     LIBCMT:getqloc.obj
 0002:0000b768       ??_C@_0BD@DCMH@chinese?9simplified?$AA@ 1006d768     LIBCMT:getqloc.obj
 0002:0000b77c       ??_C@_0BB@JMOE@chinese?9hongkong?$AA@ 1006d77c     LIBCMT:getqloc.obj
 0002:0000b790       ??_C@_07NGFN@chinese?$AA@  1006d790     LIBCMT:getqloc.obj
 0002:0000b798       ??_C@_03PCOI@chi?$AA@      1006d798     LIBCMT:getqloc.obj
 0002:0000b79c       ??_C@_03FIHP@chh?$AA@      1006d79c     LIBCMT:getqloc.obj
 0002:0000b7a0       ??_C@_08HFLO@canadian?$AA@ 1006d7a0     LIBCMT:getqloc.obj
 0002:0000b7ac       ??_C@_07INIJ@belgian?$AA@  1006d7ac     LIBCMT:getqloc.obj
 0002:0000b7b4       ??_C@_0L@LCCA@australian?$AA@ 1006d7b4     LIBCMT:getqloc.obj
 0002:0000b7c0       ??_C@_0BB@BJIO@american?9english?$AA@ 1006d7c0     LIBCMT:getqloc.obj
 0002:0000b7d4       ??_C@_0BB@DAGO@american?5english?$AA@ 1006d7d4     LIBCMT:getqloc.obj
 0002:0000b7e8       ??_C@_08HENB@american?$AA@ 1006d7e8     LIBCMT:getqloc.obj
 0002:0000b7f4       ??_C@_03DGJE@OCP?$AA@      1006d7f4     LIBCMT:getqloc.obj
 0002:0000b7f8       ??_C@_03EKFG@ACP?$AA@      1006d7f8     LIBCMT:getqloc.obj
 0002:0000b7fc       ??_C@_0BD@NJFP@GetLastActivePopup?$AA@ 1006d7fc     LIBCMT:crtmbox.obj
 0002:0000b810       ??_C@_0BA@GILI@GetActiveWindow?$AA@ 1006d810     LIBCMT:crtmbox.obj
 0002:0000b820       ??_C@_0M@PKCK@MessageBoxA?$AA@ 1006d820     LIBCMT:crtmbox.obj
 0002:0000b82c       ??_C@_0L@HKL@user32?4dll?$AA@ 1006d82c     LIBCMT:crtmbox.obj
 0002:0000b838       ??_C@_06PAPI@1?$CDQNAN?$AA@ 1006d838     LIBCMT:x10fout.obj
 0002:0000b840       ??_C@_05BGNL@1?$CDINF?$AA@ 1006d840     LIBCMT:x10fout.obj
 0002:0000b848       ??_C@_05EDPF@1?$CDIND?$AA@ 1006d848     LIBCMT:x10fout.obj
 0002:0000b850       ??_C@_06LKFM@1?$CDSNAN?$AA@ 1006d850     LIBCMT:x10fout.obj
 0002:0000b858       ??_C@_03GAFO@_yn?$AA@      1006d858     LIBCMT:fpexcept.obj
 0002:0000b85c       ??_C@_03GNLD@_y1?$AA@      1006d85c     LIBCMT:fpexcept.obj
 0002:0000b860       ??_C@_03MHCE@_y0?$AA@      1006d860     LIBCMT:fpexcept.obj
 0002:0000b864       ??_C@_05PAK@frexp?$AA@     1006d864     LIBCMT:fpexcept.obj
 0002:0000b86c       ??_C@_04JKCH@fmod?$AA@     1006d86c     LIBCMT:fpexcept.obj
 0002:0000b874       ??_C@_06GGHF@_hypot?$AA@   1006d874     LIBCMT:fpexcept.obj
 0002:0000b87c       ??_C@_05JNMC@_cabs?$AA@    1006d87c     LIBCMT:fpexcept.obj
 0002:0000b884       ??_C@_05MEKH@ldexp?$AA@    1006d884     LIBCMT:fpexcept.obj
 0002:0000b88c       ??_C@_04KAOJ@modf?$AA@     1006d88c     LIBCMT:fpexcept.obj
 0002:0000b894       ??_C@_04EHAJ@fabs?$AA@     1006d894     LIBCMT:fpexcept.obj
 0002:0000b89c       ??_C@_05MFBN@floor?$AA@    1006d89c     LIBCMT:fpexcept.obj
 0002:0000b8a4       ??_C@_04JJMP@ceil?$AA@     1006d8a4     LIBCMT:fpexcept.obj
 0002:0000b8ac       ??_C@_03JLPI@tan?$AA@      1006d8ac     LIBCMT:fpexcept.obj
 0002:0000b8b0       ??_C@_03DLFL@cos?$AA@      1006d8b0     LIBCMT:fpexcept.obj
 0002:0000b8b4       ??_C@_03JAMN@sin?$AA@      1006d8b4     LIBCMT:fpexcept.obj
 0002:0000b8b8       ??_C@_04LMBE@sqrt?$AA@     1006d8b8     LIBCMT:fpexcept.obj
 0002:0000b8c0       ??_C@_05BFPO@atan2?$AA@    1006d8c0     LIBCMT:fpexcept.obj
 0002:0000b8c8       ??_C@_04EAGN@atan?$AA@     1006d8c8     LIBCMT:fpexcept.obj
 0002:0000b8d0       ??_C@_04OAMO@acos?$AA@     1006d8d0     LIBCMT:fpexcept.obj
 0002:0000b8d8       ??_C@_04ELFI@asin?$AA@     1006d8d8     LIBCMT:fpexcept.obj
 0002:0000b8e0       ??_C@_04LFAD@tanh?$AA@     1006d8e0     LIBCMT:fpexcept.obj
 0002:0000b8e8       ??_C@_04PFKD@cosh?$AA@     1006d8e8     LIBCMT:fpexcept.obj
 0002:0000b8f0       ??_C@_04NPAI@sinh?$AA@     1006d8f0     LIBCMT:fpexcept.obj
 0002:0000b8f8       ??_C@_05IJHH@log10?$AA@    1006d8f8     LIBCMT:fpexcept.obj
 0002:0000b900       ??_C@_03BGKD@log?$AA@      1006d900     LIBCMT:fpexcept.obj
 0002:0000b904       ??_C@_03EGFG@pow?$AA@      1006d904     LIBCMT:fpexcept.obj
 0002:0000b908       ??_C@_03CDGJ@exp?$AA@      1006d908     LIBCMT:fpexcept.obj
 0002:0000b90c       ??_C@_07CJME@H?3mm?3ss?$AA@ 1006d90c     LIBCMT:strftime.obj
 0002:0000b914       ??_C@_0BE@MHI@dddd?0?5MMMM?5dd?0?5yyyy?$AA@ 1006d914     LIBCMT:strftime.obj
 0002:0000b928       ??_C@_06HCAD@M?1d?1yy?$AA@ 1006d928     LIBCMT:strftime.obj
 0002:0000b930       ??_C@_02DBLP@PM?$AA@       1006d930     LIBCMT:strftime.obj
 0002:0000b934       ??_C@_02ENLM@AM?$AA@       1006d934     LIBCMT:strftime.obj
 0002:0000b938       ??_C@_08LIDF@December?$AA@ 1006d938     LIBCMT:strftime.obj
 0002:0000b944       ??_C@_08NJLI@November?$AA@ 1006d944     LIBCMT:strftime.obj
 0002:0000b950       ??_C@_07IAMM@October?$AA@  1006d950     LIBCMT:strftime.obj
 0002:0000b958       ??_C@_09MKGD@September?$AA@ 1006d958     LIBCMT:strftime.obj
 0002:0000b964       ??_C@_06PADP@August?$AA@   1006d964     LIBCMT:strftime.obj
 0002:0000b96c       ??_C@_04PIJO@July?$AA@     1006d96c     LIBCMT:strftime.obj
 0002:0000b974       ??_C@_04ICFP@June?$AA@     1006d974     LIBCMT:strftime.obj
 0002:0000b97c       ??_C@_05JFGC@April?$AA@    1006d97c     LIBCMT:strftime.obj
 0002:0000b984       ??_C@_05FGPD@March?$AA@    1006d984     LIBCMT:strftime.obj
 0002:0000b98c       ??_C@_08PGBA@February?$AA@ 1006d98c     LIBCMT:strftime.obj
 0002:0000b998       ??_C@_07BPKJ@January?$AA@  1006d998     LIBCMT:strftime.obj
 0002:0000b9a0       ??_C@_03PGJO@Dec?$AA@      1006d9a0     LIBCMT:strftime.obj
 0002:0000b9a4       ??_C@_03PDLM@Nov?$AA@      1006d9a4     LIBCMT:strftime.obj
 0002:0000b9a8       ??_C@_03BLHK@Oct?$AA@      1006d9a8     LIBCMT:strftime.obj
 0002:0000b9ac       ??_C@_03DPFM@Sep?$AA@      1006d9ac     LIBCMT:strftime.obj
 0002:0000b9b0       ??_C@_03CMCH@Aug?$AA@      1006d9b0     LIBCMT:strftime.obj
 0002:0000b9b4       ??_C@_03OBKI@Jul?$AA@      1006d9b4     LIBCMT:strftime.obj
 0002:0000b9b8       ??_C@_03LEIG@Jun?$AA@      1006d9b8     LIBCMT:strftime.obj
 0002:0000b9bc       ??_C@_03MGHB@May?$AA@      1006d9bc     LIBCMT:strftime.obj
 0002:0000b9c0       ??_C@_03MJJM@Apr?$AA@      1006d9c0     LIBCMT:strftime.obj
 0002:0000b9c4       ??_C@_03GNHA@Mar?$AA@      1006d9c4     LIBCMT:strftime.obj
 0002:0000b9c8       ??_C@_03PICE@Feb?$AA@      1006d9c8     LIBCMT:strftime.obj
 0002:0000b9cc       ??_C@_03IEIF@Jan?$AA@      1006d9cc     LIBCMT:strftime.obj
 0002:0000b9d0       ??_C@_08FAKH@Saturday?$AA@ 1006d9d0     LIBCMT:strftime.obj
 0002:0000b9dc       ??_C@_06ONCK@Friday?$AA@   1006d9dc     LIBCMT:strftime.obj
 0002:0000b9e4       ??_C@_08CCFO@Thursday?$AA@ 1006d9e4     LIBCMT:strftime.obj
 0002:0000b9f0       ??_C@_09PBIN@Wednesday?$AA@ 1006d9f0     LIBCMT:strftime.obj
 0002:0000b9fc       ??_C@_07BMBC@Tuesday?$AA@  1006d9fc     LIBCMT:strftime.obj
 0002:0000ba04       ??_C@_06CHLK@Monday?$AA@   1006da04     LIBCMT:strftime.obj
 0002:0000ba0c       ??_C@_06OOEM@Sunday?$AA@   1006da0c     LIBCMT:strftime.obj
 0002:0000ba14       ??_C@_03MPKK@Sat?$AA@      1006da14     LIBCMT:strftime.obj
 0002:0000ba18       ??_C@_03FINJ@Fri?$AA@      1006da18     LIBCMT:strftime.obj
 0002:0000ba1c       ??_C@_03HIKC@Thu?$AA@      1006da1c     LIBCMT:strftime.obj
 0002:0000ba20       ??_C@_03HECK@Wed?$AA@      1006da20     LIBCMT:strftime.obj
 0002:0000ba24       ??_C@_03ECCP@Tue?$AA@      1006da24     LIBCMT:strftime.obj
 0002:0000ba28       ??_C@_03PIEP@Mon?$AA@      1006da28     LIBCMT:strftime.obj
 0002:0000ba2c       ??_C@_03FHEP@Sun?$AA@      1006da2c     LIBCMT:strftime.obj
 0002:0000ba30       ??_C@_03MKGK@a?1p?$AA@     1006da30     LIBCMT:strftime.obj
 0002:0000ba34       ??_C@_05BDJK@am?1pm?$AA@   1006da34     LIBCMT:strftime.obj
 0002:0000ba58       ___dnames                  1006da58     LIBCMT:timeset.obj
 0002:0000ba70       ___mnames                  1006da70     LIBCMT:timeset.obj
 0002:0000ba98       ??_C@_02JHIA@TZ?$AA@       1006da98     LIBCMT:tzset.obj
 0003:00000000       ___xc_a                    10071000     LIBCMT:crt0init.obj
 0003:00000018       ___xc_z                    10071018     LIBCMT:crt0init.obj
 0003:0000001c       ___xi_a                    1007101c     LIBCMT:crt0init.obj
 0003:0000002c       ___xi_z                    1007102c     LIBCMT:crt0init.obj
 0003:00000030       ___xp_a                    10071030     LIBCMT:crt0init.obj
 0003:00000038       ___xp_z                    10071038     LIBCMT:crt0init.obj
 0003:0000003c       ___xt_a                    1007103c     LIBCMT:crt0init.obj
 0003:00000044       ___xt_z                    10071044     LIBCMT:crt0init.obj
 0003:00000050       ?m_SaveData@CAirtank@@0PAUTYPEDESCRIPTION@@A 10071050     airtank.obj
 0003:00000060       ??_C@_07BMME@m_state?$AA@  10071060     airtank.obj
 0003:00000068       ??_C@_08LJNM@CAirtank?$AA@ 10071068     airtank.obj
 0003:00000074       ??_C@_0BE@DOEH@models?1w_oxygen?4mdl?$AA@ 10071074     airtank.obj
 0003:00000088       ??_C@_0BF@NHKL@doors?1aliendoor3?4wav?$AA@ 10071088     airtank.obj
 0003:000000a0       ??_C@_0BE@PCJE@player?1pl_swim2?4wav?$AA@ 100710a0     airtank.obj
 0003:000000b8       ?m_SaveData@CBaseAnimating@@2PAUTYPEDESCRIPTION@@A 100710b8     animating.obj
 0003:00000108       ??_C@_0BB@LNPO@m_fSequenceLoops?$AA@ 10071108     animating.obj
 0003:0000011c       ??_C@_0BE@JDFI@m_fSequenceFinished?$AA@ 1007111c     animating.obj
 0003:00000130       ??_C@_0BD@BBIC@m_flLastEventCheck?$AA@ 10071130     animating.obj
 0003:00000144       ??_C@_0BA@PPMC@m_flGroundSpeed?$AA@ 10071144     animating.obj
 0003:00000154       ??_C@_0O@EEHF@m_flFrameRate?$AA@ 10071154     animating.obj
 0003:00000164       ??_C@_0P@MDDK@CBaseAnimating?$AA@ 10071164     animating.obj
 0003:00000174       ??_C@_0BN@MEKN@Gibbed?5monster?5is?5thinking?$CB?6?$AA@ 10071174     animating.obj
 0003:00000198       ?activity_map@@3PAUactivity_map_t@@A 10071198     animation.obj
 0003:00000400       ??_C@_0BE@CFFC@ACT_FLINCH_RIGHTLEG?$AA@ 10071400     animation.obj
 0003:00000414       ??_C@_0BD@PLMO@ACT_FLINCH_LEFTLEG?$AA@ 10071414     animation.obj
 0003:00000428       ??_C@_0BE@KFMB@ACT_FLINCH_RIGHTARM?$AA@ 10071428     animation.obj
 0003:0000043c       ??_C@_0BD@HLFN@ACT_FLINCH_LEFTARM?$AA@ 1007143c     animation.obj
 0003:00000450       ??_C@_0BD@GHME@ACT_FLINCH_STOMACH?$AA@ 10071450     animation.obj
 0003:00000464       ??_C@_0BB@DJCH@ACT_FLINCH_CHEST?$AA@ 10071464     animation.obj
 0003:00000478       ??_C@_0BA@KCMH@ACT_FLINCH_HEAD?$AA@ 10071478     animation.obj
 0003:00000488       ??_C@_0BB@KIMF@ACT_DIE_BACKSHOT?$AA@ 10071488     animation.obj
 0003:0000049c       ??_C@_0BA@IIOA@ACT_DIE_GUTSHOT?$AA@ 1007149c     animation.obj
 0003:000004ac       ??_C@_0BC@EHPG@ACT_DIE_CHESTSHOT?$AA@ 100714ac     animation.obj
 0003:000004c0       ??_C@_0BB@IJCK@ACT_DIE_HEADSHOT?$AA@ 100714c0     animation.obj
 0003:000004d4       ??_C@_0BC@OLLI@ACT_VICTORY_DANCE?$AA@ 100714d4     animation.obj
 0003:000004e8       ??_C@_0P@FNPL@ACT_RUN_SCARED?$AA@ 100714e8     animation.obj
 0003:000004f8       ??_C@_0BA@KKFK@ACT_WALK_SCARED?$AA@ 100714f8     animation.obj
 0003:00000508       ??_C@_0BA@MCPA@ACT_COMBAT_IDLE?$AA@ 10071508     animation.obj
 0003:00000518       ??_C@_0BE@EFBD@ACT_SPECIAL_ATTACK2?$AA@ 10071518     animation.obj
 0003:0000052c       ??_C@_0BE@LKKK@ACT_SPECIAL_ATTACK1?$AA@ 1007152c     animation.obj
 0003:00000540       ??_C@_0M@LPIN@ACT_EXCITED?$AA@ 10071540     animation.obj
 0003:0000054c       ??_C@_0BB@GAPB@ACT_FEAR_DISPLAY?$AA@ 1007154c     animation.obj
 0003:00000560       ??_C@_0BD@NHBG@ACT_THREAT_DISPLAY?$AA@ 10071560     animation.obj
 0003:00000574       ??_C@_08PNIC@ACT_BITE?$AA@ 10071574     animation.obj
 0003:00000580       ??_C@_09IION@ACT_SNIFF?$AA@ 10071580     animation.obj
 0003:0000058c       ??_C@_0BB@MJAI@ACT_DETECT_SCENT?$AA@ 1007158c     animation.obj
 0003:000005a0       ??_C@_0O@DMDJ@ACT_FLY_RIGHT?$AA@ 100715a0     animation.obj
 0003:000005b0       ??_C@_0N@OMAB@ACT_FLY_LEFT?$AA@ 100715b0     animation.obj
 0003:000005c0       ??_C@_09JCGF@ACT_GLIDE?$AA@ 100715c0     animation.obj
 0003:000005cc       ??_C@_09HJMC@ACT_HOVER?$AA@ 100715cc     animation.obj
 0003:000005d8       ??_C@_0N@MLHD@ACT_RUN_HURT?$AA@ 100715d8     animation.obj
 0003:000005e8       ??_C@_0O@PBCP@ACT_WALK_HURT?$AA@ 100715e8     animation.obj
 0003:000005f8       ??_C@_0P@FPPM@ACT_IDLE_ANGRY?$AA@ 100715f8     animation.obj
 0003:00000608       ??_C@_0BB@NPC@ACT_INSPECT_WALL?$AA@ 10071608     animation.obj
 0003:0000061c       ??_C@_0BC@HBKN@ACT_INSPECT_FLOOR?$AA@ 1007161c     animation.obj
 0003:00000630       ??_C@_09HHFL@ACT_SLEEP?$AA@ 10071630     animation.obj
 0003:0000063c       ??_C@_0BC@DCMK@ACT_BARNACLE_CHEW?$AA@ 1007163c     animation.obj
 0003:00000650       ??_C@_0BD@LC@ACT_BARNACLE_CHOMP?$AA@ 10071650     animation.obj
 0003:00000664       ??_C@_0BC@CAB@ACT_BARNACLE_PULL?$AA@ 10071664     animation.obj
 0003:00000678       ??_C@_0BB@OMIO@ACT_BARNACLE_HIT?$AA@ 10071678     animation.obj
 0003:0000068c       ??_C@_0P@CCI@ACT_DIEVIOLENT?$AA@ 1007168c     animation.obj
 0003:0000069c       ??_C@_0P@MBEH@ACT_DIEFORWARD?$AA@ 1007169c     animation.obj
 0003:000006ac       ??_C@_0BA@ONLF@ACT_DIEBACKWARD?$AA@ 100716ac     animation.obj
 0003:000006bc       ??_C@_0O@LMAD@ACT_DIESIMPLE?$AA@ 100716bc     animation.obj
 0003:000006cc       ??_C@_07ICAP@ACT_EAT?$AA@  100716cc     animation.obj
 0003:000006d4       ??_C@_0L@MANE@ACT_DISARM?$AA@ 100716d4     animation.obj
 0003:000006e0       ??_C@_07MMFM@ACT_ARM?$AA@  100716e0     animation.obj
 0003:000006e8       ??_C@_0L@DABN@ACT_RELOAD?$AA@ 100716e8     animation.obj
 0003:000006f4       ??_C@_0BC@OIBM@ACT_MELEE_ATTACK2?$AA@ 100716f4     animation.obj
 0003:00000708       ??_C@_0BC@BHKF@ACT_MELEE_ATTACK1?$AA@ 10071708     animation.obj
 0003:0000071c       ??_C@_0BC@LOJN@ACT_RANGE_ATTACK2?$AA@ 1007171c     animation.obj
 0003:00000730       ??_C@_0BC@EBCE@ACT_RANGE_ATTACK1?$AA@ 10071730     animation.obj
 0003:00000744       ??_C@_0P@DFJK@ACT_BIG_FLINCH?$AA@ 10071744     animation.obj
 0003:00000754       ??_C@_0BB@MJFP@ACT_SMALL_FLINCH?$AA@ 10071754     animation.obj
 0003:00000768       ??_C@_09MKJB@ACT_COWER?$AA@ 10071768     animation.obj
 0003:00000774       ??_C@_0L@CLIN@ACT_TWITCH?$AA@ 10071774     animation.obj
 0003:00000780       ??_C@_0M@JHEO@ACT_SIGNAL3?$AA@ 10071780     animation.obj
 0003:0000078c       ??_C@_0M@DNNJ@ACT_SIGNAL2?$AA@ 1007178c     animation.obj
 0003:00000798       ??_C@_0M@MCGA@ACT_SIGNAL1?$AA@ 10071798     animation.obj
 0003:000007a4       ??_C@_07OHHO@ACT_USE?$AA@  100717a4     animation.obj
 0003:000007ac       ??_C@_09MNDH@ACT_STAND?$AA@ 100717ac     animation.obj
 0003:000007b8       ??_C@_0P@FFOO@ACT_CROUCHIDLE?$AA@ 100717b8     animation.obj
 0003:000007c8       ??_C@_0L@DEKF@ACT_CROUCH?$AA@ 100717c8     animation.obj
 0003:000007d4       ??_C@_0P@EBPN@ACT_TURN_RIGHT?$AA@ 100717d4     animation.obj
 0003:000007e4       ??_C@_0O@CICP@ACT_TURN_LEFT?$AA@ 100717e4     animation.obj
 0003:000007f4       ??_C@_0P@PNHC@ACT_ROLL_RIGHT?$AA@ 100717f4     animation.obj
 0003:00000804       ??_C@_0O@KHJF@ACT_ROLL_LEFT?$AA@ 10071804     animation.obj
 0003:00000814       ??_C@_0BB@MBHD@ACT_STRAFE_RIGHT?$AA@ 10071814     animation.obj
 0003:00000828       ??_C@_0BA@KGJE@ACT_STRAFE_LEFT?$AA@ 10071828     animation.obj
 0003:00000838       ??_C@_08MAHE@ACT_LAND?$AA@ 10071838     animation.obj
 0003:00000844       ??_C@_08NJKN@ACT_FALL?$AA@ 10071844     animation.obj
 0003:00000850       ??_C@_08FPAD@ACT_LEAP?$AA@ 10071850     animation.obj
 0003:0000085c       ??_C@_07GAAB@ACT_HOP?$AA@  1007185c     animation.obj
 0003:00000864       ??_C@_08BHBM@ACT_SWIM?$AA@ 10071864     animation.obj
 0003:00000870       ??_C@_07NJBD@ACT_FLY?$AA@  10071870     animation.obj
 0003:00000878       ??_C@_07IFOB@ACT_RUN?$AA@  10071878     animation.obj
 0003:00000880       ??_C@_08PMDL@ACT_WALK?$AA@ 10071880     animation.obj
 0003:0000088c       ??_C@_09OPPC@ACT_GUARD?$AA@ 1007188c     animation.obj
 0003:00000898       ??_C@_08ONOA@ACT_IDLE?$AA@ 10071898     animation.obj
 0003:000008a4       ??_C@_0CM@MHFB@GetEyePosition?$CI?$CJ?5Can?8t?5get?5pstud@ 100718a4     animation.obj
 0003:000008d0       ??_C@_0DJ@PPBE@Bad?5sound?5event?5?$CFd?5in?5sequence?5?$CF@ 100718d0     animation.obj
 0003:0000090c       ??_C@_0BK@DMEH@error?5in?5transition?5graph?$AA@ 1007190c     animation.obj
 0003:00000928       ?m_SaveData@CFuncRotating@@2PAUTYPEDESCRIPTION@@A 10071928     bmodels.obj
 0003:00000978       ?m_SaveData@CPendulum@@2PAUTYPEDESCRIPTION@@A 10071978     bmodels.obj
 0003:000009f8       ??_C@_07GINM@m_start?$AA@  100719f8     bmodels.obj
 0003:00000a00       ??_C@_08EDO@m_center?$AA@  10071a00     bmodels.obj
 0003:00000a0c       ??_C@_0M@ENNH@m_dampSpeed?$AA@ 10071a0c     bmodels.obj
 0003:00000a18       ??_C@_0L@ILNC@m_maxSpeed?$AA@ 10071a18     bmodels.obj
 0003:00000a24       ??_C@_06POOI@m_damp?$AA@   10071a24     bmodels.obj
 0003:00000a2c       ??_C@_06JCMH@m_time?$AA@   10071a2c     bmodels.obj
 0003:00000a34       ??_C@_0L@EKAB@m_distance?$AA@ 10071a34     bmodels.obj
 0003:00000a40       ??_C@_07NHEF@m_accel?$AA@  10071a40     bmodels.obj
 0003:00000a48       ??_C@_08KGNE@m_sounds?$AA@ 10071a48     bmodels.obj
 0003:00000a54       ??_C@_07FHKJ@m_pitch?$AA@  10071a54     bmodels.obj
 0003:00000a5c       ??_C@_0L@MFGO@m_flVolume?$AA@ 10071a5c     bmodels.obj
 0003:00000a68       ??_C@_0BA@PLK@m_flAttenuation?$AA@ 10071a68     bmodels.obj
 0003:00000a78       ??_C@_0BA@HPGA@m_flFanFriction?$AA@ 10071a78     bmodels.obj
 0003:00000a88       ??_C@_04OFAC@skin?$AA@     10071a88     bmodels.obj
 0003:00000a90       ??_C@_0N@MGGI@showtriggers?$AA@ 10071a90     bmodels.obj
 0003:00000aa0       ??_C@_0O@OFPB@CFuncRotating?$AA@ 10071aa0     bmodels.obj
 0003:00000ab0       ??_C@_06HADE@sounds?$AA@   10071ab0     bmodels.obj
 0003:00000ab8       ??_C@_0M@MGPD@spawnorigin?$AA@ 10071ab8     bmodels.obj
 0003:00000ac4       ??_C@_06OPOL@Volume?$AA@   10071ac4     bmodels.obj
 0003:00000acc       ??_C@_0M@PGKA@fanfriction?$AA@ 10071acc     bmodels.obj
 0003:00000ad8       ??_C@_0BA@LNFJ@common?1null?4wav?$AA@ 10071ad8     bmodels.obj
 0003:00000ae8       ??_C@_0O@JAIP@fans?1fan5?4wav?$AA@ 10071ae8     bmodels.obj
 0003:00000af8       ??_C@_0O@DAKK@fans?1fan4?4wav?$AA@ 10071af8     bmodels.obj
 0003:00000b08       ??_C@_0O@FAFA@fans?1fan3?4wav?$AA@ 10071b08     bmodels.obj
 0003:00000b18       ??_C@_0O@PAHF@fans?1fan2?4wav?$AA@ 10071b18     bmodels.obj
 0003:00000b28       ??_C@_0O@BABK@fans?1fan1?4wav?$AA@ 10071b28     bmodels.obj
 0003:00000b38       ??_C@_09MBEG@CPendulum?$AA@ 10071b38     bmodels.obj
 0003:00000b44       ??_C@_04CGBF@damp?$AA@     10071b44     bmodels.obj
 0003:00000b4c       ??_C@_08GHDD@distance?$AA@ 10071b4c     bmodels.obj
 0003:00000b58       ??_C@_0O@LOEB@Not?5a?5client?6?$AA@ 10071b58     bmodels.obj
 0003:00000b68       ?m_SaveData@CEnvGlobal@@2PAUTYPEDESCRIPTION@@A 10071b68     buttons.obj
 0003:00000b98       ?m_SaveData@CMultiSource@@2PAUTYPEDESCRIPTION@@A 10071b98     buttons.obj
 0003:00000bd8       ?m_SaveData@CBaseButton@@2PAUTYPEDESCRIPTION@@A 10071bd8     buttons.obj
 0003:00000c58       ?m_SaveData@CMomentaryRotButton@@2PAUTYPEDESCRIPTION@@A 10071c58     buttons.obj
 0003:00000cb8       ?m_SaveData@CEnvSpark@@2PAUTYPEDESCRIPTION@@A 10071cb8     buttons.obj
 0003:00000cc8       ??_C@_09JEFF@m_flDelay?$AA@ 10071cc8     buttons.obj
 0003:00000cd4       ??_C@_05MAPN@m_end?$AA@    10071cd4     buttons.obj
 0003:00000cdc       ??_C@_0O@DKLE@m_returnSpeed?$AA@ 10071cdc     buttons.obj
 0003:00000cec       ??_C@_0M@BDFB@m_direction?$AA@ 10071cec     buttons.obj
 0003:00000cf8       ??_C@_0L@GDAI@m_lastUsed?$AA@ 10071cf8     buttons.obj
 0003:00000d04       ??_C@_0BC@GNHM@m_strChangeTarget?$AA@ 10071d04     buttons.obj
 0003:00000d18       ??_C@_0BE@LOMA@m_bUnlockedSentence?$AA@ 10071d18     buttons.obj
 0003:00000d2c       ??_C@_0BB@JGCF@m_bUnlockedSound?$AA@ 10071d2c     buttons.obj
 0003:00000d40       ??_C@_0BC@NOBM@m_bLockedSentence?$AA@ 10071d40     buttons.obj
 0003:00000d54       ??_C@_0P@GPPJ@m_bLockedSound?$AA@ 10071d54     buttons.obj
 0003:00000d64       ??_C@_0M@OHKE@m_fRotating?$AA@ 10071d64     buttons.obj
 0003:00000d70       ??_C@_0O@KGGK@m_fStayPushed?$AA@ 10071d70     buttons.obj
 0003:00000d80       ??_C@_08FJOH@m_iTotal?$AA@ 10071d80     buttons.obj
 0003:00000d8c       ??_C@_0O@LOEO@m_rgTriggered?$AA@ 10071d8c     buttons.obj
 0003:00000d9c       ??_C@_0N@JFJJ@m_rgEntities?$AA@ 10071d9c     buttons.obj
 0003:00000dac       ??_C@_0P@NLGK@m_initialstate?$AA@ 10071dac     buttons.obj
 0003:00000dbc       ??_C@_0O@HEBJ@m_triggermode?$AA@ 10071dbc     buttons.obj
 0003:00000dcc       ??_C@_0O@JHJL@m_globalstate?$AA@ 10071dcc     buttons.obj
 0003:00000ddc       ??_C@_0L@JOKC@CEnvGlobal?$AA@ 10071ddc     buttons.obj
 0003:00000de8       ??_C@_0N@JGEJ@initialstate?$AA@ 10071de8     buttons.obj
 0003:00000df8       ??_C@_0M@FHKB@triggermode?$AA@ 10071df8     buttons.obj
 0003:00000e04       ??_C@_0M@LECD@globalstate?$AA@ 10071e04     buttons.obj
 0003:00000e10       ??_C@_0N@HENL@CMultiSource?$AA@ 10071e10     buttons.obj
 0003:00000e20       ??_C@_06NMIM@value3?$AA@   10071e20     buttons.obj
 0003:00000e28       ??_C@_06HGBL@value2?$AA@   10071e28     buttons.obj
 0003:00000e30       ??_C@_06IJKC@value1?$AA@   10071e30     buttons.obj
 0003:00000e38       ??_C@_0L@BJOF@killtarget?$AA@ 10071e38     buttons.obj
 0003:00000e44       ??_C@_06OKPG@height?$AA@   10071e44     buttons.obj
 0003:00000e4c       ??_C@_05JCDO@style?$AA@    10071e4c     buttons.obj
 0003:00000e54       ??_C@_0CE@GBFN@Multisource?5?$CFs?5enabled?5?$CI?$CFd?5input@ 10071e54     buttons.obj
 0003:00000e78       ??_C@_0CB@LIMD@MultiSrc?3Used?5by?5non?5member?5?$CFs?4?6@ 10071e78     buttons.obj
 0003:00000e9c       ??_C@_09JDJH@classname?$AA@ 10071e9c     buttons.obj
 0003:00000ea8       ??_C@_0O@FODH@multi_manager?$AA@ 10071ea8     buttons.obj
 0003:00000eb8       ??_C@_06CCPD@target?$AA@   10071eb8     buttons.obj
 0003:00000ec0       ??_C@_0M@NGGN@CBaseButton?$AA@ 10071ec0     buttons.obj
 0003:00000ecc       ??_C@_02BHNN@EH?$AA@       10071ecc     buttons.obj
 0003:00000ed0       ??_C@_04OHKA@ECON?$AA@     10071ed0     buttons.obj
 0003:00000ed8       ??_C@_04FHOB@ERAD?$AA@     10071ed8     buttons.obj
 0003:00000ee0       ??_C@_05BAJO@ECHEM?$AA@    10071ee0     buttons.obj
 0003:00000ee8       ??_C@_05KNNG@EFIRE?$AA@    10071ee8     buttons.obj
 0003:00000ef0       ??_C@_02LMBH@EF?$AA@       10071ef0     buttons.obj
 0003:00000ef4       ??_C@_02OJDJ@ED?$AA@       10071ef4     buttons.obj
 0003:00000ef8       ??_C@_02OJPC@EA?$AA@       10071ef8     buttons.obj
 0003:00000efc       ??_C@_02JICL@NG?$AA@       10071efc     buttons.obj
 0003:00000f00       ??_C@_02JJHG@NH?$AA@       10071f00     buttons.obj
 0003:00000f04       ??_C@_04KCMG@NCON?$AA@     10071f04     buttons.obj
 0003:00000f0c       ??_C@_04BCIH@NRAD?$AA@     10071f0c     buttons.obj
 0003:00000f14       ??_C@_05PBNL@NCHEM?$AA@    10071f14     buttons.obj
 0003:00000f1c       ??_C@_05EMJD@NFIRE?$AA@    10071f1c     buttons.obj
 0003:00000f24       ??_C@_02DCLM@NF?$AA@       10071f24     buttons.obj
 0003:00000f28       ??_C@_02GHJC@ND?$AA@       10071f28     buttons.obj
 0003:00000f2c       ??_C@_02GHFJ@NA?$AA@       10071f2c     buttons.obj
 0003:00000f30       ??_C@_0BD@INCL@buttons?1spark6?4wav?$AA@ 10071f30     buttons.obj
 0003:00000f44       ??_C@_0BD@GNEE@buttons?1spark5?4wav?$AA@ 10071f44     buttons.obj
 0003:00000f58       ??_C@_0BD@MNGB@buttons?1spark4?4wav?$AA@ 10071f58     buttons.obj
 0003:00000f6c       ??_C@_0BD@KNJL@buttons?1spark3?4wav?$AA@ 10071f6c     buttons.obj
 0003:00000f80       ??_C@_0BD@NLO@buttons?1spark2?4wav?$AA@ 10071f80     buttons.obj
 0003:00000f94       ??_C@_0BD@ONNB@buttons?1spark1?4wav?$AA@ 10071f94     buttons.obj
 0003:00000fa8       ??_C@_0BC@HBHD@unlocked_sentence?$AA@ 10071fa8     buttons.obj
 0003:00000fbc       ??_C@_0P@BKDI@unlocked_sound?$AA@ 10071fbc     buttons.obj
 0003:00000fcc       ??_C@_0BA@BJOH@locked_sentence?$AA@ 10071fcc     buttons.obj
 0003:00000fdc       ??_C@_0N@DKII@locked_sound?$AA@ 10071fdc     buttons.obj
 0003:00000fec       ??_C@_0N@CDAP@changetarget?$AA@ 10071fec     buttons.obj
 0003:00000ffc       ??_C@_0BE@GGO@buttons?1button9?4wav?$AA@ 10071ffc     buttons.obj
 0003:00001010       ??_C@_0BD@JHOG@buttons?1lever5?4wav?$AA@ 10072010     buttons.obj
 0003:00001024       ??_C@_0BD@DHMD@buttons?1lever4?4wav?$AA@ 10072024     buttons.obj
 0003:00001038       ??_C@_0BD@FHDJ@buttons?1lever3?4wav?$AA@ 10072038     buttons.obj
 0003:0000104c       ??_C@_0BD@PHBM@buttons?1lever2?4wav?$AA@ 1007204c     buttons.obj
 0003:00001060       ??_C@_0BD@BHHD@buttons?1lever1?4wav?$AA@ 10072060     buttons.obj
 0003:00001074       ??_C@_0BJ@HKMK@buttons?1lightswitch2?4wav?$AA@ 10072074     buttons.obj
 0003:00001090       ??_C@_0BL@LEDH@buttons?1latchunlocked1?4wav?$AA@ 10072090     buttons.obj
 0003:000010ac       ??_C@_0BJ@EOKP@buttons?1latchlocked1?4wav?$AA@ 100720ac     buttons.obj
 0003:000010c8       ??_C@_0BF@CGCH@buttons?1button11?4wav?$AA@ 100720c8     buttons.obj
 0003:000010e0       ??_C@_0BF@IGAC@buttons?1button10?4wav?$AA@ 100720e0     buttons.obj
 0003:000010f8       ??_C@_0BE@KGEL@buttons?1button8?4wav?$AA@ 100720f8     buttons.obj
 0003:0000110c       ??_C@_0BE@MHJL@buttons?1button7?4wav?$AA@ 1007210c     buttons.obj
 0003:00001120       ??_C@_0BE@GHLO@buttons?1button6?4wav?$AA@ 10072120     buttons.obj
 0003:00001134       ??_C@_0BE@IHNB@buttons?1button5?4wav?$AA@ 10072134     buttons.obj
 0003:00001148       ??_C@_0BE@CHPE@buttons?1button4?4wav?$AA@ 10072148     buttons.obj
 0003:0000115c       ??_C@_0BE@EHAO@buttons?1button3?4wav?$AA@ 1007215c     buttons.obj
 0003:00001170       ??_C@_0BE@OHCL@buttons?1button2?4wav?$AA@ 10072170     buttons.obj
 0003:00001184       ??_C@_0BE@HEE@buttons?1button1?4wav?$AA@ 10072184     buttons.obj
 0003:00001198       ??_C@_06MNOE@player?$AA@   10072198     buttons.obj
 0003:000011a0       ??_C@_0M@FNLL@multisource?$AA@ 100721a0     buttons.obj
 0003:000011ac       ??_C@_0L@PMO@targetname?$AA@ 100721ac     buttons.obj
 0003:000011b8       ??_C@_0BE@FALH@CMomentaryRotButton?$AA@ 100721b8     buttons.obj
 0003:000011cc       ??_C@_0M@BNKG@returnspeed?$AA@ 100721cc     buttons.obj
 0003:000011d8       ??_C@_0BF@GEEH@momentary_rot_button?$AA@ 100721d8     buttons.obj
 0003:000011f0       ??_C@_09BJOK@CEnvSpark?$AA@ 100721f0     buttons.obj
 0003:000011fc       ??_C@_08EBKM@MaxDelay?$AA@ 100721fc     buttons.obj
 0003:00001288       ?m_SaveData@CBaseEntity@@2PAUTYPEDESCRIPTION@@A 10072288     cbase.obj
 0003:000012d8       ??_C@_0N@IDE@m_pfnBlocked?$AA@ 100722d8     cbase.obj
 0003:000012e8       ??_C@_08PBLD@m_pfnUse?$AA@ 100722e8     cbase.obj
 0003:000012f4       ??_C@_0L@IDHF@m_pfnTouch?$AA@ 100722f4     cbase.obj
 0003:00001300       ??_C@_0L@IGKD@m_pfnThink?$AA@ 10072300     cbase.obj
 0003:0000130c       ??_C@_0L@GODC@m_pGoalEnt?$AA@ 1007230c     cbase.obj
 0003:00001318       ??_C@_0CB@JHCH@Dormant?5entity?5?$CFs?5is?5thinking?$CB?$CB?6@ 10072318     cbase.obj
 0003:0000133c       ??_C@_0CE@KHBN@ENTITY?5TABLE?5OR?5INDEX?5IS?5WRONG?$CB?$CB@ 1007233c     cbase.obj
 0003:00001360       ??_C@_0CI@LD@Global?5entity?5found?5?$CFs?0?5wrong?5cl@ 10072360     cbase.obj
 0003:00001388       ??_C@_0L@NALA@globalname?$AA@ 10072388     cbase.obj
 0003:00001394       ??_C@_0CH@ENPD@Global?5Entity?5?$CFs?5?$CI?$CFs?$CJ?5not?5in?5tab@ 10072394     cbase.obj
 0003:000013bc       ??_C@_07BFFD@ENTVARS?$AA@  100723bc     cbase.obj
 0003:000013c4       ??_C@_04JHGF@BASE?$AA@     100723c4     cbase.obj
 0003:000013cc       ??_C@_0BF@DLND@NULL?5Ent?5in?5Create?$CB?6?$AA@ 100723cc     cbase.obj
 0003:000013e4       ??_C@_0BC@DMHA@models?1player?4mdl?$AA@ 100723e4     client.obj
 0003:000013f8       ??_C@_0BI@DGKA@?9?5?$CFs?5has?5left?5the?5game?6?$AA@ 100723f8     client.obj
 0003:00001410       ??_C@_07MPIK@reload?6?$AA@ 10072410     client.obj
 0003:00001418       ??_C@_01BJG@?6?$AA@        10072418     client.obj
 0003:0000141c       ??_C@_06OFNJ@?$CFc?$CFs?3?5?$AA@ 1007241c     client.obj
 0003:00001424       ??_C@_0O@NGBO@?$CFc?$CITEAM?$CJ?5?$CFs?3?5?$AA@ 10072424     client.obj
 0003:00001434       ??_C@_02DILL@?$CFs?$AA@    10072434     client.obj
 0003:00001438       ??_C@_05JKGE@?$CFs?5?$CFs?$AA@ 10072438     client.obj
 0003:00001440       ??_C@_08PAEI@say_team?$AA@ 10072440     client.obj
 0003:0000144c       ??_C@_03NJAM@say?$AA@      1007244c     client.obj
 0003:00001450       ??_C@_0BF@IECC@Unknown?5command?3?5?$CFs?6?$AA@ 10072450     client.obj
 0003:00001468       ??_C@_07DIEC@lastinv?$AA@  10072468     client.obj
 0003:00001470       ??_C@_07BHGE@weapon_?$AA@  10072470     client.obj
 0003:00001478       ??_C@_03CFBD@use?$AA@      10072478     client.obj
 0003:0000147c       ??_C@_0P@IPBG@?$CCfov?$CC?5is?5?$CC?$CFd?$CC?6?$AA@ 1007247c     client.obj
 0003:0000148c       ??_C@_03CBNM@fov?$AA@      1007248c     client.obj
 0003:00001490       ??_C@_04NMBB@drop?$AA@     10072490     client.obj
 0003:00001498       ??_C@_04JEOP@give?$AA@     10072498     client.obj
 0003:000014a0       ??_C@_0CD@GLID@?$CC?$CFs?$DM?$CFi?$DO?$CC?5changed?5name?5to?5?$CC?$CFs?$DM?$CFi?$DO@ 100724a0     client.obj
 0003:000014c4       ??_C@_0BJ@POAB@?$CK?5?$CFs?5changed?5name?5to?5?$CFs?6?$AA@ 100724c4     client.obj
 0003:000014e0       ??_C@_04OPJK@name?$AA@     100724e0     client.obj
 0003:000014e8       ??_C@_0BD@KJPN@Can?8t?5instance?5?$CFs?6?$AA@ 100724e8     client.obj
 0003:000014fc       ??_C@_05MIHE@skill?$AA@    100724fc     client.obj
 0003:00001504       ??_C@_08FHKG@teamplay?$AA@ 10072504     client.obj
 0003:00001510       ??_C@_0BE@HADJ@monster_human_grunt?$AA@ 10072510     client.obj
 0003:00001524       ??_C@_0BD@CCAJ@player?1geiger1?4wav?$AA@ 10072524     client.obj
 0003:00001538       ??_C@_0BD@MCGG@player?1geiger2?4wav?$AA@ 10072538     client.obj
 0003:0000154c       ??_C@_0BD@GCED@player?1geiger3?4wav?$AA@ 1007254c     client.obj
 0003:00001560       ??_C@_0BD@CLJ@player?1geiger4?4wav?$AA@ 10072560     client.obj
 0003:00001574       ??_C@_0BD@KCJM@player?1geiger5?4wav?$AA@ 10072574     client.obj
 0003:00001588       ??_C@_0BD@ECPD@player?1geiger6?4wav?$AA@ 10072588     client.obj
 0003:0000159c       ??_C@_0BK@KHAC@common?1wpn_denyselect?4wav?$AA@ 1007259c     client.obj
 0003:000015b8       ??_C@_0BG@MCNG@common?1wpn_select?4wav?$AA@ 100725b8     client.obj
 0003:000015d0       ??_C@_0BK@MLCN@common?1wpn_moveselect?4wav?$AA@ 100725d0     client.obj
 0003:000015ec       ??_C@_0BF@DDKC@common?1wpn_hudon?4wav?$AA@ 100725ec     client.obj
 0003:00001604       ??_C@_0BG@BNOJ@common?1wpn_hudoff?4wav?$AA@ 10072604     client.obj
 0003:0000161c       ??_C@_0BE@BIBC@player?1pl_pain7?4wav?$AA@ 1007261c     client.obj
 0003:00001630       ??_C@_0BE@LIDH@player?1pl_pain6?4wav?$AA@ 10072630     client.obj
 0003:00001644       ??_C@_0BE@FIFI@player?1pl_pain5?4wav?$AA@ 10072644     client.obj
 0003:00001658       ??_C@_0BE@PIHN@player?1pl_pain4?4wav?$AA@ 10072658     client.obj
 0003:0000166c       ??_C@_0BE@DIKC@player?1pl_pain2?4wav?$AA@ 1007266c     client.obj
 0003:00001680       ??_C@_0BF@CHLM@common?1bodysplat?4wav?$AA@ 10072680     client.obj
 0003:00001698       ??_C@_0BG@BKIG@items?1flashlight1?4wav?$AA@ 10072698     client.obj
 0003:000016b0       ??_C@_0BC@NODO@debris?1glass3?4wav?$AA@ 100726b0     client.obj
 0003:000016c4       ??_C@_0BC@HOBL@debris?1glass2?4wav?$AA@ 100726c4     client.obj
 0003:000016d8       ??_C@_0BC@JOHE@debris?1glass1?4wav?$AA@ 100726d8     client.obj
 0003:000016ec       ??_C@_0BF@HOEM@plats?1train_use1?4wav?$AA@ 100726ec     client.obj
 0003:00001704       ??_C@_0BB@IAOM@debris?1wood3?4wav?$AA@ 10072704     client.obj
 0003:00001718       ??_C@_0BB@CAMJ@debris?1wood2?4wav?$AA@ 10072718     client.obj
 0003:0000172c       ??_C@_0BB@MAKG@debris?1wood1?4wav?$AA@ 1007272c     client.obj
 0003:00001740       ??_C@_0BE@EEAK@player?1pl_wade4?4wav?$AA@ 10072740     client.obj
 0003:00001754       ??_C@_0BE@CEPA@player?1pl_wade3?4wav?$AA@ 10072754     client.obj
 0003:00001768       ??_C@_0BE@IENF@player?1pl_wade2?4wav?$AA@ 10072768     client.obj
 0003:0000177c       ??_C@_0BE@GELK@player?1pl_wade1?4wav?$AA@ 1007277c     client.obj
 0003:00001790       ??_C@_0BG@LJGA@player?1pl_ladder4?4wav?$AA@ 10072790     client.obj
 0003:000017a8       ??_C@_0BG@NJJK@player?1pl_ladder3?4wav?$AA@ 100727a8     client.obj
 0003:000017c0       ??_C@_0BG@HJLP@player?1pl_ladder2?4wav?$AA@ 100727c0     client.obj
 0003:000017d8       ??_C@_0BG@JJNA@player?1pl_ladder1?4wav?$AA@ 100727d8     client.obj
 0003:000017f0       ??_C@_0BE@DCEL@player?1pl_swim4?4wav?$AA@ 100727f0     client.obj
 0003:00001804       ??_C@_0BE@FCLB@player?1pl_swim3?4wav?$AA@ 10072804     client.obj
 0003:00001818       ??_C@_0BE@BCPL@player?1pl_swim1?4wav?$AA@ 10072818     client.obj
 0003:0000182c       ??_C@_0BE@JHCO@player?1pl_tile5?4wav?$AA@ 1007282c     client.obj
 0003:00001840       ??_C@_0BE@DHAL@player?1pl_tile4?4wav?$AA@ 10072840     client.obj
 0003:00001854       ??_C@_0BE@FHPB@player?1pl_tile3?4wav?$AA@ 10072854     client.obj
 0003:00001868       ??_C@_0BE@PHNE@player?1pl_tile2?4wav?$AA@ 10072868     client.obj
 0003:0000187c       ??_C@_0BE@BHLL@player?1pl_tile1?4wav?$AA@ 1007287c     client.obj
 0003:00001890       ??_C@_0BF@BKFO@player?1pl_slosh4?4wav?$AA@ 10072890     client.obj
 0003:000018a8       ??_C@_0BF@HKKE@player?1pl_slosh3?4wav?$AA@ 100728a8     client.obj
 0003:000018c0       ??_C@_0BF@NKIB@player?1pl_slosh2?4wav?$AA@ 100728c0     client.obj
 0003:000018d8       ??_C@_0BF@DKOO@player?1pl_slosh1?4wav?$AA@ 100728d8     client.obj
 0003:000018f0       ??_C@_0BF@DEFK@player?1pl_grate4?4wav?$AA@ 100728f0     client.obj
 0003:00001908       ??_C@_0BF@FEKA@player?1pl_grate3?4wav?$AA@ 10072908     client.obj
 0003:00001920       ??_C@_0BF@PEIF@player?1pl_grate2?4wav?$AA@ 10072920     client.obj
 0003:00001938       ??_C@_0BF@BEOK@player?1pl_grate1?4wav?$AA@ 10072938     client.obj
 0003:00001950       ??_C@_0BE@ICEJ@player?1pl_duct4?4wav?$AA@ 10072950     client.obj
 0003:00001964       ??_C@_0BE@OCLD@player?1pl_duct3?4wav?$AA@ 10072964     client.obj
 0003:00001978       ??_C@_0BE@ECJG@player?1pl_duct2?4wav?$AA@ 10072978     client.obj
 0003:0000198c       ??_C@_0BE@KCPJ@player?1pl_duct1?4wav?$AA@ 1007298c     client.obj
 0003:000019a0       ??_C@_0BE@KGKB@player?1pl_dirt4?4wav?$AA@ 100729a0     client.obj
 0003:000019b4       ??_C@_0BE@MGFL@player?1pl_dirt3?4wav?$AA@ 100729b4     client.obj
 0003:000019c8       ??_C@_0BE@GGHO@player?1pl_dirt2?4wav?$AA@ 100729c8     client.obj
 0003:000019dc       ??_C@_0BE@IGBB@player?1pl_dirt1?4wav?$AA@ 100729dc     client.obj
 0003:000019f0       ??_C@_0BF@JBPD@player?1pl_metal4?4wav?$AA@ 100729f0     client.obj
 0003:00001a08       ??_C@_0BF@PBAJ@player?1pl_metal3?4wav?$AA@ 10072a08     client.obj
 0003:00001a20       ??_C@_0BF@FBCM@player?1pl_metal2?4wav?$AA@ 10072a20     client.obj
 0003:00001a38       ??_C@_0BF@LBED@player?1pl_metal1?4wav?$AA@ 10072a38     client.obj
 0003:00001a50       ??_C@_0BF@KIBC@common?1npc_step4?4wav?$AA@ 10072a50     client.obj
 0003:00001a68       ??_C@_0BF@MIOI@common?1npc_step3?4wav?$AA@ 10072a68     client.obj
 0003:00001a80       ??_C@_0BF@GIMN@common?1npc_step2?4wav?$AA@ 10072a80     client.obj
 0003:00001a98       ??_C@_0BF@IIKC@common?1npc_step1?4wav?$AA@ 10072a98     client.obj
 0003:00001ab0       ??_C@_0BE@BAOA@player?1pl_step4?4wav?$AA@ 10072ab0     client.obj
 0003:00001ac4       ??_C@_0BE@HABK@player?1pl_step3?4wav?$AA@ 10072ac4     client.obj
 0003:00001ad8       ??_C@_0BE@NADP@player?1pl_step2?4wav?$AA@ 10072ad8     client.obj
 0003:00001aec       ??_C@_0BE@DAFA@player?1pl_step1?4wav?$AA@ 10072aec     client.obj
 0003:00001b00       ??_C@_0BI@IGMC@player?1pl_fallpain3?4wav?$AA@ 10072b00     client.obj
 0003:00001b18       ??_C@_0BI@CGOH@player?1pl_fallpain2?4wav?$AA@ 10072b18     client.obj
 0003:00001b30       ??_C@_0BD@NACB@player?1sprayer?4wav?$AA@ 10072b30     client.obj
 0003:00001b44       ??_C@_09OKKL@Half?9Life?$AA@ 10072b44     client.obj
 0003:00001b50       ??_C@_0DD@LMCP@PlayerCustomization?3?5?5Unknown?5cu@ 10072b50     client.obj
 0003:00001b84       ??_C@_0CL@NEEH@PlayerCustomization?3?5?5NULL?5custo@ 10072b84     client.obj
 0003:00001bb0       ??_C@_0CM@LAGP@PlayerCustomization?3?5?5Couldn?8t?5g@ 10072bb0     client.obj
 0003:00001bdc       ??_C@_0BF@FBGL@models?1stickygib?4mdl?$AA@ 10072bdc     combat.obj
 0003:00001bf4       ??_C@_0BB@NOLD@models?1hgibs?4mdl?$AA@ 10072bf4     combat.obj
 0003:00001c08       ??_C@_0BG@OBBL@models?1germangibs?4mdl?$AA@ 10072c08     combat.obj
 0003:00001c20       ??_C@_0BB@OLK@models?1agibs?4mdl?$AA@ 10072c20     combat.obj
 0003:00001c34       ??_C@_0P@DCJD@violence_agibs?$AA@ 10072c34     combat.obj
 0003:00001c44       ??_C@_0P@JDJM@violence_hgibs?$AA@ 10072c44     combat.obj
 0003:00001c54       ??_C@_0L@LME@worldspawn?$AA@ 10072c54     combat.obj
 0003:00001c60       ??_C@_03HBJ@gib?$AA@       10072c60     combat.obj
 0003:00001c64       ??_C@_04DJMN@bolt?$AA@     10072c64     crossbow.obj
 0003:00001c6c       ??_C@_0BJ@JNCP@models?1crossbow_bolt?4mdl?$AA@ 10072c6c     crossbow.obj
 0003:00001c88       ??_C@_0BD@OPC@sprites?1streak?4spr?$AA@ 10072c88     crossbow.obj
 0003:00001c9c       ??_C@_0O@OLIA@fvox?1beep?4wav?$AA@ 10072c9c     crossbow.obj
 0003:00001cac       ??_C@_0BG@DAIM@weapons?1xbow_hit1?4wav?$AA@ 10072cac     crossbow.obj
 0003:00001cc4       ??_C@_0BG@DLPN@weapons?1xbow_fly1?4wav?$AA@ 10072cc4     crossbow.obj
 0003:00001cdc       ??_C@_0BJ@PHFN@weapons?1xbow_hitbod2?4wav?$AA@ 10072cdc     crossbow.obj
 0003:00001cf8       ??_C@_0BJ@BHDC@weapons?1xbow_hitbod1?4wav?$AA@ 10072cf8     crossbow.obj
 0003:00001d14       ??_C@_0BG@MEHF@models?1w_crossbow?4mdl?$AA@ 10072d14     crossbow.obj
 0003:00001d2c       ??_C@_0O@MAAK@crossbow_bolt?$AA@ 10072d2c     crossbow.obj
 0003:00001d3c       ??_C@_0BJ@PDEH@weapons?1xbow_reload1?4wav?$AA@ 10072d3c     crossbow.obj
 0003:00001d58       ??_C@_0BH@EOBH@weapons?1xbow_fire1?4wav?$AA@ 10072d58     crossbow.obj
 0003:00001d70       ??_C@_0BG@KFMD@models?1p_crossbow?4mdl?$AA@ 10072d70     crossbow.obj
 0003:00001d88       ??_C@_0BG@GECE@models?1v_crossbow?4mdl?$AA@ 10072d88     crossbow.obj
 0003:00001da0       ??_C@_05JCNA@bolts?$AA@    10072da0     crossbow.obj
 0003:00001da8       ??_C@_03MDBB@bow?$AA@      10072da8     crossbow.obj
 0003:00001dac       ??_C@_09COJN@?$CBHEV_AMO0?$AA@ 10072dac     crossbow.obj
 0003:00001db8       ??_C@_0BL@JCJE@models?1w_crossbow_clip?4mdl?$AA@ 10072db8     crossbow.obj
 0003:00001dd4       ??_C@_0BD@DCKL@items?19mmclip1?4wav?$AA@ 10072dd4     crossbow.obj
 0003:00001de8       ??_C@_0BF@EBEF@models?1w_crowbar?4mdl?$AA@ 10072de8     crowbar.obj
 0003:00001e00       ??_C@_0BH@LHCM@weapons?1cbar_miss1?4wav?$AA@ 10072e00     crowbar.obj
 0003:00001e18       ??_C@_0BJ@PALG@weapons?1cbar_hitbod3?4wav?$AA@ 10072e18     crowbar.obj
 0003:00001e34       ??_C@_0BJ@FAJD@weapons?1cbar_hitbod2?4wav?$AA@ 10072e34     crowbar.obj
 0003:00001e50       ??_C@_0BJ@LAPM@weapons?1cbar_hitbod1?4wav?$AA@ 10072e50     crowbar.obj
 0003:00001e6c       ??_C@_0BG@CFHB@weapons?1cbar_hit2?4wav?$AA@ 10072e6c     crowbar.obj
 0003:00001e84       ??_C@_0BG@MFBO@weapons?1cbar_hit1?4wav?$AA@ 10072e84     crowbar.obj
 0003:00001e9c       ??_C@_0BF@PHEE@models?1p_crowbar?4mdl?$AA@ 10072e9c     crowbar.obj
 0003:00001eb4       ??_C@_0BF@BACI@models?1v_crowbar?4mdl?$AA@ 10072eb4     crowbar.obj
 0003:00001ecc       ??_C@_07JFCK@crowbar?$AA@  10072ecc     crowbar.obj
 0003:00001ed8       ?m_SaveData@CBaseDoor@@2PAUTYPEDESCRIPTION@@A 10072ed8     doors.obj
 0003:00001f48       ?m_SaveData@CMomentaryDoor@@2PAUTYPEDESCRIPTION@@A 10072f48     doors.obj
 0003:00001f58       ??_C@_0L@CJAI@m_bStopSnd?$AA@ 10072f58     doors.obj
 0003:00001f64       ??_C@_0L@FMAA@m_bMoveSnd?$AA@ 10072f64     doors.obj
 0003:00001f70       ??_C@_0P@JMNH@m_bHealthValue?$AA@ 10072f70     doors.obj
 0003:00001f80       ??_C@_09ILCN@CBaseDoor?$AA@ 10072f80     doors.obj
 0003:00001f8c       ??_C@_0L@DLCL@WaveHeight?$AA@ 10072f8c     doors.obj
 0003:00001f98       ??_C@_0M@JIIB@healthvalue?$AA@ 10072f98     doors.obj
 0003:00001fa4       ??_C@_07KHB@stopsnd?$AA@   10072fa4     doors.obj
 0003:00001fac       ??_C@_07HPHJ@movesnd?$AA@  10072fac     doors.obj
 0003:00001fb4       ??_C@_0BE@GHIJ@doors?1doorstop8?4wav?$AA@ 10072fb4     doors.obj
 0003:00001fc8       ??_C@_0BE@GFJ@doors?1doorstop7?4wav?$AA@ 10072fc8     doors.obj
 0003:00001fdc       ??_C@_0BE@KGHM@doors?1doorstop6?4wav?$AA@ 10072fdc     doors.obj
 0003:00001ff0       ??_C@_0BE@EGBD@doors?1doorstop5?4wav?$AA@ 10072ff0     doors.obj
 0003:00002004       ??_C@_0BE@OGDG@doors?1doorstop4?4wav?$AA@ 10073004     doors.obj
 0003:00002018       ??_C@_0BE@IGMM@doors?1doorstop3?4wav?$AA@ 10073018     doors.obj
 0003:0000202c       ??_C@_0BE@CGOJ@doors?1doorstop2?4wav?$AA@ 1007302c     doors.obj
 0003:00002040       ??_C@_0BE@MGIG@doors?1doorstop1?4wav?$AA@ 10073040     doors.obj
 0003:00002054       ??_C@_0BF@EEJ@doors?1doormove10?4wav?$AA@ 10073054     doors.obj
 0003:0000206c       ??_C@_0BE@ENHB@doors?1doormove9?4wav?$AA@ 1007306c     doors.obj
 0003:00002080       ??_C@_0BE@ONFE@doors?1doormove8?4wav?$AA@ 10073080     doors.obj
 0003:00002094       ??_C@_0BE@IMIE@doors?1doormove7?4wav?$AA@ 10073094     doors.obj
 0003:000020a8       ??_C@_0BE@CMKB@doors?1doormove6?4wav?$AA@ 100730a8     doors.obj
 0003:000020bc       ??_C@_0BE@MMMO@doors?1doormove5?4wav?$AA@ 100730bc     doors.obj
 0003:000020d0       ??_C@_0BE@GMOL@doors?1doormove4?4wav?$AA@ 100730d0     doors.obj
 0003:000020e4       ??_C@_0BE@MBB@doors?1doormove3?4wav?$AA@ 100730e4     doors.obj
 0003:000020f8       ??_C@_0BE@KMDE@doors?1doormove2?4wav?$AA@ 100730f8     doors.obj
 0003:0000210c       ??_C@_0BE@EMFL@doors?1doormove1?4wav?$AA@ 1007310c     doors.obj
 0003:00002120       ??_C@_0BD@DIJK@func_door_rotating?$AA@ 10073120     doors.obj
 0003:00002134       ??_C@_09HMCI@func_door?$AA@ 10073134     doors.obj
 0003:00002140       ??_C@_0P@PNBF@CMomentaryDoor?$AA@ 10073140     doors.obj
 0003:00002150       ?m_SaveData@CBubbling@@2PAUTYPEDESCRIPTION@@A 10073150     effects.obj
 0003:00002180       ?m_SaveData@CLightning@@2PAUTYPEDESCRIPTION@@A 10073180     effects.obj
 0003:00002250       ?m_SaveData@CLaser@@2PAUTYPEDESCRIPTION@@A 10073250     effects.obj
 0003:00002280       ?m_SaveData@CGlow@@2PAUTYPEDESCRIPTION@@A 10073280     effects.obj
 0003:000022a0       ?m_SaveData@CSprite@@2PAUTYPEDESCRIPTION@@A 100732a0     effects.obj
 0003:000022c0       ?m_SaveData@CGibShooter@@2PAUTYPEDESCRIPTION@@A 100732c0     effects.obj
 0003:00002330       ??_C@_0M@NGNA@m_flGibLife?$AA@ 10073330     effects.obj
 0003:0000233c       ??_C@_0N@OCJF@m_flVariance?$AA@ 1007333c     effects.obj
 0003:0000234c       ??_C@_0BA@KHFA@m_flGibVelocity?$AA@ 1007334c     effects.obj
 0003:0000235c       ??_C@_0BB@MOKH@m_iGibModelIndex?$AA@ 1007335c     effects.obj
 0003:00002370       ??_C@_0P@BKGP@m_iGibMaterial?$AA@ 10073370     effects.obj
 0003:00002380       ??_C@_0P@MCII@m_iGibCapacity?$AA@ 10073380     effects.obj
 0003:00002390       ??_C@_07BEIF@m_iGibs?$AA@  10073390     effects.obj
 0003:00002398       ??_C@_0L@LEAK@m_maxFrame?$AA@ 10073398     effects.obj
 0003:000023a4       ??_C@_0L@EMGL@m_lastTime?$AA@ 100733a4     effects.obj
 0003:000023b0       ??_C@_0P@EKOP@m_firePosition?$AA@ 100733b0     effects.obj
 0003:000023c0       ??_C@_09HDJB@m_pSprite?$AA@ 100733c0     effects.obj
 0003:000023cc       ??_C@_08EAJA@m_radius?$AA@ 100733cc     effects.obj
 0003:000023d8       ??_C@_0N@KJBJ@m_frameStart?$AA@ 100733d8     effects.obj
 0003:000023e8       ??_C@_0BA@GBDK@m_iszSpriteName?$AA@ 100733e8     effects.obj
 0003:000023f8       ??_C@_0BA@NFMI@m_spriteTexture?$AA@ 100733f8     effects.obj
 0003:00002408       ??_C@_0L@IHBG@m_restrike?$AA@ 10073408     effects.obj
 0003:00002414       ??_C@_07BHEC@m_speed?$AA@  10073414     effects.obj
 0003:0000241c       ??_C@_0N@MKJD@m_brightness?$AA@ 1007341c     effects.obj
 0003:0000242c       ??_C@_0BB@MGLG@m_noiseAmplitude?$AA@ 1007342c     effects.obj
 0003:00002440       ??_C@_0M@EDGG@m_boltWidth?$AA@ 10073440     effects.obj
 0003:0000244c       ??_C@_06GDNN@m_life?$AA@   1007344c     effects.obj
 0003:00002454       ??_C@_0P@KALE@m_iszEndEntity?$AA@ 10073454     effects.obj
 0003:00002464       ??_C@_0BB@NFGP@m_iszStartEntity?$AA@ 10073464     effects.obj
 0003:00002478       ??_C@_08NMOE@m_active?$AA@ 10073478     effects.obj
 0003:00002484       ??_C@_0M@LPOM@m_frequency?$AA@ 10073484     effects.obj
 0003:00002490       ??_C@_09CDN@m_density?$AA@ 10073490     effects.obj
 0003:0000249c       ??_C@_09KEMN@CBubbling?$AA@ 1007349c     effects.obj
 0003:000024a8       ??_C@_0BD@FLIJ@sprites?1bubble?4spr?$AA@ 100734a8     effects.obj
 0003:000024bc       ??_C@_07HLIN@current?$AA@  100734bc     effects.obj
 0003:000024c4       ??_C@_09IEMB@frequency?$AA@ 100734c4     effects.obj
 0003:000024d0       ??_C@_07DAOL@density?$AA@  100734d0     effects.obj
 0003:000024d8       ??_C@_04KDFO@beam?$AA@     100734d8     effects.obj
 0003:000024e0       ??_C@_0BD@DPKM@Firing?5targets?$CB?$CB?$CB?6?$AA@ 100734e0     effects.obj
 0003:000024f4       ??_C@_0L@LPGL@CLightning?$AA@ 100734f4     effects.obj
 0003:00002500       ??_C@_06DPDL@damage?$AA@   10073500     effects.obj
 0003:00002508       ??_C@_06CCHE@Radius?$AA@   10073508     effects.obj
 0003:00002510       ??_C@_0L@BFII@framestart?$AA@ 10073510     effects.obj
 0003:0000251c       ??_C@_07DIGL@texture?$AA@  1007351c     effects.obj
 0003:00002524       ??_C@_0L@FJKB@StrikeTime?$AA@ 10073524     effects.obj
 0003:00002530       ??_C@_0O@OLLL@TextureScroll?$AA@ 10073530     effects.obj
 0003:00002540       ??_C@_0P@PGMI@NoiseAmplitude?$AA@ 10073540     effects.obj
 0003:00002550       ??_C@_09DBEO@BoltWidth?$AA@ 10073550     effects.obj
 0003:0000255c       ??_C@_04LLCA@life?$AA@     1007355c     effects.obj
 0003:00002564       ??_C@_0N@JLEP@LightningEnd?$AA@ 10073564     effects.obj
 0003:00002574       ??_C@_0P@IPKK@LightningStart?$AA@ 10073574     effects.obj
 0003:00002584       ??_C@_0M@PJIA@path_corner?$AA@ 10073584     effects.obj
 0003:00002590       ??_C@_0O@PFNL@info_landmark?$AA@ 10073590     effects.obj
 0003:000025a0       ??_C@_0M@CIEN@info_target?$AA@ 100735a0     effects.obj
 0003:000025ac       ??_C@_0BP@HFJI@env_beam?3?5unknown?5entity?5?$CC?$CFs?$CC?6?$AA@ 100735ac     effects.obj
 0003:000025cc       ??_C@_06KNDA@CLaser?$AA@   100735cc     effects.obj
 0003:000025d4       ??_C@_09LEMM@EndSprite?$AA@ 100735d4     effects.obj
 0003:000025e0       ??_C@_05PNBN@width?$AA@    100735e0     effects.obj
 0003:000025e8       ??_C@_0M@FAEF@LaserTarget?$AA@ 100735e8     effects.obj
 0003:000025f4       ??_C@_05PIND@CGlow?$AA@    100735f4     effects.obj
 0003:000025fc       ??_C@_07JBH@CSprite?$AA@   100735fc     effects.obj
 0003:00002604       ??_C@_0L@FKCE@env_sprite?$AA@ 10073604     effects.obj
 0003:00002610       ??_C@_0M@MMBB@CGibShooter?$AA@ 10073610     effects.obj
 0003:0000261c       ??_C@_0BH@KPGL@models?1germanygibs?4mdl?$AA@ 1007361c     effects.obj
 0003:00002634       ??_C@_0N@LKHC@m_flVelocity?$AA@ 10073634     effects.obj
 0003:00002644       ??_C@_0BK@MCNA@GibShooter?5Body?5is?5?$DM?$DN?51?$CB?6?$AA@ 10073644     effects.obj
 0003:00002660       ??_C@_0M@HGDE@shootsounds?$AA@ 10073660     effects.obj
 0003:0000266c       ??_C@_0L@LHLB@shootmodel?$AA@ 1007366c     effects.obj
 0003:00002678       ??_C@_0BE@GFBO@sprites?1lgtning?4spr?$AA@ 10073678     effects.obj
 0003:0000268c       ??_C@_06POCJ@amount?$AA@   1007368c     effects.obj
 0003:00002694       ??_C@_05HMGA@color?$AA@    10073694     effects.obj
 0003:0000269c       ??_C@_06JGHA@radius?$AA@   1007369c     effects.obj
 0003:000026a4       ??_C@_08OIHC@duration?$AA@ 100736a4     effects.obj
 0003:000026b0       ??_C@_09DLGL@amplitude?$AA@ 100736b0     effects.obj
 0003:000026bc       ??_C@_08GFEH@holdtime?$AA@ 100736bc     effects.obj
 0003:000026c8       ??_C@_0BD@MBHG@messageattenuation?$AA@ 100736c8     effects.obj
 0003:000026dc       ??_C@_0O@KCBF@messagevolume?$AA@ 100736dc     effects.obj
 0003:000026ec       ??_C@_0N@CHKH@messagesound?$AA@ 100736ec     effects.obj
 0003:000026fc       ??_C@_0BD@HCON@sprites?1flare6?4spr?$AA@ 100736fc     effects.obj
 0003:00002710       ??_C@_0BG@JCHE@weapons?1g_bounce3?4wav?$AA@ 10073710     effects.obj
 0003:00002728       ??_C@_0P@EHLO@models?1can?4mdl?$AA@ 10073728     effects.obj
 0003:00002738       ??_C@_0N@JJBI@item_sodacan?$AA@ 10073738     effects.obj
 0003:00002748       ?g_fireAnims1@CEgon@@2PAHA 10073748     egon.obj
 0003:00002758       ?g_fireAnims2@CEgon@@2PAHA 10073758     egon.obj
 0003:00002760       ?m_SaveData@CEgon@@2PAUTYPEDESCRIPTION@@A 10073760     egon.obj
 0003:000027e0       ??_C@_0BA@MKFC@m_flAmmoUseTime?$AA@ 100737e0     egon.obj
 0003:000027f0       ??_C@_0M@JGOJ@m_shakeTime?$AA@ 100737f0     egon.obj
 0003:000027fc       ??_C@_0L@MLFF@m_fireMode?$AA@ 100737fc     egon.obj
 0003:00002808       ??_C@_0M@EOII@m_fireState?$AA@ 10073808     egon.obj
 0003:00002814       ??_C@_0M@PBMJ@m_shootTime?$AA@ 10073814     egon.obj
 0003:00002820       ??_C@_08GKDB@m_pNoise?$AA@ 10073820     egon.obj
 0003:0000282c       ??_C@_07OGGP@m_pBeam?$AA@  1007382c     egon.obj
 0003:00002834       ??_C@_05IDKG@CEgon?$AA@    10073834     egon.obj
 0003:0000283c       ??_C@_0BC@OHPL@models?1w_egon?4mdl?$AA@ 1007383c     egon.obj
 0003:00002850       ??_C@_0BG@NHFC@weapons?1357_cock1?4wav?$AA@ 10073850     egon.obj
 0003:00002868       ??_C@_0BE@FLGL@sprites?1XSpark1?4spr?$AA@ 10073868     egon.obj
 0003:0000287c       ??_C@_0BD@DIAC@sprites?1xbeam1?4spr?$AA@ 1007387c     egon.obj
 0003:00002890       ??_C@_0BJ@OAJA@weapons?1egon_windup2?4wav?$AA@ 10073890     egon.obj
 0003:000028ac       ??_C@_0BG@IGDL@weapons?1egon_run3?4wav?$AA@ 100738ac     egon.obj
 0003:000028c4       ??_C@_0BG@FKJN@weapons?1egon_off1?4wav?$AA@ 100738c4     egon.obj
 0003:000028dc       ??_C@_0BF@LOAJ@models?1w_9mmclip?4mdl?$AA@ 100738dc     egon.obj
 0003:000028f4       ??_C@_0BC@EILE@models?1p_egon?4mdl?$AA@ 100738f4     egon.obj
 0003:00002908       ??_C@_0BC@GIDJ@models?1v_egon?4mdl?$AA@ 10073908     egon.obj
 0003:0000291c       ??_C@_04MANP@egon?$AA@     1007391c     egon.obj
 0003:00002924       ??_C@_07POLL@uranium?$AA@  10073924     egon.obj
 0003:0000292c       ??_C@_0BH@FNIA@models?1w_chainammo?4mdl?$AA@ 1007392c     egon.obj
 0003:00002948       ?m_SaveData@CEnvExplosion@@2PAUTYPEDESCRIPTION@@A 10073948     explode.obj
 0003:00002968       ??_C@_0O@HNDL@m_spriteScale?$AA@ 10073968     explode.obj
 0003:00002978       ??_C@_0N@ECAD@m_iMagnitude?$AA@ 10073978     explode.obj
 0003:00002988       ??_C@_0BD@EKBB@models?1grenade?4mdl?$AA@ 10073988     explode.obj
 0003:0000299c       ??_C@_0O@HCHG@CEnvExplosion?$AA@ 1007399c     explode.obj
 0003:000029ac       ??_C@_0L@PKDI@iMagnitude?$AA@ 100739ac     explode.obj
 0003:000029b8       ??_C@_0N@BFLM@spark_shower?$AA@ 100739b8     explode.obj
 0003:000029c8       ??_C@_03IBOB@?$CF3d?$AA@   100739c8     explode.obj
 0003:000029cc       ??_C@_0O@GAID@env_explosion?$AA@ 100739cc     explode.obj
 0003:000029e0       ?pSpawnObjects@CBreakable@@2PAPBDA 100739e0     func_break.obj
 0003:00002a38       ?m_SaveData@CBreakable@@2PAUTYPEDESCRIPTION@@A 10073a38     func_break.obj
 0003:00002a88       ?pSoundsWood@CBreakable@@2PAPBDA 10073a88     func_break.obj
 0003:00002a94       ?pSoundsFlesh@CBreakable@@2PAPBDA 10073a94     func_break.obj
 0003:00002aac       ?pSoundsMetal@CBreakable@@2PAPBDA 10073aac     func_break.obj
 0003:00002ab8       ?pSoundsConcrete@CBreakable@@2PAPBDA 10073ab8     func_break.obj
 0003:00002ac4       ?pSoundsGlass@CBreakable@@2PAPBDA 10073ac4     func_break.obj
 0003:00002ad0       ?m_SaveData@CPushable@@2PAUTYPEDESCRIPTION@@A 10073ad0     func_break.obj
 0003:00002af0       ?m_soundNames@CPushable@@2PAPADA 10073af0     func_break.obj
 0003:00002afc       ??_C@_0BE@HFGI@debris?1pushbox3?4wav?$AA@ 10073afc     func_break.obj
 0003:00002b10       ??_C@_0BE@NFEN@debris?1pushbox2?4wav?$AA@ 10073b10     func_break.obj
 0003:00002b24       ??_C@_0BE@DFCC@debris?1pushbox1?4wav?$AA@ 10073b24     func_break.obj
 0003:00002b38       ??_C@_0M@FOCJ@m_soundTime?$AA@ 10073b38     func_break.obj
 0003:00002b44       ??_C@_0BF@PNKD@debris?1concrete3?4wav?$AA@ 10073b44     func_break.obj
 0003:00002b5c       ??_C@_0BF@FNIG@debris?1concrete2?4wav?$AA@ 10073b5c     func_break.obj
 0003:00002b74       ??_C@_0BF@LNOJ@debris?1concrete1?4wav?$AA@ 10073b74     func_break.obj
 0003:00002b8c       ??_C@_0BC@COMO@debris?1metal3?4wav?$AA@ 10073b8c     func_break.obj
 0003:00002ba0       ??_C@_0BC@IOOL@debris?1metal2?4wav?$AA@ 10073ba0     func_break.obj
 0003:00002bb4       ??_C@_0BC@GOIE@debris?1metal1?4wav?$AA@ 10073bb4     func_break.obj
 0003:00002bc8       ??_C@_0BC@LIDA@debris?1flesh7?4wav?$AA@ 10073bc8     func_break.obj
 0003:00002bdc       ??_C@_0BC@BIBF@debris?1flesh6?4wav?$AA@ 10073bdc     func_break.obj
 0003:00002bf0       ??_C@_0BC@PIHK@debris?1flesh5?4wav?$AA@ 10073bf0     func_break.obj
 0003:00002c04       ??_C@_0BC@DIKF@debris?1flesh3?4wav?$AA@ 10073c04     func_break.obj
 0003:00002c18       ??_C@_0BC@JIIA@debris?1flesh2?4wav?$AA@ 10073c18     func_break.obj
 0003:00002c2c       ??_C@_0BC@HIOP@debris?1flesh1?4wav?$AA@ 10073c2c     func_break.obj
 0003:00002c40       ??_C@_0BB@GCON@m_iszSpawnObject?$AA@ 10073c40     func_break.obj
 0003:00002c54       ??_C@_0O@PIFB@m_iszGibModel?$AA@ 10073c54     func_break.obj
 0003:00002c64       ??_C@_07FIEE@m_angle?$AA@  10073c64     func_break.obj
 0003:00002c6c       ??_C@_0M@EMFA@m_Explosion?$AA@ 10073c6c     func_break.obj
 0003:00002c78       ??_C@_0L@CPPI@m_Material?$AA@ 10073c78     func_break.obj
 0003:00002c84       ??_C@_0BB@CILK@weapon_hornetgun?$AA@ 10073c84     func_break.obj
 0003:00002c98       ??_C@_0N@ODHC@weapon_snark?$AA@ 10073c98     func_break.obj
 0003:00002ca8       ??_C@_0P@JCMM@weapon_satchel?$AA@ 10073ca8     func_break.obj
 0003:00002cb8       ??_C@_0BA@LLON@weapon_tripmine?$AA@ 10073cb8     func_break.obj
 0003:00002cc8       ??_C@_0BD@HGIA@weapon_handgrenade?$AA@ 10073cc8     func_break.obj
 0003:00002cdc       ??_C@_0P@MILI@ammo_gaussclip?$AA@ 10073cdc     func_break.obj
 0003:00002cec       ??_C@_0N@BIME@ammo_rpgclip?$AA@ 10073cec     func_break.obj
 0003:00002cfc       ??_C@_0L@OCEH@weapon_rpg?$AA@ 10073cfc     func_break.obj
 0003:00002d08       ??_C@_08BGGJ@ammo_357?$AA@ 10073d08     func_break.obj
 0003:00002d14       ??_C@_0L@NPOO@weapon_357?$AA@ 10073d14     func_break.obj
 0003:00002d20       ??_C@_0O@OFDM@ammo_crossbow?$AA@ 10073d20     func_break.obj
 0003:00002d30       ??_C@_0BA@HAEF@weapon_crossbow?$AA@ 10073d30     func_break.obj
 0003:00002d40       ??_C@_0O@FHCF@ammo_buckshot?$AA@ 10073d40     func_break.obj
 0003:00002d50       ??_C@_0P@PHLB@weapon_shotgun?$AA@ 10073d50     func_break.obj
 0003:00002d60       ??_C@_0BA@OEBJ@ammo_ARgrenades?$AA@ 10073d60     func_break.obj
 0003:00002d70       ??_C@_0L@HEPA@ammo_9mmAR?$AA@ 10073d70     func_break.obj
 0003:00002d7c       ??_C@_0N@JNOE@weapon_9mmAR?$AA@ 10073d7c     func_break.obj
 0003:00002d8c       ??_C@_0N@MPPM@ammo_9mmclip?$AA@ 10073d8c     func_break.obj
 0003:00002d9c       ??_C@_0BC@MNAJ@weapon_9mmhandgun?$AA@ 10073d9c     func_break.obj
 0003:00002db0       ??_C@_0P@LMGJ@item_healthkit?$AA@ 10073db0     func_break.obj
 0003:00002dc0       ??_C@_0N@CIMM@item_battery?$AA@ 10073dc0     func_break.obj
 0003:00002dd0       ??_C@_03JNMJ@lip?$AA@      10073dd0     func_break.obj
 0003:00002dd4       ??_C@_0BB@INHA@explodemagnitude?$AA@ 10073dd4     func_break.obj
 0003:00002de8       ??_C@_0M@DPJK@spawnobject?$AA@ 10073de8     func_break.obj
 0003:00002df4       ??_C@_08JLIM@gibmodel?$AA@ 10073df4     func_break.obj
 0003:00002e00       ??_C@_06CJCC@shards?$AA@   10073e00     func_break.obj
 0003:00002e08       ??_C@_09NAJC@deadmodel?$AA@ 10073e08     func_break.obj
 0003:00002e14       ??_C@_08HBI@material?$AA@  10073e14     func_break.obj
 0003:00002e20       ??_C@_06IMKP@random?$AA@   10073e20     func_break.obj
 0003:00002e28       ??_C@_08NCNN@directed?$AA@ 10073e28     func_break.obj
 0003:00002e34       ??_C@_09DOHI@explosion?$AA@ 10073e34     func_break.obj
 0003:00002e40       ??_C@_0L@PDKA@CBreakable?$AA@ 10073e40     func_break.obj
 0003:00002e4c       ??_C@_0BH@EJAK@models?1ceilinggibs?4mdl?$AA@ 10073e4c     func_break.obj
 0003:00002e64       ??_C@_0BH@JMCA@debris?1bustceiling?4wav?$AA@ 10073e64     func_break.obj
 0003:00002e7c       ??_C@_0BJ@GOIG@debris?1bustconcrete2?4wav?$AA@ 10073e7c     func_break.obj
 0003:00002e98       ??_C@_0BJ@IOOJ@debris?1bustconcrete1?4wav?$AA@ 10073e98     func_break.obj
 0003:00002eb4       ??_C@_0BE@BFEH@models?1rockgibs?4mdl?$AA@ 10073eb4     func_break.obj
 0003:00002ec8       ??_C@_0BG@BGML@models?1cindergibs?4mdl?$AA@ 10073ec8     func_break.obj
 0003:00002ee0       ??_C@_0BK@LCEG@models?1metalplategibs?4mdl?$AA@ 10073ee0     func_break.obj
 0003:00002efc       ??_C@_0BG@HCND@debris?1bustglass2?4wav?$AA@ 10073efc     func_break.obj
 0003:00002f14       ??_C@_0BF@HMFM@models?1glassgibs?4mdl?$AA@ 10073f14     func_break.obj
 0003:00002f2c       ??_C@_0BG@JCLM@debris?1bustglass1?4wav?$AA@ 10073f2c     func_break.obj
 0003:00002f44       ??_C@_0BG@ICCD@debris?1bustmetal2?4wav?$AA@ 10073f44     func_break.obj
 0003:00002f5c       ??_C@_0BI@JHBE@models?1computergibs?4mdl?$AA@ 10073f5c     func_break.obj
 0003:00002f74       ??_C@_0BG@GCEM@debris?1bustmetal1?4wav?$AA@ 10073f74     func_break.obj
 0003:00002f8c       ??_C@_0BG@JEEI@debris?1bustflesh2?4wav?$AA@ 10073f8c     func_break.obj
 0003:00002fa4       ??_C@_0BF@PHBF@models?1fleshgibs?4mdl?$AA@ 10073fa4     func_break.obj
 0003:00002fbc       ??_C@_0BG@HECH@debris?1bustflesh1?4wav?$AA@ 10073fbc     func_break.obj
 0003:00002fd4       ??_C@_0BG@BIID@debris?1bustcrate2?4wav?$AA@ 10073fd4     func_break.obj
 0003:00002fec       ??_C@_0BE@NDKF@models?1woodgibs?4mdl?$AA@ 10073fec     func_break.obj
 0003:00003000       ??_C@_0BG@PIOM@debris?1bustcrate1?4wav?$AA@ 10074000     func_break.obj
 0003:00003018       ??_C@_09LMME@CPushable?$AA@ 10074018     func_break.obj
 0003:00003024       ??_C@_08CHPI@buoyancy?$AA@ 10074024     func_break.obj
 0003:00003030       ??_C@_04LLHI@size?$AA@     10074030     func_break.obj
 0003:00003038       ?m_SaveData@CFuncTank@@2PAUTYPEDESCRIPTION@@A 10074038     func_tank.obj
 0003:000031d8       ?m_SaveData@CFuncTankLaser@@2PAUTYPEDESCRIPTION@@A 100741d8     func_tank.obj
 0003:000031f8       ?m_SaveData@CFuncTankControls@@2PAUTYPEDESCRIPTION@@A 100741f8     func_tank.obj
 0003:00003208       ??_C@_07PIL@m_pTank?$AA@   10074208     func_tank.obj
 0003:00003210       ??_C@_0M@OAJH@m_laserTime?$AA@ 10074210     func_tank.obj
 0003:0000321c       ??_C@_08CLDG@m_pLaser?$AA@ 1007421c     func_tank.obj
 0003:00003228       ??_C@_0M@CKOC@m_iszMaster?$AA@ 10074228     func_tank.obj
 0003:00003234       ??_C@_0BA@EBJ@m_iBulletDamage?$AA@ 10074234     func_tank.obj
 0003:00003244       ??_C@_0P@HMMP@m_flNextAttack?$AA@ 10074244     func_tank.obj
 0003:00003254       ??_C@_0BG@IBKD@m_vecControllerUsePos?$AA@ 10074254     func_tank.obj
 0003:0000326c       ??_C@_0O@ODHM@m_pController?$AA@ 1007426c     func_tank.obj
 0003:0000327c       ??_C@_08OJPE@m_spread?$AA@ 1007427c     func_tank.obj
 0003:00003288       ??_C@_0O@CKID@m_sightOrigin?$AA@ 10074288     func_tank.obj
 0003:00003298       ??_C@_0N@IPOC@m_bulletType?$AA@ 10074298     func_tank.obj
 0003:000032a8       ??_C@_0BB@KPOA@m_iszSpriteFlash?$AA@ 100742a8     func_tank.obj
 0003:000032bc       ??_C@_0BB@FPBL@m_iszSpriteSmoke?$AA@ 100742bc     func_tank.obj
 0003:000032d0       ??_C@_0M@IOIG@m_barrelPos?$AA@ 100742d0     func_tank.obj
 0003:000032dc       ??_C@_0L@LKMI@m_maxRange?$AA@ 100742dc     func_tank.obj
 0003:000032e8       ??_C@_0L@OJKH@m_minRange?$AA@ 100742e8     func_tank.obj
 0003:000032f4       ??_C@_09OHPN@m_persist?$AA@ 100742f4     func_tank.obj
 0003:00003300       ??_C@_0BA@LINK@m_lastSightTime?$AA@ 10074300     func_tank.obj
 0003:00003310       ??_C@_0L@FIDB@m_fireRate?$AA@ 10074310     func_tank.obj
 0003:0000331c       ??_C@_0L@JKNO@m_fireLast?$AA@ 1007431c     func_tank.obj
 0003:00003328       ??_C@_0BB@KKBE@m_pitchTolerance?$AA@ 10074328     func_tank.obj
 0003:0000333c       ??_C@_0N@FMKD@m_pitchRange?$AA@ 1007433c     func_tank.obj
 0003:0000334c       ??_C@_0M@OPBD@m_pitchRate?$AA@ 1007434c     func_tank.obj
 0003:00003358       ??_C@_0O@MFEE@m_pitchCenter?$AA@ 10074358     func_tank.obj
 0003:00003368       ??_C@_0P@CHLD@m_yawTolerance?$AA@ 10074368     func_tank.obj
 0003:00003378       ??_C@_0L@FNPK@m_yawRange?$AA@ 10074378     func_tank.obj
 0003:00003384       ??_C@_09LGOC@m_yawRate?$AA@ 10074384     func_tank.obj
 0003:00003390       ??_C@_0M@GDEF@m_yawCenter?$AA@ 10074390     func_tank.obj
 0003:0000339c       ??_C@_09GEHB@CFuncTank?$AA@ 1007439c     func_tank.obj
 0003:000033a8       ??_C@_06ENCB@master?$AA@   100743a8     func_tank.obj
 0003:000033b0       ??_C@_08JHPK@maxRange?$AA@ 100743b0     func_tank.obj
 0003:000033bc       ??_C@_08MEJF@minRange?$AA@ 100743bc     func_tank.obj
 0003:000033c8       ??_C@_0L@ODJJ@firespread?$AA@ 100743c8     func_tank.obj
 0003:000033d4       ??_C@_0O@CAIB@bullet_damage?$AA@ 100743d4     func_tank.obj
 0003:000033e4       ??_C@_06EBCC@bullet?$AA@   100743e4     func_tank.obj
 0003:000033ec       ??_C@_0M@BBKD@persistence?$AA@ 100743ec     func_tank.obj
 0003:000033f8       ??_C@_0M@DB@rotatesound?$AA@ 100743f8     func_tank.obj
 0003:00003404       ??_C@_0M@ECDJ@spriteflash?$AA@ 10074404     func_tank.obj
 0003:00003410       ??_C@_0M@LCMC@spritesmoke?$AA@ 10074410     func_tank.obj
 0003:0000341c       ??_C@_0M@FKCJ@spritescale?$AA@ 1007441c     func_tank.obj
 0003:00003428       ??_C@_07NPAF@barrelz?$AA@  10074428     func_tank.obj
 0003:00003430       ??_C@_07CALM@barrely?$AA@  10074430     func_tank.obj
 0003:00003438       ??_C@_06MDNP@barrel?$AA@   10074438     func_tank.obj
 0003:00003440       ??_C@_08NPEB@firerate?$AA@ 10074440     func_tank.obj
 0003:0000344c       ??_C@_0P@NJEC@pitchtolerance?$AA@ 1007444c     func_tank.obj
 0003:0000345c       ??_C@_09HOHM@pitchrate?$AA@ 1007445c     func_tank.obj
 0003:00003468       ??_C@_0L@OADC@pitchrange?$AA@ 10074468     func_tank.obj
 0003:00003474       ??_C@_0N@CDJF@yawtolerance?$AA@ 10074474     func_tank.obj
 0003:00003484       ??_C@_08HEGC@yawrange?$AA@ 10074484     func_tank.obj
 0003:00003490       ??_C@_07COHG@yawrate?$AA@  10074490     func_tank.obj
 0003:00003498       ??_C@_0N@HCMJ@using?5TANK?$CB?6?$AA@ 10074498     func_tank.obj
 0003:000034a8       ??_C@_0BE@BLAM@stopped?5using?5TANK?6?$AA@ 100744a8     func_tank.obj
 0003:000034bc       ??_C@_0P@GDKG@CFuncTankLaser?$AA@ 100744bc     func_tank.obj
 0003:000034cc       ??_C@_0BP@OKIM@Laser?5tank?5with?5no?5env_laser?$CB?6?$AA@ 100744cc     func_tank.obj
 0003:000034ec       ??_C@_0M@JAJF@laserentity?$AA@ 100744ec     func_tank.obj
 0003:000034f8       ??_C@_09JOGA@env_laser?$AA@ 100744f8     func_tank.obj
 0003:00003504       ??_C@_0L@CFGE@rpg_rocket?$AA@ 10074504     func_tank.obj
 0003:00003510       ??_C@_0BC@JHCF@CFuncTankControls?$AA@ 10074510     func_tank.obj
 0003:00003524       ??_C@_0M@NANL@No?5tank?5?$CFs?6?$AA@ 10074524     func_tank.obj
 0003:00003530       ??_C@_09BEDO@func_tank?$AA@ 10074530     func_tank.obj
 0003:00003540       ?displaysoundlist@@3Ucvar_s@@A 10074540     game.obj
 0003:00003558       ?mapcyclefile@@3Ucvar_s@@A 10074558     game.obj
 0003:00003570       ?servercfgfile@@3Ucvar_s@@A 10074570     game.obj
 0003:00003588       ?lservercfgfile@@3Ucvar_s@@A 10074588     game.obj
 0003:000035a0       ?teamplay@@3Ucvar_s@@A     100745a0     game.obj
 0003:000035b8       ?fraglimit@@3Ucvar_s@@A    100745b8     game.obj
 0003:000035d0       ?timelimit@@3Ucvar_s@@A    100745d0     game.obj
 0003:000035e8       ?friendlyfire@@3Ucvar_s@@A 100745e8     game.obj
 0003:00003600       ?falldamage@@3Ucvar_s@@A   10074600     game.obj
 0003:00003618       ?weaponstay@@3Ucvar_s@@A   10074618     game.obj
 0003:00003630       ?forcerespawn@@3Ucvar_s@@A 10074630     game.obj
 0003:00003648       ?footsteps@@3Ucvar_s@@A    10074648     game.obj
 0003:00003660       ?flashlight@@3Ucvar_s@@A   10074660     game.obj
 0003:00003678       ?aimcrosshair@@3Ucvar_s@@A 10074678     game.obj
 0003:00003690       ?decalfrequency@@3Ucvar_s@@A 10074690     game.obj
 0003:000036a8       ?teamlist@@3Ucvar_s@@A     100746a8     game.obj
 0003:000036c0       ?teamoverride@@3Ucvar_s@@A 100746c0     game.obj
 0003:000036d8       ?defaultteam@@3Ucvar_s@@A  100746d8     game.obj
 0003:000036f0       ?allowmonsters@@3Ucvar_s@@A 100746f0     game.obj
 0003:00003708       ?sk_agrunt_health1@@3Ucvar_s@@A 10074708     game.obj
 0003:00003720       ?sk_agrunt_health2@@3Ucvar_s@@A 10074720     game.obj
 0003:00003738       ?sk_agrunt_health3@@3Ucvar_s@@A 10074738     game.obj
 0003:00003750       ?sk_agrunt_dmg_punch1@@3Ucvar_s@@A 10074750     game.obj
 0003:00003768       ?sk_agrunt_dmg_punch2@@3Ucvar_s@@A 10074768     game.obj
 0003:00003780       ?sk_agrunt_dmg_punch3@@3Ucvar_s@@A 10074780     game.obj
 0003:00003798       ?sk_apache_health1@@3Ucvar_s@@A 10074798     game.obj
 0003:000037b0       ?sk_apache_health2@@3Ucvar_s@@A 100747b0     game.obj
 0003:000037c8       ?sk_apache_health3@@3Ucvar_s@@A 100747c8     game.obj
 0003:000037e0       ?sk_barney_health1@@3Ucvar_s@@A 100747e0     game.obj
 0003:000037f8       ?sk_barney_health2@@3Ucvar_s@@A 100747f8     game.obj
 0003:00003810       ?sk_barney_health3@@3Ucvar_s@@A 10074810     game.obj
 0003:00003828       ?sk_bullsquid_health1@@3Ucvar_s@@A 10074828     game.obj
 0003:00003840       ?sk_bullsquid_health2@@3Ucvar_s@@A 10074840     game.obj
 0003:00003858       ?sk_bullsquid_health3@@3Ucvar_s@@A 10074858     game.obj
 0003:00003870       ?sk_bullsquid_dmg_bite1@@3Ucvar_s@@A 10074870     game.obj
 0003:00003888       ?sk_bullsquid_dmg_bite2@@3Ucvar_s@@A 10074888     game.obj
 0003:000038a0       ?sk_bullsquid_dmg_bite3@@3Ucvar_s@@A 100748a0     game.obj
 0003:000038b8       ?sk_bullsquid_dmg_whip1@@3Ucvar_s@@A 100748b8     game.obj
 0003:000038d0       ?sk_bullsquid_dmg_whip2@@3Ucvar_s@@A 100748d0     game.obj
 0003:000038e8       ?sk_bullsquid_dmg_whip3@@3Ucvar_s@@A 100748e8     game.obj
 0003:00003900       ?sk_bullsquid_dmg_spit1@@3Ucvar_s@@A 10074900     game.obj
 0003:00003918       ?sk_bullsquid_dmg_spit2@@3Ucvar_s@@A 10074918     game.obj
 0003:00003930       ?sk_bullsquid_dmg_spit3@@3Ucvar_s@@A 10074930     game.obj
 0003:00003948       ?sk_bigmomma_health_factor1@@3Ucvar_s@@A 10074948     game.obj
 0003:00003960       ?sk_bigmomma_health_factor2@@3Ucvar_s@@A 10074960     game.obj
 0003:00003978       ?sk_bigmomma_health_factor3@@3Ucvar_s@@A 10074978     game.obj
 0003:00003990       ?sk_bigmomma_dmg_slash1@@3Ucvar_s@@A 10074990     game.obj
 0003:000039a8       ?sk_bigmomma_dmg_slash2@@3Ucvar_s@@A 100749a8     game.obj
 0003:000039c0       ?sk_bigmomma_dmg_slash3@@3Ucvar_s@@A 100749c0     game.obj
 0003:000039d8       ?sk_bigmomma_dmg_blast1@@3Ucvar_s@@A 100749d8     game.obj
 0003:000039f0       ?sk_bigmomma_dmg_blast2@@3Ucvar_s@@A 100749f0     game.obj
 0003:00003a08       ?sk_bigmomma_dmg_blast3@@3Ucvar_s@@A 10074a08     game.obj
 0003:00003a20       ?sk_bigmomma_radius_blast1@@3Ucvar_s@@A 10074a20     game.obj
 0003:00003a38       ?sk_bigmomma_radius_blast2@@3Ucvar_s@@A 10074a38     game.obj
 0003:00003a50       ?sk_bigmomma_radius_blast3@@3Ucvar_s@@A 10074a50     game.obj
 0003:00003a68       ?sk_gargantua_health1@@3Ucvar_s@@A 10074a68     game.obj
 0003:00003a80       ?sk_gargantua_health2@@3Ucvar_s@@A 10074a80     game.obj
 0003:00003a98       ?sk_gargantua_health3@@3Ucvar_s@@A 10074a98     game.obj
 0003:00003ab0       ?sk_gargantua_dmg_slash1@@3Ucvar_s@@A 10074ab0     game.obj
 0003:00003ac8       ?sk_gargantua_dmg_slash2@@3Ucvar_s@@A 10074ac8     game.obj
 0003:00003ae0       ?sk_gargantua_dmg_slash3@@3Ucvar_s@@A 10074ae0     game.obj
 0003:00003af8       ?sk_gargantua_dmg_fire1@@3Ucvar_s@@A 10074af8     game.obj
 0003:00003b10       ?sk_gargantua_dmg_fire2@@3Ucvar_s@@A 10074b10     game.obj
 0003:00003b28       ?sk_gargantua_dmg_fire3@@3Ucvar_s@@A 10074b28     game.obj
 0003:00003b40       ?sk_gargantua_dmg_stomp1@@3Ucvar_s@@A 10074b40     game.obj
 0003:00003b58       ?sk_gargantua_dmg_stomp2@@3Ucvar_s@@A 10074b58     game.obj
 0003:00003b70       ?sk_gargantua_dmg_stomp3@@3Ucvar_s@@A 10074b70     game.obj
 0003:00003b88       ?sk_hassassin_health1@@3Ucvar_s@@A 10074b88     game.obj
 0003:00003ba0       ?sk_hassassin_health2@@3Ucvar_s@@A 10074ba0     game.obj
 0003:00003bb8       ?sk_hassassin_health3@@3Ucvar_s@@A 10074bb8     game.obj
 0003:00003bd0       ?sk_headcrab_health1@@3Ucvar_s@@A 10074bd0     game.obj
 0003:00003be8       ?sk_headcrab_health2@@3Ucvar_s@@A 10074be8     game.obj
 0003:00003c00       ?sk_headcrab_health3@@3Ucvar_s@@A 10074c00     game.obj
 0003:00003c18       ?sk_headcrab_dmg_bite1@@3Ucvar_s@@A 10074c18     game.obj
 0003:00003c30       ?sk_headcrab_dmg_bite2@@3Ucvar_s@@A 10074c30     game.obj
 0003:00003c48       ?sk_headcrab_dmg_bite3@@3Ucvar_s@@A 10074c48     game.obj
 0003:00003c60       ?sk_hgrunt_health1@@3Ucvar_s@@A 10074c60     game.obj
 0003:00003c78       ?sk_hgrunt_health2@@3Ucvar_s@@A 10074c78     game.obj
 0003:00003c90       ?sk_hgrunt_health3@@3Ucvar_s@@A 10074c90     game.obj
 0003:00003ca8       ?sk_hgrunt_kick1@@3Ucvar_s@@A 10074ca8     game.obj
 0003:00003cc0       ?sk_hgrunt_kick2@@3Ucvar_s@@A 10074cc0     game.obj
 0003:00003cd8       ?sk_hgrunt_kick3@@3Ucvar_s@@A 10074cd8     game.obj
 0003:00003cf0       ?sk_hgrunt_pellets1@@3Ucvar_s@@A 10074cf0     game.obj
 0003:00003d08       ?sk_hgrunt_pellets2@@3Ucvar_s@@A 10074d08     game.obj
 0003:00003d20       ?sk_hgrunt_pellets3@@3Ucvar_s@@A 10074d20     game.obj
 0003:00003d38       ?sk_hgrunt_gspeed1@@3Ucvar_s@@A 10074d38     game.obj
 0003:00003d50       ?sk_hgrunt_gspeed2@@3Ucvar_s@@A 10074d50     game.obj
 0003:00003d68       ?sk_hgrunt_gspeed3@@3Ucvar_s@@A 10074d68     game.obj
 0003:00003d80       ?sk_houndeye_health1@@3Ucvar_s@@A 10074d80     game.obj
 0003:00003d98       ?sk_houndeye_health2@@3Ucvar_s@@A 10074d98     game.obj
 0003:00003db0       ?sk_houndeye_health3@@3Ucvar_s@@A 10074db0     game.obj
 0003:00003dc8       ?sk_houndeye_dmg_blast1@@3Ucvar_s@@A 10074dc8     game.obj
 0003:00003de0       ?sk_houndeye_dmg_blast2@@3Ucvar_s@@A 10074de0     game.obj
 0003:00003df8       ?sk_houndeye_dmg_blast3@@3Ucvar_s@@A 10074df8     game.obj
 0003:00003e10       ?sk_islave_health1@@3Ucvar_s@@A 10074e10     game.obj
 0003:00003e28       ?sk_islave_health2@@3Ucvar_s@@A 10074e28     game.obj
 0003:00003e40       ?sk_islave_health3@@3Ucvar_s@@A 10074e40     game.obj
 0003:00003e58       ?sk_islave_dmg_claw1@@3Ucvar_s@@A 10074e58     game.obj
 0003:00003e70       ?sk_islave_dmg_claw2@@3Ucvar_s@@A 10074e70     game.obj
 0003:00003e88       ?sk_islave_dmg_claw3@@3Ucvar_s@@A 10074e88     game.obj
 0003:00003ea0       ?sk_islave_dmg_clawrake1@@3Ucvar_s@@A 10074ea0     game.obj
 0003:00003eb8       ?sk_islave_dmg_clawrake2@@3Ucvar_s@@A 10074eb8     game.obj
 0003:00003ed0       ?sk_islave_dmg_clawrake3@@3Ucvar_s@@A 10074ed0     game.obj
 0003:00003ee8       ?sk_islave_dmg_zap1@@3Ucvar_s@@A 10074ee8     game.obj
 0003:00003f00       ?sk_islave_dmg_zap2@@3Ucvar_s@@A 10074f00     game.obj
 0003:00003f18       ?sk_islave_dmg_zap3@@3Ucvar_s@@A 10074f18     game.obj
 0003:00003f30       ?sk_ichthyosaur_health1@@3Ucvar_s@@A 10074f30     game.obj
 0003:00003f48       ?sk_ichthyosaur_health2@@3Ucvar_s@@A 10074f48     game.obj
 0003:00003f60       ?sk_ichthyosaur_health3@@3Ucvar_s@@A 10074f60     game.obj
 0003:00003f78       ?sk_ichthyosaur_shake1@@3Ucvar_s@@A 10074f78     game.obj
 0003:00003f90       ?sk_ichthyosaur_shake2@@3Ucvar_s@@A 10074f90     game.obj
 0003:00003fa8       ?sk_ichthyosaur_shake3@@3Ucvar_s@@A 10074fa8     game.obj
 0003:00003fc0       ?sk_leech_health1@@3Ucvar_s@@A 10074fc0     game.obj
 0003:00003fd8       ?sk_leech_health2@@3Ucvar_s@@A 10074fd8     game.obj
 0003:00003ff0       ?sk_leech_health3@@3Ucvar_s@@A 10074ff0     game.obj
 0003:00004008       ?sk_leech_dmg_bite1@@3Ucvar_s@@A 10075008     game.obj
 0003:00004020       ?sk_leech_dmg_bite2@@3Ucvar_s@@A 10075020     game.obj
 0003:00004038       ?sk_leech_dmg_bite3@@3Ucvar_s@@A 10075038     game.obj
 0003:00004050       ?sk_controller_health1@@3Ucvar_s@@A 10075050     game.obj
 0003:00004068       ?sk_controller_health2@@3Ucvar_s@@A 10075068     game.obj
 0003:00004080       ?sk_controller_health3@@3Ucvar_s@@A 10075080     game.obj
 0003:00004098       ?sk_controller_dmgzap1@@3Ucvar_s@@A 10075098     game.obj
 0003:000040b0       ?sk_controller_dmgzap2@@3Ucvar_s@@A 100750b0     game.obj
 0003:000040c8       ?sk_controller_dmgzap3@@3Ucvar_s@@A 100750c8     game.obj
 0003:000040e0       ?sk_controller_speedball1@@3Ucvar_s@@A 100750e0     game.obj
 0003:000040f8       ?sk_controller_speedball2@@3Ucvar_s@@A 100750f8     game.obj
 0003:00004110       ?sk_controller_speedball3@@3Ucvar_s@@A 10075110     game.obj
 0003:00004128       ?sk_controller_dmgball1@@3Ucvar_s@@A 10075128     game.obj
 0003:00004140       ?sk_controller_dmgball2@@3Ucvar_s@@A 10075140     game.obj
 0003:00004158       ?sk_controller_dmgball3@@3Ucvar_s@@A 10075158     game.obj
 0003:00004170       ?sk_nihilanth_health1@@3Ucvar_s@@A 10075170     game.obj
 0003:00004188       ?sk_nihilanth_health2@@3Ucvar_s@@A 10075188     game.obj
 0003:000041a0       ?sk_nihilanth_health3@@3Ucvar_s@@A 100751a0     game.obj
 0003:000041b8       ?sk_nihilanth_zap1@@3Ucvar_s@@A 100751b8     game.obj
 0003:000041d0       ?sk_nihilanth_zap2@@3Ucvar_s@@A 100751d0     game.obj
 0003:000041e8       ?sk_nihilanth_zap3@@3Ucvar_s@@A 100751e8     game.obj
 0003:00004200       ?sk_scientist_health1@@3Ucvar_s@@A 10075200     game.obj
 0003:00004218       ?sk_scientist_health2@@3Ucvar_s@@A 10075218     game.obj
 0003:00004230       ?sk_scientist_health3@@3Ucvar_s@@A 10075230     game.obj
 0003:00004248       ?sk_snark_health1@@3Ucvar_s@@A 10075248     game.obj
 0003:00004260       ?sk_snark_health2@@3Ucvar_s@@A 10075260     game.obj
 0003:00004278       ?sk_snark_health3@@3Ucvar_s@@A 10075278     game.obj
 0003:00004290       ?sk_snark_dmg_bite1@@3Ucvar_s@@A 10075290     game.obj
 0003:000042a8       ?sk_snark_dmg_bite2@@3Ucvar_s@@A 100752a8     game.obj
 0003:000042c0       ?sk_snark_dmg_bite3@@3Ucvar_s@@A 100752c0     game.obj
 0003:000042d8       ?sk_snark_dmg_pop1@@3Ucvar_s@@A 100752d8     game.obj
 0003:000042f0       ?sk_snark_dmg_pop2@@3Ucvar_s@@A 100752f0     game.obj
 0003:00004308       ?sk_snark_dmg_pop3@@3Ucvar_s@@A 10075308     game.obj
 0003:00004320       ?sk_zombie_health1@@3Ucvar_s@@A 10075320     game.obj
 0003:00004338       ?sk_zombie_health2@@3Ucvar_s@@A 10075338     game.obj
 0003:00004350       ?sk_zombie_health3@@3Ucvar_s@@A 10075350     game.obj
 0003:00004368       ?sk_zombie_dmg_one_slash1@@3Ucvar_s@@A 10075368     game.obj
 0003:00004380       ?sk_zombie_dmg_one_slash2@@3Ucvar_s@@A 10075380     game.obj
 0003:00004398       ?sk_zombie_dmg_one_slash3@@3Ucvar_s@@A 10075398     game.obj
 0003:000043b0       ?sk_zombie_dmg_both_slash1@@3Ucvar_s@@A 100753b0     game.obj
 0003:000043c8       ?sk_zombie_dmg_both_slash2@@3Ucvar_s@@A 100753c8     game.obj
 0003:000043e0       ?sk_zombie_dmg_both_slash3@@3Ucvar_s@@A 100753e0     game.obj
 0003:000043f8       ?sk_turret_health1@@3Ucvar_s@@A 100753f8     game.obj
 0003:00004410       ?sk_turret_health2@@3Ucvar_s@@A 10075410     game.obj
 0003:00004428       ?sk_turret_health3@@3Ucvar_s@@A 10075428     game.obj
 0003:00004440       ?sk_miniturret_health1@@3Ucvar_s@@A 10075440     game.obj
 0003:00004458       ?sk_miniturret_health2@@3Ucvar_s@@A 10075458     game.obj
 0003:00004470       ?sk_miniturret_health3@@3Ucvar_s@@A 10075470     game.obj
 0003:00004488       ?sk_sentry_health1@@3Ucvar_s@@A 10075488     game.obj
 0003:000044a0       ?sk_sentry_health2@@3Ucvar_s@@A 100754a0     game.obj
 0003:000044b8       ?sk_sentry_health3@@3Ucvar_s@@A 100754b8     game.obj
 0003:000044d0       ?sk_plr_crowbar1@@3Ucvar_s@@A 100754d0     game.obj
 0003:000044e8       ?sk_plr_crowbar2@@3Ucvar_s@@A 100754e8     game.obj
 0003:00004500       ?sk_plr_crowbar3@@3Ucvar_s@@A 10075500     game.obj
 0003:00004518       ?sk_plr_9mm_bullet1@@3Ucvar_s@@A 10075518     game.obj
 0003:00004530       ?sk_plr_9mm_bullet2@@3Ucvar_s@@A 10075530     game.obj
 0003:00004548       ?sk_plr_9mm_bullet3@@3Ucvar_s@@A 10075548     game.obj
 0003:00004560       ?sk_plr_357_bullet1@@3Ucvar_s@@A 10075560     game.obj
 0003:00004578       ?sk_plr_357_bullet2@@3Ucvar_s@@A 10075578     game.obj
 0003:00004590       ?sk_plr_357_bullet3@@3Ucvar_s@@A 10075590     game.obj
 0003:000045a8       ?sk_plr_9mmAR_bullet1@@3Ucvar_s@@A 100755a8     game.obj
 0003:000045c0       ?sk_plr_9mmAR_bullet2@@3Ucvar_s@@A 100755c0     game.obj
 0003:000045d8       ?sk_plr_9mmAR_bullet3@@3Ucvar_s@@A 100755d8     game.obj
 0003:000045f0       ?sk_plr_9mmAR_grenade1@@3Ucvar_s@@A 100755f0     game.obj
 0003:00004608       ?sk_plr_9mmAR_grenade2@@3Ucvar_s@@A 10075608     game.obj
 0003:00004620       ?sk_plr_9mmAR_grenade3@@3Ucvar_s@@A 10075620     game.obj
 0003:00004638       ?sk_plr_buckshot1@@3Ucvar_s@@A 10075638     game.obj
 0003:00004650       ?sk_plr_buckshot2@@3Ucvar_s@@A 10075650     game.obj
 0003:00004668       ?sk_plr_buckshot3@@3Ucvar_s@@A 10075668     game.obj
 0003:00004680       ?sk_plr_xbow_bolt_client1@@3Ucvar_s@@A 10075680     game.obj
 0003:00004698       ?sk_plr_xbow_bolt_client2@@3Ucvar_s@@A 10075698     game.obj
 0003:000046b0       ?sk_plr_xbow_bolt_client3@@3Ucvar_s@@A 100756b0     game.obj
 0003:000046c8       ?sk_plr_xbow_bolt_monster1@@3Ucvar_s@@A 100756c8     game.obj
 0003:000046e0       ?sk_plr_xbow_bolt_monster2@@3Ucvar_s@@A 100756e0     game.obj
 0003:000046f8       ?sk_plr_xbow_bolt_monster3@@3Ucvar_s@@A 100756f8     game.obj
 0003:00004710       ?sk_plr_rpg1@@3Ucvar_s@@A  10075710     game.obj
 0003:00004728       ?sk_plr_rpg2@@3Ucvar_s@@A  10075728     game.obj
 0003:00004740       ?sk_plr_rpg3@@3Ucvar_s@@A  10075740     game.obj
 0003:00004758       ?sk_plr_gauss1@@3Ucvar_s@@A 10075758     game.obj
 0003:00004770       ?sk_plr_gauss2@@3Ucvar_s@@A 10075770     game.obj
 0003:00004788       ?sk_plr_gauss3@@3Ucvar_s@@A 10075788     game.obj
 0003:000047a0       ?sk_plr_egon_narrow1@@3Ucvar_s@@A 100757a0     game.obj
 0003:000047b8       ?sk_plr_egon_narrow2@@3Ucvar_s@@A 100757b8     game.obj
 0003:000047d0       ?sk_plr_egon_narrow3@@3Ucvar_s@@A 100757d0     game.obj
 0003:000047e8       ?sk_plr_egon_wide1@@3Ucvar_s@@A 100757e8     game.obj
 0003:00004800       ?sk_plr_egon_wide2@@3Ucvar_s@@A 10075800     game.obj
 0003:00004818       ?sk_plr_egon_wide3@@3Ucvar_s@@A 10075818     game.obj
 0003:00004830       ?sk_plr_hand_grenade1@@3Ucvar_s@@A 10075830     game.obj
 0003:00004848       ?sk_plr_hand_grenade2@@3Ucvar_s@@A 10075848     game.obj
 0003:00004860       ?sk_plr_hand_grenade3@@3Ucvar_s@@A 10075860     game.obj
 0003:00004878       ?sk_plr_satchel1@@3Ucvar_s@@A 10075878     game.obj
 0003:00004890       ?sk_plr_satchel2@@3Ucvar_s@@A 10075890     game.obj
 0003:000048a8       ?sk_plr_satchel3@@3Ucvar_s@@A 100758a8     game.obj
 0003:000048c0       ?sk_plr_tripmine1@@3Ucvar_s@@A 100758c0     game.obj
 0003:000048d8       ?sk_plr_tripmine2@@3Ucvar_s@@A 100758d8     game.obj
 0003:000048f0       ?sk_plr_tripmine3@@3Ucvar_s@@A 100758f0     game.obj
 0003:00004908       ?sk_12mm_bullet1@@3Ucvar_s@@A 10075908     game.obj
 0003:00004920       ?sk_12mm_bullet2@@3Ucvar_s@@A 10075920     game.obj
 0003:00004938       ?sk_12mm_bullet3@@3Ucvar_s@@A 10075938     game.obj
 0003:00004950       ?sk_9mmAR_bullet1@@3Ucvar_s@@A 10075950     game.obj
 0003:00004968       ?sk_9mmAR_bullet2@@3Ucvar_s@@A 10075968     game.obj
 0003:00004980       ?sk_9mmAR_bullet3@@3Ucvar_s@@A 10075980     game.obj
 0003:00004998       ?sk_9mm_bullet1@@3Ucvar_s@@A 10075998     game.obj
 0003:000049b0       ?sk_9mm_bullet2@@3Ucvar_s@@A 100759b0     game.obj
 0003:000049c8       ?sk_9mm_bullet3@@3Ucvar_s@@A 100759c8     game.obj
 0003:000049e0       ?sk_hornet_dmg1@@3Ucvar_s@@A 100759e0     game.obj
 0003:000049f8       ?sk_hornet_dmg2@@3Ucvar_s@@A 100759f8     game.obj
 0003:00004a10       ?sk_hornet_dmg3@@3Ucvar_s@@A 10075a10     game.obj
 0003:00004a28       ?sk_suitcharger1@@3Ucvar_s@@A 10075a28     game.obj
 0003:00004a40       ?sk_suitcharger2@@3Ucvar_s@@A 10075a40     game.obj
 0003:00004a58       ?sk_suitcharger3@@3Ucvar_s@@A 10075a58     game.obj
 0003:00004a70       ?sk_battery1@@3Ucvar_s@@A  10075a70     game.obj
 0003:00004a88       ?sk_battery2@@3Ucvar_s@@A  10075a88     game.obj
 0003:00004aa0       ?sk_battery3@@3Ucvar_s@@A  10075aa0     game.obj
 0003:00004ab8       ?sk_healthcharger1@@3Ucvar_s@@A 10075ab8     game.obj
 0003:00004ad0       ?sk_healthcharger2@@3Ucvar_s@@A 10075ad0     game.obj
 0003:00004ae8       ?sk_healthcharger3@@3Ucvar_s@@A 10075ae8     game.obj
 0003:00004b00       ?sk_healthkit1@@3Ucvar_s@@A 10075b00     game.obj
 0003:00004b18       ?sk_healthkit2@@3Ucvar_s@@A 10075b18     game.obj
 0003:00004b30       ?sk_healthkit3@@3Ucvar_s@@A 10075b30     game.obj
 0003:00004b48       ?sk_scientist_heal1@@3Ucvar_s@@A 10075b48     game.obj
 0003:00004b60       ?sk_scientist_heal2@@3Ucvar_s@@A 10075b60     game.obj
 0003:00004b78       ?sk_scientist_heal3@@3Ucvar_s@@A 10075b78     game.obj
 0003:00004b90       ?sk_monster_head1@@3Ucvar_s@@A 10075b90     game.obj
 0003:00004ba8       ?sk_monster_head2@@3Ucvar_s@@A 10075ba8     game.obj
 0003:00004bc0       ?sk_monster_head3@@3Ucvar_s@@A 10075bc0     game.obj
 0003:00004bd8       ?sk_monster_chest1@@3Ucvar_s@@A 10075bd8     game.obj
 0003:00004bf0       ?sk_monster_chest2@@3Ucvar_s@@A 10075bf0     game.obj
 0003:00004c08       ?sk_monster_chest3@@3Ucvar_s@@A 10075c08     game.obj
 0003:00004c20       ?sk_monster_stomach1@@3Ucvar_s@@A 10075c20     game.obj
 0003:00004c38       ?sk_monster_stomach2@@3Ucvar_s@@A 10075c38     game.obj
 0003:00004c50       ?sk_monster_stomach3@@3Ucvar_s@@A 10075c50     game.obj
 0003:00004c68       ?sk_monster_arm1@@3Ucvar_s@@A 10075c68     game.obj
 0003:00004c80       ?sk_monster_arm2@@3Ucvar_s@@A 10075c80     game.obj
 0003:00004c98       ?sk_monster_arm3@@3Ucvar_s@@A 10075c98     game.obj
 0003:00004cb0       ?sk_monster_leg1@@3Ucvar_s@@A 10075cb0     game.obj
 0003:00004cc8       ?sk_monster_leg2@@3Ucvar_s@@A 10075cc8     game.obj
 0003:00004ce0       ?sk_monster_leg3@@3Ucvar_s@@A 10075ce0     game.obj
 0003:00004cf8       ?sk_player_head1@@3Ucvar_s@@A 10075cf8     game.obj
 0003:00004d10       ?sk_player_head2@@3Ucvar_s@@A 10075d10     game.obj
 0003:00004d28       ?sk_player_head3@@3Ucvar_s@@A 10075d28     game.obj
 0003:00004d40       ?sk_player_chest1@@3Ucvar_s@@A 10075d40     game.obj
 0003:00004d58       ?sk_player_chest2@@3Ucvar_s@@A 10075d58     game.obj
 0003:00004d70       ?sk_player_chest3@@3Ucvar_s@@A 10075d70     game.obj
 0003:00004d88       ?sk_player_stomach1@@3Ucvar_s@@A 10075d88     game.obj
 0003:00004da0       ?sk_player_stomach2@@3Ucvar_s@@A 10075da0     game.obj
 0003:00004db8       ?sk_player_stomach3@@3Ucvar_s@@A 10075db8     game.obj
 0003:00004dd0       ?sk_player_arm1@@3Ucvar_s@@A 10075dd0     game.obj
 0003:00004de8       ?sk_player_arm2@@3Ucvar_s@@A 10075de8     game.obj
 0003:00004e00       ?sk_player_arm3@@3Ucvar_s@@A 10075e00     game.obj
 0003:00004e18       ?sk_player_leg1@@3Ucvar_s@@A 10075e18     game.obj
 0003:00004e30       ?sk_player_leg2@@3Ucvar_s@@A 10075e30     game.obj
 0003:00004e48       ?sk_player_leg3@@3Ucvar_s@@A 10075e48     game.obj
 0003:00004e5c       ??_C@_0P@BCNH@sk_player_leg3?$AA@ 10075e5c     game.obj
 0003:00004e6c       ??_C@_0P@LIEA@sk_player_leg2?$AA@ 10075e6c     game.obj
 0003:00004e7c       ??_C@_0P@EHPJ@sk_player_leg1?$AA@ 10075e7c     game.obj
 0003:00004e8c       ??_C@_0P@IPFH@sk_player_arm3?$AA@ 10075e8c     game.obj
 0003:00004e9c       ??_C@_0P@CFMA@sk_player_arm2?$AA@ 10075e9c     game.obj
 0003:00004eac       ??_C@_0P@NKHJ@sk_player_arm1?$AA@ 10075eac     game.obj
 0003:00004ebc       ??_C@_0BD@DAFM@sk_player_stomach3?$AA@ 10075ebc     game.obj
 0003:00004ed0       ??_C@_0BD@JKML@sk_player_stomach2?$AA@ 10075ed0     game.obj
 0003:00004ee4       ??_C@_0BD@GFHC@sk_player_stomach1?$AA@ 10075ee4     game.obj
 0003:00004ef8       ??_C@_0BB@OGF@sk_player_chest3?$AA@ 10075ef8     game.obj
 0003:00004f0c       ??_C@_0BB@KEPC@sk_player_chest2?$AA@ 10075f0c     game.obj
 0003:00004f20       ??_C@_0BB@FLEL@sk_player_chest1?$AA@ 10075f20     game.obj
 0003:00004f34       ??_C@_0BA@IEIA@sk_player_head3?$AA@ 10075f34     game.obj
 0003:00004f44       ??_C@_0BA@COBH@sk_player_head2?$AA@ 10075f44     game.obj
 0003:00004f54       ??_C@_0BA@NBKO@sk_player_head1?$AA@ 10075f54     game.obj
 0003:00004f64       ??_C@_0BA@LNBC@sk_monster_leg3?$AA@ 10075f64     game.obj
 0003:00004f74       ??_C@_0BA@BHIF@sk_monster_leg2?$AA@ 10075f74     game.obj
 0003:00004f84       ??_C@_0BA@OIDM@sk_monster_leg1?$AA@ 10075f84     game.obj
 0003:00004f94       ??_C@_0BA@CAJC@sk_monster_arm3?$AA@ 10075f94     game.obj
 0003:00004fa4       ??_C@_0BA@IKAF@sk_monster_arm2?$AA@ 10075fa4     game.obj
 0003:00004fb4       ??_C@_0BA@HFLM@sk_monster_arm1?$AA@ 10075fb4     game.obj
 0003:00004fc4       ??_C@_0BE@CGJA@sk_monster_stomach3?$AA@ 10075fc4     game.obj
 0003:00004fd8       ??_C@_0BE@IMAH@sk_monster_stomach2?$AA@ 10075fd8     game.obj
 0003:00004fec       ??_C@_0BE@HDLO@sk_monster_stomach1?$AA@ 10075fec     game.obj
 0003:00005000       ??_C@_0BC@LGCE@sk_monster_chest3?$AA@ 10076000     game.obj
 0003:00005014       ??_C@_0BC@BMLD@sk_monster_chest2?$AA@ 10076014     game.obj
 0003:00005028       ??_C@_0BC@ODAK@sk_monster_chest1?$AA@ 10076028     game.obj
 0003:0000503c       ??_C@_0BB@MFCP@sk_monster_head3?$AA@ 1007603c     game.obj
 0003:00005050       ??_C@_0BB@GPLI@sk_monster_head2?$AA@ 10076050     game.obj
 0003:00005064       ??_C@_01KOLO@2?$AA@        10076064     game.obj
 0003:00005068       ??_C@_0BB@JAAB@sk_monster_head1?$AA@ 10076068     game.obj
 0003:0000507c       ??_C@_0BD@JHJF@sk_scientist_heal3?$AA@ 1007607c     game.obj
 0003:00005090       ??_C@_0BD@DNAC@sk_scientist_heal2?$AA@ 10076090     game.obj
 0003:000050a4       ??_C@_0BD@MCLL@sk_scientist_heal1?$AA@ 100760a4     game.obj
 0003:000050b8       ??_C@_0O@PHMB@sk_healthkit3?$AA@ 100760b8     game.obj
 0003:000050c8       ??_C@_0O@FNFG@sk_healthkit2?$AA@ 100760c8     game.obj
 0003:000050d8       ??_C@_0O@KCOP@sk_healthkit1?$AA@ 100760d8     game.obj
 0003:000050e8       ??_C@_0BC@MALD@sk_healthcharger3?$AA@ 100760e8     game.obj
 0003:000050fc       ??_C@_0BC@GKCE@sk_healthcharger2?$AA@ 100760fc     game.obj
 0003:00005110       ??_C@_0BC@JFJN@sk_healthcharger1?$AA@ 10076110     game.obj
 0003:00005124       ??_C@_0M@EOGF@sk_battery3?$AA@ 10076124     game.obj
 0003:00005130       ??_C@_0M@OEPC@sk_battery2?$AA@ 10076130     game.obj
 0003:0000513c       ??_C@_0M@BLEL@sk_battery1?$AA@ 1007613c     game.obj
 0003:00005148       ??_C@_0BA@JBOI@sk_suitcharger3?$AA@ 10076148     game.obj
 0003:00005158       ??_C@_0BA@DLHP@sk_suitcharger2?$AA@ 10076158     game.obj
 0003:00005168       ??_C@_0BA@MEMG@sk_suitcharger1?$AA@ 10076168     game.obj
 0003:00005178       ??_C@_0P@KBIM@sk_hornet_dmg3?$AA@ 10076178     game.obj
 0003:00005188       ??_C@_0P@LBL@sk_hornet_dmg2?$AA@ 10076188     game.obj
 0003:00005198       ??_C@_0P@PEKC@sk_hornet_dmg1?$AA@ 10076198     game.obj
 0003:000051a8       ??_C@_0P@LIAO@sk_9mm_bullet3?$AA@ 100761a8     game.obj
 0003:000051b8       ??_C@_0P@BCJJ@sk_9mm_bullet2?$AA@ 100761b8     game.obj
 0003:000051c8       ??_C@_0P@ONCA@sk_9mm_bullet1?$AA@ 100761c8     game.obj
 0003:000051d8       ??_C@_0BB@NGIM@sk_9mmAR_bullet3?$AA@ 100761d8     game.obj
 0003:000051ec       ??_C@_0BB@HMBL@sk_9mmAR_bullet2?$AA@ 100761ec     game.obj
 0003:00005200       ??_C@_0BB@IDKC@sk_9mmAR_bullet1?$AA@ 10076200     game.obj
 0003:00005214       ??_C@_0BA@PPIL@sk_12mm_bullet3?$AA@ 10076214     game.obj
 0003:00005224       ??_C@_0BA@FFBM@sk_12mm_bullet2?$AA@ 10076224     game.obj
 0003:00005234       ??_C@_0BA@KKKF@sk_12mm_bullet1?$AA@ 10076234     game.obj
 0003:00005244       ??_C@_0BB@NHIO@sk_plr_tripmine3?$AA@ 10076244     game.obj
 0003:00005258       ??_C@_0BB@HNBJ@sk_plr_tripmine2?$AA@ 10076258     game.obj
 0003:0000526c       ??_C@_0BB@ICKA@sk_plr_tripmine1?$AA@ 1007626c     game.obj
 0003:00005280       ??_C@_0BA@KFJJ@sk_plr_satchel3?$AA@ 10076280     game.obj
 0003:00005290       ??_C@_0BA@PAO@sk_plr_satchel2?$AA@ 10076290     game.obj
 0003:000052a0       ??_C@_0BA@PALH@sk_plr_satchel1?$AA@ 100762a0     game.obj
 0003:000052b0       ??_C@_0BF@NDBC@sk_plr_hand_grenade3?$AA@ 100762b0     game.obj
 0003:000052c8       ??_C@_0BF@HJIF@sk_plr_hand_grenade2?$AA@ 100762c8     game.obj
 0003:000052e0       ??_C@_0BF@IGDM@sk_plr_hand_grenade1?$AA@ 100762e0     game.obj
 0003:000052f8       ??_C@_0BC@KJCC@sk_plr_egon_wide3?$AA@ 100762f8     game.obj
 0003:0000530c       ??_C@_0BC@DLF@sk_plr_egon_wide2?$AA@ 1007630c     game.obj
 0003:00005320       ??_C@_0BC@PMAM@sk_plr_egon_wide1?$AA@ 10076320     game.obj
 0003:00005334       ??_C@_0BE@EB@sk_plr_egon_narrow3?$AA@ 10076334     game.obj
 0003:00005348       ??_C@_0BE@KKNG@sk_plr_egon_narrow2?$AA@ 10076348     game.obj
 0003:0000535c       ??_C@_0BE@FFGP@sk_plr_egon_narrow1?$AA@ 1007635c     game.obj
 0003:00005370       ??_C@_0O@CGCD@sk_plr_gauss3?$AA@ 10076370     game.obj
 0003:00005380       ??_C@_0O@IMLE@sk_plr_gauss2?$AA@ 10076380     game.obj
 0003:00005390       ??_C@_0O@HDAN@sk_plr_gauss1?$AA@ 10076390     game.obj
 0003:000053a0       ??_C@_0M@IHCA@sk_plr_rpg3?$AA@ 100763a0     game.obj
 0003:000053ac       ??_C@_0M@CNLH@sk_plr_rpg2?$AA@ 100763ac     game.obj
 0003:000053b8       ??_C@_0M@NCAO@sk_plr_rpg1?$AA@ 100763b8     game.obj
 0003:000053c4       ??_C@_0BK@IJPH@sk_plr_xbow_bolt_monster3?$AA@ 100763c4     game.obj
 0003:000053e0       ??_C@_0BK@CDGA@sk_plr_xbow_bolt_monster2?$AA@ 100763e0     game.obj
 0003:000053fc       ??_C@_0BK@NMNJ@sk_plr_xbow_bolt_monster1?$AA@ 100763fc     game.obj
 0003:00005418       ??_C@_0BJ@HPFN@sk_plr_xbow_bolt_client3?$AA@ 10076418     game.obj
 0003:00005434       ??_C@_0BJ@NFMK@sk_plr_xbow_bolt_client2?$AA@ 10076434     game.obj
 0003:00005450       ??_C@_0BJ@CKHD@sk_plr_xbow_bolt_client1?$AA@ 10076450     game.obj
 0003:0000546c       ??_C@_0BB@COPH@sk_plr_buckshot3?$AA@ 1007646c     game.obj
 0003:00005480       ??_C@_0BB@IEGA@sk_plr_buckshot2?$AA@ 10076480     game.obj
 0003:00005494       ??_C@_0BB@HLNJ@sk_plr_buckshot1?$AA@ 10076494     game.obj
 0003:000054a8       ??_C@_0BG@DHFH@sk_plr_9mmAR_grenade3?$AA@ 100764a8     game.obj
 0003:000054c0       ??_C@_0BG@JNMA@sk_plr_9mmAR_grenade2?$AA@ 100764c0     game.obj
 0003:000054d8       ??_C@_0BG@GCHJ@sk_plr_9mmAR_grenade1?$AA@ 100764d8     game.obj
 0003:000054f0       ??_C@_0BF@DINM@sk_plr_9mmAR_bullet3?$AA@ 100764f0     game.obj
 0003:00005508       ??_C@_0BF@JCEL@sk_plr_9mmAR_bullet2?$AA@ 10076508     game.obj
 0003:00005520       ??_C@_0BF@GNPC@sk_plr_9mmAR_bullet1?$AA@ 10076520     game.obj
 0003:00005538       ??_C@_0BD@DFD@sk_plr_357_bullet3?$AA@ 10076538     game.obj
 0003:0000554c       ??_C@_0BD@KJME@sk_plr_357_bullet2?$AA@ 1007654c     game.obj
 0003:00005560       ??_C@_0BD@FGHN@sk_plr_357_bullet1?$AA@ 10076560     game.obj
 0003:00005574       ??_C@_0BD@NAMO@sk_plr_9mm_bullet3?$AA@ 10076574     game.obj
 0003:00005588       ??_C@_0BD@HKFJ@sk_plr_9mm_bullet2?$AA@ 10076588     game.obj
 0003:0000559c       ??_C@_0BD@IFOA@sk_plr_9mm_bullet1?$AA@ 1007659c     game.obj
 0003:000055b0       ??_C@_0BA@PGNL@sk_plr_crowbar3?$AA@ 100765b0     game.obj
 0003:000055c0       ??_C@_0BA@FMEM@sk_plr_crowbar2?$AA@ 100765c0     game.obj
 0003:000055d0       ??_C@_0BA@KDPF@sk_plr_crowbar1?$AA@ 100765d0     game.obj
 0003:000055e0       ??_C@_0BC@OFCE@sk_sentry_health3?$AA@ 100765e0     game.obj
 0003:000055f4       ??_C@_0BC@EPLD@sk_sentry_health2?$AA@ 100765f4     game.obj
 0003:00005608       ??_C@_0BC@LAAK@sk_sentry_health1?$AA@ 10076608     game.obj
 0003:0000561c       ??_C@_0BG@IKAM@sk_miniturret_health3?$AA@ 1007661c     game.obj
 0003:00005634       ??_C@_0BG@CAJL@sk_miniturret_health2?$AA@ 10076634     game.obj
 0003:0000564c       ??_C@_0BG@NPCC@sk_miniturret_health1?$AA@ 1007664c     game.obj
 0003:00005664       ??_C@_0BC@GBHI@sk_turret_health3?$AA@ 10076664     game.obj
 0003:00005678       ??_C@_0BC@MLOP@sk_turret_health2?$AA@ 10076678     game.obj
 0003:0000568c       ??_C@_0BC@DEFG@sk_turret_health1?$AA@ 1007668c     game.obj
 0003:000056a0       ??_C@_0BK@GLOE@sk_zombie_dmg_both_slash3?$AA@ 100766a0     game.obj
 0003:000056bc       ??_C@_0BK@MBHD@sk_zombie_dmg_both_slash2?$AA@ 100766bc     game.obj
 0003:000056d8       ??_C@_0BK@DOMK@sk_zombie_dmg_both_slash1?$AA@ 100766d8     game.obj
 0003:000056f4       ??_C@_0BJ@IJDG@sk_zombie_dmg_one_slash3?$AA@ 100766f4     game.obj
 0003:00005710       ??_C@_0BJ@CDKB@sk_zombie_dmg_one_slash2?$AA@ 10076710     game.obj
 0003:0000572c       ??_C@_0BJ@NMBI@sk_zombie_dmg_one_slash1?$AA@ 1007672c     game.obj
 0003:00005748       ??_C@_0BC@CCDK@sk_zombie_health3?$AA@ 10076748     game.obj
 0003:0000575c       ??_C@_0BC@IIKN@sk_zombie_health2?$AA@ 1007675c     game.obj
 0003:00005770       ??_C@_0BC@HHBE@sk_zombie_health1?$AA@ 10076770     game.obj
 0003:00005784       ??_C@_0BC@FBAI@sk_snark_dmg_pop3?$AA@ 10076784     game.obj
 0003:00005798       ??_C@_0BC@PLJP@sk_snark_dmg_pop2?$AA@ 10076798     game.obj
 0003:000057ac       ??_C@_0BC@ECG@sk_snark_dmg_pop1?$AA@ 100767ac     game.obj
 0003:000057c0       ??_C@_0BD@OACC@sk_snark_dmg_bite3?$AA@ 100767c0     game.obj
 0003:000057d4       ??_C@_0BD@EKLF@sk_snark_dmg_bite2?$AA@ 100767d4     game.obj
 0003:000057e8       ??_C@_0BD@LFAM@sk_snark_dmg_bite1?$AA@ 100767e8     game.obj
 0003:000057fc       ??_C@_0BB@GBKM@sk_snark_health3?$AA@ 100767fc     game.obj
 0003:00005810       ??_C@_0BB@MLDL@sk_snark_health2?$AA@ 10076810     game.obj
 0003:00005824       ??_C@_0BB@DEIC@sk_snark_health1?$AA@ 10076824     game.obj
 0003:00005838       ??_C@_0BF@MPG@sk_scientist_health3?$AA@ 10076838     game.obj
 0003:00005850       ??_C@_0BF@KGGB@sk_scientist_health2?$AA@ 10076850     game.obj
 0003:00005868       ??_C@_0BF@FJNI@sk_scientist_health1?$AA@ 10076868     game.obj
 0003:00005880       ??_C@_0BC@GGMJ@sk_nihilanth_zap3?$AA@ 10076880     game.obj
 0003:00005894       ??_C@_0BC@MMFO@sk_nihilanth_zap2?$AA@ 10076894     game.obj
 0003:000058a8       ??_C@_0BC@DDOH@sk_nihilanth_zap1?$AA@ 100768a8     game.obj
 0003:000058bc       ??_C@_0BF@GEIM@sk_nihilanth_health3?$AA@ 100768bc     game.obj
 0003:000058d4       ??_C@_0BF@MOBL@sk_nihilanth_health2?$AA@ 100768d4     game.obj
 0003:000058ec       ??_C@_0BF@DBKC@sk_nihilanth_health1?$AA@ 100768ec     game.obj
 0003:00005904       ??_C@_0BH@CDKI@sk_controller_dmgball3?$AA@ 10076904     game.obj
 0003:0000591c       ??_C@_0BH@IJDP@sk_controller_dmgball2?$AA@ 1007691c     game.obj
 0003:00005934       ??_C@_0BH@HGIG@sk_controller_dmgball1?$AA@ 10076934     game.obj
 0003:0000594c       ??_C@_0BJ@IKLF@sk_controller_speedball3?$AA@ 1007694c     game.obj
 0003:00005968       ??_C@_0BJ@CACC@sk_controller_speedball2?$AA@ 10076968     game.obj
 0003:00005984       ??_C@_0BJ@NPJL@sk_controller_speedball1?$AA@ 10076984     game.obj
 0003:000059a0       ??_C@_0BG@HGFI@sk_controller_dmgzap3?$AA@ 100769a0     game.obj
 0003:000059b8       ??_C@_0BG@NMMP@sk_controller_dmgzap2?$AA@ 100769b8     game.obj
 0003:000059d0       ??_C@_0BG@CDHG@sk_controller_dmgzap1?$AA@ 100769d0     game.obj
 0003:000059e8       ??_C@_0BG@LLGL@sk_controller_health3?$AA@ 100769e8     game.obj
 0003:00005a00       ??_C@_0BG@BBPM@sk_controller_health2?$AA@ 10076a00     game.obj
 0003:00005a18       ??_C@_0BG@OOEF@sk_controller_health1?$AA@ 10076a18     game.obj
 0003:00005a30       ??_C@_0BD@LJFJ@sk_leech_dmg_bite3?$AA@ 10076a30     game.obj
 0003:00005a44       ??_C@_0BD@BDMO@sk_leech_dmg_bite2?$AA@ 10076a44     game.obj
 0003:00005a58       ??_C@_0BD@OMHH@sk_leech_dmg_bite1?$AA@ 10076a58     game.obj
 0003:00005a6c       ??_C@_0BB@MHG@sk_leech_health3?$AA@ 10076a6c     game.obj
 0003:00005a80       ??_C@_0BB@KGOB@sk_leech_health2?$AA@ 10076a80     game.obj
 0003:00005a94       ??_C@_0BB@FJFI@sk_leech_health1?$AA@ 10076a94     game.obj
 0003:00005aa8       ??_C@_0BG@KHND@sk_ichthyosaur_shake3?$AA@ 10076aa8     game.obj
 0003:00005ac0       ??_C@_0BG@NEE@sk_ichthyosaur_shake2?$AA@ 10076ac0     game.obj
 0003:00005ad8       ??_C@_0BG@PCPN@sk_ichthyosaur_shake1?$AA@ 10076ad8     game.obj
 0003:00005af0       ??_C@_0BH@HHID@sk_ichthyosaur_health3?$AA@ 10076af0     game.obj
 0003:00005b08       ??_C@_0BH@NNBE@sk_ichthyosaur_health2?$AA@ 10076b08     game.obj
 0003:00005b20       ??_C@_0BH@CCKN@sk_ichthyosaur_health1?$AA@ 10076b20     game.obj
 0003:00005b38       ??_C@_0BD@IPP@sk_islave_dmg_zap3?$AA@ 10076b38     game.obj
 0003:00005b4c       ??_C@_0BD@KCGI@sk_islave_dmg_zap2?$AA@ 10076b4c     game.obj
 0003:00005b60       ??_C@_0BD@FNNB@sk_islave_dmg_zap1?$AA@ 10076b60     game.obj
 0003:00005b74       ??_C@_0BI@GPKP@sk_islave_dmg_clawrake3?$AA@ 10076b74     game.obj
 0003:00005b8c       ??_C@_0BI@MFDI@sk_islave_dmg_clawrake2?$AA@ 10076b8c     game.obj
 0003:00005ba4       ??_C@_0BI@DKIB@sk_islave_dmg_clawrake1?$AA@ 10076ba4     game.obj
 0003:00005bbc       ??_C@_0BE@PCIC@sk_islave_dmg_claw3?$AA@ 10076bbc     game.obj
 0003:00005bd0       ??_C@_0BE@FIBF@sk_islave_dmg_claw2?$AA@ 10076bd0     game.obj
 0003:00005be4       ??_C@_0BE@KHKM@sk_islave_dmg_claw1?$AA@ 10076be4     game.obj
 0003:00005bf8       ??_C@_0BC@GANK@sk_islave_health3?$AA@ 10076bf8     game.obj
 0003:00005c0c       ??_C@_0BC@MKEN@sk_islave_health2?$AA@ 10076c0c     game.obj
 0003:00005c20       ??_C@_0BC@DFPE@sk_islave_health1?$AA@ 10076c20     game.obj
 0003:00005c34       ??_C@_0BH@LJFP@sk_houndeye_dmg_blast3?$AA@ 10076c34     game.obj
 0003:00005c4c       ??_C@_0BH@BDMI@sk_houndeye_dmg_blast2?$AA@ 10076c4c     game.obj
 0003:00005c64       ??_C@_0BH@OMHB@sk_houndeye_dmg_blast1?$AA@ 10076c64     game.obj
 0003:00005c7c       ??_C@_0BE@GEDF@sk_houndeye_health3?$AA@ 10076c7c     game.obj
 0003:00005c90       ??_C@_0BE@MOKC@sk_houndeye_health2?$AA@ 10076c90     game.obj
 0003:00005ca4       ??_C@_0BE@DBBL@sk_houndeye_health1?$AA@ 10076ca4     game.obj
 0003:00005cb8       ??_C@_0BC@IDOJ@sk_hgrunt_gspeed3?$AA@ 10076cb8     game.obj
 0003:00005ccc       ??_C@_0BC@CJHO@sk_hgrunt_gspeed2?$AA@ 10076ccc     game.obj
 0003:00005ce0       ??_C@_0BC@NGMH@sk_hgrunt_gspeed1?$AA@ 10076ce0     game.obj
 0003:00005cf4       ??_C@_0BD@HEOO@sk_hgrunt_pellets3?$AA@ 10076cf4     game.obj
 0003:00005d08       ??_C@_0BD@NOHJ@sk_hgrunt_pellets2?$AA@ 10076d08     game.obj
 0003:00005d1c       ??_C@_0BD@CBMA@sk_hgrunt_pellets1?$AA@ 10076d1c     game.obj
 0003:00005d30       ??_C@_0BA@HIHA@sk_hgrunt_kick3?$AA@ 10076d30     game.obj
 0003:00005d40       ??_C@_0BA@NCOH@sk_hgrunt_kick2?$AA@ 10076d40     game.obj
 0003:00005d50       ??_C@_0BA@CNFO@sk_hgrunt_kick1?$AA@ 10076d50     game.obj
 0003:00005d60       ??_C@_0BC@CIFO@sk_hgrunt_health3?$AA@ 10076d60     game.obj
 0003:00005d74       ??_C@_0BC@ICMJ@sk_hgrunt_health2?$AA@ 10076d74     game.obj
 0003:00005d88       ??_C@_0BC@HNHA@sk_hgrunt_health1?$AA@ 10076d88     game.obj
 0003:00005d9c       ??_C@_0BG@LHCM@sk_headcrab_dmg_bite3?$AA@ 10076d9c     game.obj
 0003:00005db4       ??_C@_0BG@BNLL@sk_headcrab_dmg_bite2?$AA@ 10076db4     game.obj
 0003:00005dcc       ??_C@_0BG@OCAC@sk_headcrab_dmg_bite1?$AA@ 10076dcc     game.obj
 0003:00005de4       ??_C@_0BE@KIJI@sk_headcrab_health3?$AA@ 10076de4     game.obj
 0003:00005df8       ??_C@_0BE@CAP@sk_headcrab_health2?$AA@ 10076df8     game.obj
 0003:00005e0c       ??_C@_0BE@PNLG@sk_headcrab_health1?$AA@ 10076e0c     game.obj
 0003:00005e20       ??_C@_0BF@PEDC@sk_hassassin_health3?$AA@ 10076e20     game.obj
 0003:00005e38       ??_C@_0BF@FOKF@sk_hassassin_health2?$AA@ 10076e38     game.obj
 0003:00005e50       ??_C@_0BF@KBBM@sk_hassassin_health1?$AA@ 10076e50     game.obj
 0003:00005e68       ??_C@_0BI@MNNL@sk_gargantua_dmg_stomp3?$AA@ 10076e68     game.obj
 0003:00005e80       ??_C@_0BI@GHEM@sk_gargantua_dmg_stomp2?$AA@ 10076e80     game.obj
 0003:00005e98       ??_C@_0BI@JIPF@sk_gargantua_dmg_stomp1?$AA@ 10076e98     game.obj
 0003:00005eb0       ??_C@_0BH@FLLE@sk_gargantua_dmg_fire3?$AA@ 10076eb0     game.obj
 0003:00005ec8       ??_C@_0BH@PBCD@sk_gargantua_dmg_fire2?$AA@ 10076ec8     game.obj
 0003:00005ee0       ??_C@_0BH@OJK@sk_gargantua_dmg_fire1?$AA@ 10076ee0     game.obj
 0003:00005ef8       ??_C@_0BI@LJIN@sk_gargantua_dmg_slash3?$AA@ 10076ef8     game.obj
 0003:00005f10       ??_C@_0BI@BDBK@sk_gargantua_dmg_slash2?$AA@ 10076f10     game.obj
 0003:00005f28       ??_C@_0BI@OMKD@sk_gargantua_dmg_slash1?$AA@ 10076f28     game.obj
 0003:00005f40       ??_C@_0BF@MBLP@sk_gargantua_health3?$AA@ 10076f40     game.obj
 0003:00005f58       ??_C@_0BF@GLCI@sk_gargantua_health2?$AA@ 10076f58     game.obj
 0003:00005f70       ??_C@_0BF@JEJB@sk_gargantua_health1?$AA@ 10076f70     game.obj
 0003:00005f88       ??_C@_0BK@HGHN@sk_bigmomma_radius_blast3?$AA@ 10076f88     game.obj
 0003:00005fa4       ??_C@_0BK@NMOK@sk_bigmomma_radius_blast2?$AA@ 10076fa4     game.obj
 0003:00005fc0       ??_C@_03MPPJ@250?$AA@      10076fc0     game.obj
 0003:00005fc4       ??_C@_0BK@CDFD@sk_bigmomma_radius_blast1?$AA@ 10076fc4     game.obj
 0003:00005fe0       ??_C@_0BH@LFFB@sk_bigmomma_dmg_blast3?$AA@ 10076fe0     game.obj
 0003:00005ff8       ??_C@_0BH@BPMG@sk_bigmomma_dmg_blast2?$AA@ 10076ff8     game.obj
 0003:00006010       ??_C@_03HFMC@100?$AA@      10077010     game.obj
 0003:00006014       ??_C@_0BH@OAHP@sk_bigmomma_dmg_blast1?$AA@ 10077014     game.obj
 0003:0000602c       ??_C@_0BH@PPKE@sk_bigmomma_dmg_slash3?$AA@ 1007702c     game.obj
 0003:00006044       ??_C@_0BH@FFDD@sk_bigmomma_dmg_slash2?$AA@ 10077044     game.obj
 0003:0000605c       ??_C@_02IGL@50?$AA@        1007705c     game.obj
 0003:00006060       ??_C@_0BH@KKIK@sk_bigmomma_dmg_slash1?$AA@ 10077060     game.obj
 0003:00006078       ??_C@_0BL@BGJG@sk_bigmomma_health_factor3?$AA@ 10077078     game.obj
 0003:00006094       ??_C@_0BL@LMAB@sk_bigmomma_health_factor2?$AA@ 10077094     game.obj
 0003:000060b0       ??_C@_03NNMA@1?40?$AA@     100770b0     game.obj
 0003:000060b4       ??_C@_0BL@EDLI@sk_bigmomma_health_factor1?$AA@ 100770b4     game.obj
 0003:000060d0       ??_C@_0BH@HPOE@sk_bullsquid_dmg_spit3?$AA@ 100770d0     game.obj
 0003:000060e8       ??_C@_0BH@NFHD@sk_bullsquid_dmg_spit2?$AA@ 100770e8     game.obj
 0003:00006100       ??_C@_0BH@CKMK@sk_bullsquid_dmg_spit1?$AA@ 10077100     game.obj
 0003:00006118       ??_C@_0BH@NKGK@sk_bullsquid_dmg_whip3?$AA@ 10077118     game.obj
 0003:00006130       ??_C@_0BH@HAPN@sk_bullsquid_dmg_whip2?$AA@ 10077130     game.obj
 0003:00006148       ??_C@_0BH@IPEE@sk_bullsquid_dmg_whip1?$AA@ 10077148     game.obj
 0003:00006160       ??_C@_0BH@FAOH@sk_bullsquid_dmg_bite3?$AA@ 10077160     game.obj
 0003:00006178       ??_C@_0BH@PKHA@sk_bullsquid_dmg_bite2?$AA@ 10077178     game.obj
 0003:00006190       ??_C@_0BH@FMJ@sk_bullsquid_dmg_bite1?$AA@ 10077190     game.obj
 0003:000061a8       ??_C@_0BF@LEDD@sk_bullsquid_health3?$AA@ 100771a8     game.obj
 0003:000061c0       ??_C@_0BF@BOKE@sk_bullsquid_health2?$AA@ 100771c0     game.obj
 0003:000061d8       ??_C@_0BF@OBBN@sk_bullsquid_health1?$AA@ 100771d8     game.obj
 0003:000061f0       ??_C@_0BC@HJHE@sk_barney_health3?$AA@ 100771f0     game.obj
 0003:00006204       ??_C@_0BC@NDOD@sk_barney_health2?$AA@ 10077204     game.obj
 0003:00006218       ??_C@_0BC@CMFK@sk_barney_health1?$AA@ 10077218     game.obj
 0003:0000622c       ??_C@_0BC@FDFH@sk_apache_health3?$AA@ 1007722c     game.obj
 0003:00006240       ??_C@_0BC@PJMA@sk_apache_health2?$AA@ 10077240     game.obj
 0003:00006254       ??_C@_0BC@GHJ@sk_apache_health1?$AA@ 10077254     game.obj
 0003:00006268       ??_C@_0BF@IHJC@sk_agrunt_dmg_punch3?$AA@ 10077268     game.obj
 0003:00006280       ??_C@_0BF@CNAF@sk_agrunt_dmg_punch2?$AA@ 10077280     game.obj
 0003:00006298       ??_C@_0BF@NCLM@sk_agrunt_dmg_punch1?$AA@ 10077298     game.obj
 0003:000062b0       ??_C@_0BC@IKIE@sk_agrunt_health3?$AA@ 100772b0     game.obj
 0003:000062c4       ??_C@_0BC@CABD@sk_agrunt_health2?$AA@ 100772c4     game.obj
 0003:000062d8       ??_C@_0BC@NPKK@sk_agrunt_health1?$AA@ 100772d8     game.obj
 0003:000062ec       ??_C@_0BB@GNCO@mp_allowmonsters?$AA@ 100772ec     game.obj
 0003:00006300       ??_C@_0P@OMJO@mp_defaultteam?$AA@ 10077300     game.obj
 0003:00006310       ??_C@_0BA@HLDE@mp_teamoverride?$AA@ 10077310     game.obj
 0003:00006320       ??_C@_0BB@HGPB@hgrunt?$DLscientist?$AA@ 10077320     game.obj
 0003:00006334       ??_C@_0M@ENJF@mp_teamlist?$AA@ 10077334     game.obj
 0003:00006340       ??_C@_02HPJE@30?$AA@       10077340     game.obj
 0003:00006344       ??_C@_0P@FJGF@decalfrequency?$AA@ 10077344     game.obj
 0003:00006354       ??_C@_0BB@IDFJ@mp_autocrosshair?$AA@ 10077354     game.obj
 0003:00006368       ??_C@_0O@DCFE@mp_flashlight?$AA@ 10077368     game.obj
 0003:00006378       ??_C@_0N@LGHF@mp_footsteps?$AA@ 10077378     game.obj
 0003:00006388       ??_C@_01FBAH@1?$AA@        10077388     game.obj
 0003:0000638c       ??_C@_0BA@OHKH@mp_forcerespawn?$AA@ 1007738c     game.obj
 0003:0000639c       ??_C@_0O@FPOG@mp_weaponstay?$AA@ 1007739c     game.obj
 0003:000063ac       ??_C@_0O@OCEA@mp_falldamage?$AA@ 100773ac     game.obj
 0003:000063bc       ??_C@_0BA@NHMN@mp_friendlyfire?$AA@ 100773bc     game.obj
 0003:000063cc       ??_C@_0N@JECA@mp_timelimit?$AA@ 100773cc     game.obj
 0003:000063dc       ??_C@_0N@MKGH@mp_fraglimit?$AA@ 100773dc     game.obj
 0003:000063ec       ??_C@_0M@KOKP@mp_teamplay?$AA@ 100773ec     game.obj
 0003:000063f8       ??_C@_0BB@HFBK@listenserver?4cfg?$AA@ 100773f8     game.obj
 0003:0000640c       ??_C@_0P@MPCH@lservercfgfile?$AA@ 1007740c     game.obj
 0003:0000641c       ??_C@_0L@IFJM@server?4cfg?$AA@ 1007741c     game.obj
 0003:00006428       ??_C@_0O@FCJP@servercfgfile?$AA@ 10077428     game.obj
 0003:00006438       ??_C@_0N@CNFL@mapcycle?4txt?$AA@ 10077438     game.obj
 0003:00006448       ??_C@_0N@MLDJ@mapcyclefile?$AA@ 10077448     game.obj
 0003:00006458       ??_C@_01PLJA@0?$AA@        10077458     game.obj
 0003:0000645c       ??_C@_0BB@GGHG@displaysoundlist?$AA@ 1007745c     game.obj
 0003:00006470       ??_C@_0BA@HNAG@exec?5skill?4cfg?6?$AA@ 10077470     game.obj
 0003:00006480       ??_C@_0O@HOOL@sk_player_arm?$AA@ 10077480     gamerules.obj
 0003:00006490       ??_C@_0O@POHI@sk_player_leg?$AA@ 10077490     gamerules.obj
 0003:000064a0       ??_C@_0BC@HFFI@sk_player_stomach?$AA@ 100774a0     gamerules.obj
 0003:000064b4       ??_C@_0BA@EMMM@sk_player_chest?$AA@ 100774b4     gamerules.obj
 0003:000064c4       ??_C@_0P@KJDF@sk_player_head?$AA@ 100774c4     gamerules.obj
 0003:000064d4       ??_C@_0P@LLLC@sk_monster_arm?$AA@ 100774d4     gamerules.obj
 0003:000064e4       ??_C@_0P@DLCB@sk_monster_leg?$AA@ 100774e4     gamerules.obj
 0003:000064f4       ??_C@_0BD@LJOA@sk_monster_stomach?$AA@ 100774f4     gamerules.obj
 0003:00006508       ??_C@_0BB@NGD@sk_monster_chest?$AA@ 10077508     gamerules.obj
 0003:0000651c       ??_C@_0BA@GPA@sk_monster_head?$AA@ 1007751c     gamerules.obj
 0003:0000652c       ??_C@_0BC@LMKC@sk_scientist_heal?$AA@ 1007752c     gamerules.obj
 0003:00006540       ??_C@_0N@OIJM@sk_healthkit?$AA@ 10077540     gamerules.obj
 0003:00006550       ??_C@_0BB@JKIP@sk_healthcharger?$AA@ 10077550     gamerules.obj
 0003:00006564       ??_C@_0L@EMFC@sk_battery?$AA@ 10077564     gamerules.obj
 0003:00006570       ??_C@_0P@MBFE@sk_suitcharger?$AA@ 10077570     gamerules.obj
 0003:00006580       ??_C@_0O@KFIA@sk_hornet_dmg?$AA@ 10077580     gamerules.obj
 0003:00006590       ??_C@_0O@CHLD@sk_9mm_bullet?$AA@ 10077590     gamerules.obj
 0003:000065a0       ??_C@_0BA@KFLL@sk_9mmAR_bullet?$AA@ 100775a0     gamerules.obj
 0003:000065b0       ??_C@_0P@KCMA@sk_12mm_bullet?$AA@ 100775b0     gamerules.obj
 0003:000065c0       ??_C@_0BA@KHMP@sk_plr_tripmine?$AA@ 100775c0     gamerules.obj
 0003:000065d0       ??_C@_0P@LAPN@sk_plr_satchel?$AA@ 100775d0     gamerules.obj
 0003:000065e0       ??_C@_0BE@DLLM@sk_plr_hand_grenade?$AA@ 100775e0     gamerules.obj
 0003:000065f4       ??_C@_0BB@LGG@sk_plr_egon_wide?$AA@ 100775f4     gamerules.obj
 0003:00006608       ??_C@_0BD@GIKB@sk_plr_egon_narrow?$AA@ 10077608     gamerules.obj
 0003:0000661c       ??_C@_0N@KBK@sk_plr_gauss?$AA@ 1007761c     gamerules.obj
 0003:0000662c       ??_C@_0L@JBN@sk_plr_rpg?$AA@ 1007762c     gamerules.obj
 0003:00006638       ??_C@_0BJ@NOPM@sk_plr_xbow_bolt_monster?$AA@ 10077638     gamerules.obj
 0003:00006654       ??_C@_0BI@HEFB@sk_plr_xbow_bolt_client?$AA@ 10077654     gamerules.obj
 0003:0000666c       ??_C@_0BA@NOHO@sk_plr_buckshot?$AA@ 1007766c     gamerules.obj
 0003:0000667c       ??_C@_0BF@HOOF@sk_plr_9mmAR_grenade?$AA@ 1007767c     gamerules.obj
 0003:00006694       ??_C@_0BE@PFND@sk_plr_9mmAR_bullet?$AA@ 10077694     gamerules.obj
 0003:000066a8       ??_C@_0BC@HKKE@sk_plr_357_bullet?$AA@ 100776a8     gamerules.obj
 0003:000066bc       ??_C@_0BC@OHJP@sk_plr_9mm_bullet?$AA@ 100776bc     gamerules.obj
 0003:000066d0       ??_C@_0P@PCLE@sk_plr_crowbar?$AA@ 100776d0     gamerules.obj
 0003:000066e0       ??_C@_0BB@NCE@sk_sentry_health?$AA@ 100776e0     gamerules.obj
 0003:000066f4       ??_C@_0BF@CFFB@sk_miniturret_health?$AA@ 100776f4     gamerules.obj
 0003:0000670c       ??_C@_0BB@FBCH@sk_turret_health?$AA@ 1007770c     gamerules.obj
 0003:00006720       ??_C@_0BJ@MNBI@sk_zombie_dmg_both_slash?$AA@ 10077720     gamerules.obj
 0003:0000673c       ??_C@_0BI@BPLA@sk_zombie_dmg_one_slash?$AA@ 1007773c     gamerules.obj
 0003:00006754       ??_C@_0BB@BDKC@sk_zombie_health?$AA@ 10077754     gamerules.obj
 0003:00006768       ??_C@_0BB@CBGK@sk_snark_dmg_pop?$AA@ 10077768     gamerules.obj
 0003:0000677c       ??_C@_0BC@LJC@sk_snark_dmg_bite?$AA@ 1007777c     gamerules.obj
 0003:00006790       ??_C@_0BA@IFCF@sk_snark_health?$AA@ 10077790     gamerules.obj
 0003:000067a0       ??_C@_0BE@NPPP@sk_scientist_health?$AA@ 100777a0     gamerules.obj
 0003:000067b4       ??_C@_0BB@OAID@sk_nihilanth_zap?$AA@ 100777b4     gamerules.obj
 0003:000067c8       ??_C@_0BE@KFMK@sk_nihilanth_health?$AA@ 100777c8     gamerules.obj
 0003:000067dc       ??_C@_0BG@IBFD@sk_controller_dmgball?$AA@ 100777dc     gamerules.obj
 0003:000067f4       ??_C@_0BI@JMOH@sk_controller_speedball?$AA@ 100777f4     gamerules.obj
 0003:0000680c       ??_C@_0BF@HBBN@sk_controller_dmgzap?$AA@ 1007780c     gamerules.obj
 0003:00006824       ??_C@_0BF@ECCG@sk_controller_health?$AA@ 10077824     gamerules.obj
 0003:0000683c       ??_C@_0BC@HAPP@sk_leech_dmg_bite?$AA@ 1007783c     gamerules.obj
 0003:00006850       ??_C@_0BA@FPBC@sk_leech_health?$AA@ 10077850     gamerules.obj
 0003:00006860       ??_C@_0BF@PKNO@sk_ichthyosaur_shake?$AA@ 10077860     gamerules.obj
 0003:00006878       ??_C@_0BG@KKHJ@sk_ichthyosaur_health?$AA@ 10077878     gamerules.obj
 0003:00006890       ??_C@_0BC@NGCP@sk_islave_dmg_zap?$AA@ 10077890     gamerules.obj
 0003:000068a4       ??_C@_0BH@IGMG@sk_islave_dmg_clawrake?$AA@ 100778a4     gamerules.obj
 0003:000068bc       ??_C@_0BD@KLHK@sk_islave_dmg_claw?$AA@ 100778bc     gamerules.obj
 0003:000068d0       ??_C@_0BB@PDGO@sk_islave_health?$AA@ 100778d0     gamerules.obj
 0003:000068e4       ??_C@_0BG@HGHG@sk_houndeye_dmg_blast?$AA@ 100778e4     gamerules.obj
 0003:000068fc       ??_C@_0BD@BMHM@sk_houndeye_health?$AA@ 100778fc     gamerules.obj
 0003:00006910       ??_C@_0BB@MAFG@sk_hgrunt_gspeed?$AA@ 10077910     gamerules.obj
 0003:00006924       ??_C@_0BC@MHNI@sk_hgrunt_pellets?$AA@ 10077924     gamerules.obj
 0003:00006938       ??_C@_0P@FJLF@sk_hgrunt_kick?$AA@ 10077938     gamerules.obj
 0003:00006948       ??_C@_0BB@HHIK@sk_hgrunt_health?$AA@ 10077948     gamerules.obj
 0003:0000695c       ??_C@_0BF@FFL@sk_headcrab_dmg_bite?$AA@ 1007795c     gamerules.obj
 0003:00006974       ??_C@_0BD@LBHD@sk_headcrab_health?$AA@ 10077974     gamerules.obj
 0003:00006988       ??_C@_0BE@BLAF@sk_hassassin_health?$AA@ 10077988     gamerules.obj
 0003:0000699c       ??_C@_0BH@PCEE@sk_gargantua_dmg_stomp?$AA@ 1007799c     gamerules.obj
 0003:000069b4       ??_C@_0BG@JNIF@sk_gargantua_dmg_fire?$AA@ 100779b4     gamerules.obj
 0003:000069cc       ??_C@_0BH@KEPN@sk_gargantua_dmg_slash?$AA@ 100779cc     gamerules.obj
 0003:000069e4       ??_C@_0BE@JGEG@sk_gargantua_health?$AA@ 100779e4     gamerules.obj
 0003:000069f8       ??_C@_0BG@MNOH@sk_bullsquid_dmg_spit?$AA@ 100779f8     gamerules.obj
 0003:00006a10       ??_C@_0BG@EDCM@sk_bullsquid_dmg_whip?$AA@ 10077a10     gamerules.obj
 0003:00006a28       ??_C@_0BG@MOEH@sk_bullsquid_dmg_bite?$AA@ 10077a28     gamerules.obj
 0003:00006a40       ??_C@_0BE@BKEM@sk_bullsquid_health?$AA@ 10077a40     gamerules.obj
 0003:00006a54       ??_C@_0BJ@FEOL@sk_bigmomma_radius_blast?$AA@ 10077a54     gamerules.obj
 0003:00006a70       ??_C@_0BG@HIJO@sk_bigmomma_dmg_blast?$AA@ 10077a70     gamerules.obj
 0003:00006a88       ??_C@_0BG@INHK@sk_bigmomma_dmg_slash?$AA@ 10077a88     gamerules.obj
 0003:00006aa0       ??_C@_0BK@LPOK@sk_bigmomma_health_factor?$AA@ 10077aa0     gamerules.obj
 0003:00006abc       ??_C@_0BB@FNEI@sk_barney_health?$AA@ 10077abc     gamerules.obj
 0003:00006ad0       ??_C@_0BB@HOAH@sk_apache_health?$AA@ 10077ad0     gamerules.obj
 0003:00006ae4       ??_C@_0BE@LLDA@sk_agrunt_dmg_punch?$AA@ 10077ae4     gamerules.obj
 0003:00006af8       ??_C@_0BB@KNII@sk_agrunt_health?$AA@ 10077af8     gamerules.obj
 0003:00006b0c       ??_C@_0BG@FNFM@?6GAME?5SKILL?5LEVEL?3?$CFd?6?$AA@ 10077b0c     gamerules.obj
 0003:00006b24       ??_C@_0P@MGBF@exec?5game?4cfg?6?$AA@ 10077b24     gamerules.obj
 0003:00006b38       ?m_SaveData@CGauss@@2PAUTYPEDESCRIPTION@@A 10077b38     gauss.obj
 0003:00006b88       ??_C@_0P@DBLO@m_fPrimaryFire?$AA@ 10077b88     gauss.obj
 0003:00006b98       ??_C@_0BB@GGAO@m_flNextAmmoBurn?$AA@ 10077b98     gauss.obj
 0003:00006bac       ??_C@_0BD@IAKE@m_flPlayAftershock?$AA@ 10077bac     gauss.obj
 0003:00006bc0       ??_C@_0BA@KJAM@m_flStartCharge?$AA@ 10077bc0     gauss.obj
 0003:00006bd0       ??_C@_0M@EKBJ@m_fInAttack?$AA@ 10077bd0     gauss.obj
 0003:00006bdc       ??_C@_06BHMD@CGauss?$AA@   10077bdc     gauss.obj
 0003:00006be4       ??_C@_0BD@MKLE@models?1w_gauss?4mdl?$AA@ 10077be4     gauss.obj
 0003:00006bf8       ??_C@_0BC@PKLD@sprites?1smoke?4spr?$AA@ 10077bf8     gauss.obj
 0003:00006c0c       ??_C@_0BE@LLFP@sprites?1hotglow?4spr?$AA@ 10077c0c     gauss.obj
 0003:00006c20       ??_C@_0BK@OKCJ@ambience?1pulsemachine?4wav?$AA@ 10077c20     gauss.obj
 0003:00006c3c       ??_C@_0BF@MIAF@weapons?1electro6?4wav?$AA@ 10077c3c     gauss.obj
 0003:00006c54       ??_C@_0BF@CIGK@weapons?1electro5?4wav?$AA@ 10077c54     gauss.obj
 0003:00006c6c       ??_C@_0BF@IIEP@weapons?1electro4?4wav?$AA@ 10077c6c     gauss.obj
 0003:00006c84       ??_C@_0BD@LMIF@weapons?1gauss2?4wav?$AA@ 10077c84     gauss.obj
 0003:00006c98       ??_C@_0BD@FPBL@models?1p_gauss?4mdl?$AA@ 10077c98     gauss.obj
 0003:00006cac       ??_C@_0BD@CADL@models?1v_gauss?4mdl?$AA@ 10077cac     gauss.obj
 0003:00006cc0       ??_C@_05MFIA@gauss?$AA@    10077cc0     gauss.obj
 0003:00006cc8       ??_C@_0BA@JLDM@sound?5state?5?$CFd?6?$AA@ 10077cc8     gauss.obj
 0003:00006cd8       ??_C@_0BH@HIFD@models?1w_gaussammo?4mdl?$AA@ 10077cd8     gauss.obj
 0003:00006cf0       ??_C@_0BE@BHCE@weapons?1debris1?4wav?$AA@ 10077cf0     ggrenade.obj
 0003:00006d04       ??_C@_0BE@PHEL@weapons?1debris2?4wav?$AA@ 10077d04     ggrenade.obj
 0003:00006d18       ??_C@_0BE@FHGO@weapons?1debris3?4wav?$AA@ 10077d18     ggrenade.obj
 0003:00006d2c       ??_C@_0BJ@OKPC@weapons?1grenade_hit1?4wav?$AA@ 10077d2c     ggrenade.obj
 0003:00006d48       ??_C@_0BJ@KJN@weapons?1grenade_hit2?4wav?$AA@ 10077d48     ggrenade.obj
 0003:00006d64       ??_C@_0BJ@KKLI@weapons?1grenade_hit3?4wav?$AA@ 10077d64     ggrenade.obj
 0003:00006d80       ??_C@_07HCFB@grenade?$AA@  10077d80     ggrenade.obj
 0003:00006d88       ??_C@_0BF@CECJ@models?1w_grenade?4mdl?$AA@ 10077d88     ggrenade.obj
 0003:00006da0       ??_C@_0BI@FGPN@models?1w_9mmhandgun?4mdl?$AA@ 10077da0     glock.obj
 0003:00006db8       ??_C@_0BE@OJCM@weapons?1pl_gun3?4wav?$AA@ 10077db8     glock.obj
 0003:00006dcc       ??_C@_0BE@EJAJ@weapons?1pl_gun2?4wav?$AA@ 10077dcc     glock.obj
 0003:00006de0       ??_C@_0BE@KJGG@weapons?1pl_gun1?4wav?$AA@ 10077de0     glock.obj
 0003:00006df4       ??_C@_0BD@NCME@items?19mmclip2?4wav?$AA@ 10077df4     glock.obj
 0003:00006e08       ??_C@_0BB@GKKK@models?1shell?4mdl?$AA@ 10077e08     glock.obj
 0003:00006e1c       ??_C@_0BI@LDLA@models?1p_9mmhandgun?4mdl?$AA@ 10077e1c     glock.obj
 0003:00006e34       ??_C@_0BI@HHDP@models?1v_9mmhandgun?4mdl?$AA@ 10077e34     glock.obj
 0003:00006e4c       ??_C@_03IEOM@9mm?$AA@      10077e4c     glock.obj
 0003:00006e50       ??_C@_09KMIO@onehanded?$AA@ 10077e50     glock.obj
 0003:00006e5c       ??_C@_0L@GIJ@sv_gravity?$AA@ 10077e5c     h_ai.obj
 0003:00006e68       ?m_SaveData@CRecharge@@2PAUTYPEDESCRIPTION@@A 10077e68     h_battery.obj
 0003:00006eb8       ??_C@_0O@MLFB@m_flSoundTime?$AA@ 10077eb8     h_battery.obj
 0003:00006ec8       ??_C@_05NKHM@m_iOn?$AA@    10077ec8     h_battery.obj
 0003:00006ed0       ??_C@_08NHLL@m_iJuice?$AA@ 10077ed0     h_battery.obj
 0003:00006edc       ??_C@_0O@LCM@m_iReactivate?$AA@ 10077edc     h_battery.obj
 0003:00006eec       ??_C@_0P@BHGP@m_flNextCharge?$AA@ 10077eec     h_battery.obj
 0003:00006efc       ??_C@_09DAAA@CRecharge?$AA@ 10077efc     h_battery.obj
 0003:00006f08       ??_C@_07GKKC@dmdelay?$AA@  10077f08     h_battery.obj
 0003:00006f10       ??_C@_0BI@FCIG@items?1suitchargeok1?4wav?$AA@ 10077f10     h_battery.obj
 0003:00006f28       ??_C@_0BI@CKJD@items?1suitchargeno1?4wav?$AA@ 10077f28     h_battery.obj
 0003:00006f40       ??_C@_0BG@LKI@items?1suitcharge1?4wav?$AA@ 10077f40     h_battery.obj
 0003:00006f58       ?m_SaveData@CCycler@@2PAUTYPEDESCRIPTION@@A 10077f58     h_cycler.obj
 0003:00006f68       ?m_SaveData@CCyclerSprite@@2PAUTYPEDESCRIPTION@@A 10077f68     h_cycler.obj
 0003:00006f98       ?m_SaveData@CWreckage@@0PAUTYPEDESCRIPTION@@A 10077f98     h_cycler.obj
 0003:00006fa8       ??_C@_0O@CAGF@m_flStartTime?$AA@ 10077fa8     h_cycler.obj
 0003:00006fb8       ??_C@_09ICJJ@m_animate?$AA@ 10077fb8     h_cycler.obj
 0003:00006fc4       ??_C@_07BILD@CCycler?$AA@  10077fc4     h_cycler.obj
 0003:00006fcc       ??_C@_0BD@LPJ@models?1prdroid?4mdl?$AA@ 10077fcc     h_cycler.obj
 0003:00006fe0       ??_C@_0CL@BBOA@cycler?5at?5?$CF?40f?5?$CF?40f?5?$CF0?4f?5missing@ 10077fe0     h_cycler.obj
 0003:0000700c       ??_C@_06HKGB@cycler?$AA@   1007800c     h_cycler.obj
 0003:00007014       ??_C@_0BK@BDHD@sequence?3?5?$CFd?0?5frame?5?$CF?40f?6?$AA@ 10078014     h_cycler.obj
 0003:00007030       ??_C@_0O@KCCI@CCyclerSprite?$AA@ 10078030     h_cycler.obj
 0003:00007040       ??_C@_0M@BNNM@Sprite?3?5?$CFs?6?$AA@ 10078040     h_cycler.obj
 0003:0000704c       ??_C@_09FDMG@CWreckage?$AA@ 1007804c     h_cycler.obj
 0003:00007058       ??_C@_0BF@JCCI@models?1p_grenade?4mdl?$AA@ 10078058     handgrenade.obj
 0003:00007070       ??_C@_0BF@HFEE@models?1v_grenade?4mdl?$AA@ 10078070     handgrenade.obj
 0003:00007088       ??_C@_0N@CMCN@Hand?5Grenade?$AA@ 10078088     handgrenade.obj
 0003:00007098       ?m_SaveData@CWallHealth@@2PAUTYPEDESCRIPTION@@A 10078098     healthkit.obj
 0003:000070e8       ??_C@_0BE@BCO@models?1w_medkit?4mdl?$AA@ 100780e8     healthkit.obj
 0003:000070fc       ??_C@_0BH@BCEA@items?1smallmedkit1?4wav?$AA@ 100780fc     healthkit.obj
 0003:00007114       ??_C@_0M@DAGO@CWallHealth?$AA@ 10078114     healthkit.obj
 0003:00007120       ??_C@_0BF@EJAM@items?1medcharge4?4wav?$AA@ 10078120     healthkit.obj
 0003:00007138       ??_C@_0BF@DCCP@items?1medshotno1?4wav?$AA@ 10078138     healthkit.obj
 0003:00007150       ??_C@_0BD@BBNB@items?1medshot4?4wav?$AA@ 10078150     healthkit.obj
 0003:00007168       ?m_SaveData@CHornet@@2PAUTYPEDESCRIPTION@@A 10078168     hornet.obj
 0003:00007198       ??_C@_0N@BPPJ@m_flFlySpeed?$AA@ 10078198     hornet.obj
 0003:000071a8       ??_C@_0O@FNEF@m_iHornetType?$AA@ 100781a8     hornet.obj
 0003:000071b8       ??_C@_0P@GIIO@m_flStopAttack?$AA@ 100781b8     hornet.obj
 0003:000071c8       ??_C@_07OCPE@CHornet?$AA@  100781c8     hornet.obj
 0003:000071d0       ??_C@_0BE@NPBM@agrunt?1ag_fire1?4wav?$AA@ 100781d0     hornet.obj
 0003:000071e4       ??_C@_0BE@DPHD@agrunt?1ag_fire2?4wav?$AA@ 100781e4     hornet.obj
 0003:000071f8       ??_C@_0BE@JPFG@agrunt?1ag_fire3?4wav?$AA@ 100781f8     hornet.obj
 0003:0000720c       ??_C@_0BC@ECGJ@models?1hornet?4mdl?$AA@ 1007820c     hornet.obj
 0003:00007220       ??_C@_0BG@MFBM@sprites?1laserbeam?4spr?$AA@ 10078220     hornet.obj
 0003:00007238       ??_C@_0BB@KBLG@sprites?1muz1?4spr?$AA@ 10078238     hornet.obj
 0003:0000724c       ??_C@_0BJ@CGKK@hornet?1ag_hornethit3?4wav?$AA@ 1007824c     hornet.obj
 0003:00007268       ??_C@_0BJ@IGIP@hornet?1ag_hornethit2?4wav?$AA@ 10078268     hornet.obj
 0003:00007284       ??_C@_0BJ@GGOA@hornet?1ag_hornethit1?4wav?$AA@ 10078284     hornet.obj
 0003:000072a0       ??_C@_0BE@JNBO@hornet?1ag_buzz3?4wav?$AA@ 100782a0     hornet.obj
 0003:000072b4       ??_C@_0BE@DNDL@hornet?1ag_buzz2?4wav?$AA@ 100782b4     hornet.obj
 0003:000072c8       ??_C@_0BE@NNFE@hornet?1ag_buzz1?4wav?$AA@ 100782c8     hornet.obj
 0003:000072dc       ??_C@_0BC@BCFI@models?1w_hgun?4mdl?$AA@ 100782dc     hornetgun.obj
 0003:000072f0       ??_C@_06IACG@hornet?$AA@   100782f0     hornetgun.obj
 0003:000072f8       ??_C@_0BC@LNBH@models?1p_hgun?4mdl?$AA@ 100782f8     hornetgun.obj
 0003:0000730c       ??_C@_0BC@JNJK@models?1v_hgun?4mdl?$AA@ 1007830c     hornetgun.obj
 0003:00007320       ??_C@_07DPNN@Hornets?$AA@  10078320     hornetgun.obj
 0003:00007328       ??_C@_04EEMB@hive?$AA@     10078328     hornetgun.obj
 0003:00007330       ??_C@_04PIKN@type?$AA@     10078330     items.obj
 0003:00007338       ??_C@_0CA@FA@unable?5to?5create?5world_item?5?$CFd?6?$AA@ 10078338     items.obj
 0003:00007358       ??_C@_09IMIN@item_suit?$AA@ 10078358     items.obj
 0003:00007364       ??_C@_0O@GMKO@item_security?$AA@ 10078364     items.obj
 0003:00007374       ??_C@_0O@HJKP@item_antidote?$AA@ 10078374     items.obj
 0003:00007384       ??_C@_0CG@FNBJ@Item?5?$CFs?5fell?5out?5of?5level?5at?5?$CFf?0@ 10078384     items.obj
 0003:000073ac       ??_C@_0BC@FPHB@models?1w_suit?4mdl?$AA@ 100783ac     items.obj
 0003:000073c0       ??_C@_08EMBP@?$CBHEV_AAx?$AA@ 100783c0     items.obj
 0003:000073cc       ??_C@_07DAO@?$CBHEV_A0?$AA@ 100783cc     items.obj
 0003:000073d4       ??_C@_0BF@KDIP@models?1w_battery?4mdl?$AA@ 100783d4     items.obj
 0003:000073ec       ??_C@_0BF@FDHL@items?1gunpickup2?4wav?$AA@ 100783ec     items.obj
 0003:00007404       ??_C@_09NHDB@?$CBHEV_?$CF1dP?$AA@ 10078404     items.obj
 0003:00007410       ??_C@_0BG@HIIM@models?1w_antidote?4mdl?$AA@ 10078410     items.obj
 0003:00007428       ??_C@_09EAGM@?$CBHEV_DET4?$AA@ 10078428     items.obj
 0003:00007434       ??_C@_0BG@CMAO@models?1w_security?4mdl?$AA@ 10078434     items.obj
 0003:0000744c       ??_C@_0BG@FEFN@models?1w_longjump?4mdl?$AA@ 1007844c     items.obj
 0003:00007464       ??_C@_07KJJJ@?$CBHEV_A1?$AA@ 10078464     items.obj
 0003:00007470       ?m_SaveData@CLight@@2PAUTYPEDESCRIPTION@@A 10078470     lights.obj
 0003:00007490       ??_C@_0N@KIAO@m_iszPattern?$AA@ 10078490     lights.obj
 0003:000074a0       ??_C@_08KENI@m_iStyle?$AA@ 100784a0     lights.obj
 0003:000074ac       ??_C@_06OILG@CLight?$AA@   100784ac     lights.obj
 0003:000074b4       ??_C@_07NPGJ@pattern?$AA@  100784b4     lights.obj
 0003:000074bc       ??_C@_05LHHB@pitch?$AA@    100784bc     lights.obj
 0003:000074c4       ??_C@_01KDFD@m?$AA@        100784c4     lights.obj
 0003:000074c8       ??_C@_01FNLH@a?$AA@        100784c8     lights.obj
 0003:000074cc       ??_C@_0O@PFNH@cl_skycolor_b?$AA@ 100784cc     lights.obj
 0003:000074dc       ??_C@_0O@PFBM@cl_skycolor_g?$AA@ 100784dc     lights.obj
 0003:000074ec       ??_C@_0O@FMKH@cl_skycolor_r?$AA@ 100784ec     lights.obj
 0003:000074fc       ??_C@_02MECO@?$CFd?$AA@    100784fc     lights.obj
 0003:00007500       ??_C@_0N@JFCE@?$CFd?5?$CFd?5?$CFd?5?$CFd?6?$AA@ 10078500     lights.obj
 0003:00007510       ??_C@_06ENJP@_light?$AA@   10078510     lights.obj
 0003:00007518       ??_C@_0M@OMC@cl_skyvec_z?$AA@ 10078518     lights.obj
 0003:00007524       ??_C@_0M@PBHL@cl_skyvec_y?$AA@ 10078524     lights.obj
 0003:00007530       ??_C@_0M@FLOM@cl_skyvec_x?$AA@ 10078530     lights.obj
 0003:0000753c       ??_C@_02JBAA@?$CFf?$AA@    1007853c     lights.obj
 0003:00007540       ??_C@_0BC@CDBD@models?1w_m4a1?4mdl?$AA@ 10078540     m4a1.obj
 0003:00007554       ??_C@_0BP@IFPH@sound?1weapons?1m4a1_clipout?4wav?$AA@ 10078554     m4a1.obj
 0003:00007574       ??_C@_0BO@KNEJ@sound?1weapons?1m4a1_clipin?4wav?$AA@ 10078574     m4a1.obj
 0003:00007594       ??_C@_0BO@GBHC@sound?1weapons?1m4a1_deploy?4wav?$AA@ 10078594     m4a1.obj
 0003:000075b4       ??_C@_0BM@CJPM@sound?1weapons?1ammo_pick?4wav?$AA@ 100785b4     m4a1.obj
 0003:000075d0       ??_C@_0BI@BDKM@sound?1dryfire_rifle?4wav?$AA@ 100785d0     m4a1.obj
 0003:000075e8       ??_C@_0BJ@OIG@sound?1weapons?1m4a1?92?4wav?$AA@ 100785e8     m4a1.obj
 0003:00007604       ??_C@_0BJ@OOOJ@sound?1weapons?1m4a1?91?4wav?$AA@ 10078604     m4a1.obj
 0003:00007620       ??_C@_0BC@IMFM@models?1p_m4a1?4mdl?$AA@ 10078620     m4a1.obj
 0003:00007634       ??_C@_0BE@EGDM@models?1v_m4a1_r?4mdl?$AA@ 10078634     m4a1.obj
 0003:00007648       ??_C@_04IGHH@5?456?$AA@    10078648     m4a1.obj
 0003:00007650       ??_C@_04IOC@M4A1?$AA@      10078650     m4a1.obj
 0003:00007658       ??_C@_0BH@DJFG@models?1w_weaponbox?4mdl?$AA@ 10078658     m4a1.obj
 0003:00007670       ??_C@_0BE@DHHN@sound?1ammo_pick?4wav?$AA@ 10078670     m4a1.obj
 0003:00007688       ?m_SaveData@CRuleEntity@@2PAUTYPEDESCRIPTION@@A 10078688     maprules.obj
 0003:00007698       ?m_SaveData@CGameText@@2PAUTYPEDESCRIPTION@@A 10078698     maprules.obj
 0003:000076a8       ?m_SaveData@CGamePlayerZone@@2PAUTYPEDESCRIPTION@@A 100786a8     maprules.obj
 0003:000076e8       ??_C@_0O@HIKM@m_iszOutCount?$AA@ 100786e8     maprules.obj
 0003:000076f8       ??_C@_0N@CEJE@m_iszInCount?$AA@ 100786f8     maprules.obj
 0003:00007708       ??_C@_0P@OBPN@m_iszOutTarget?$AA@ 10078708     maprules.obj
 0003:00007718       ??_C@_0O@BCKB@m_iszInTarget?$AA@ 10078718     maprules.obj
 0003:00007728       ??_C@_0M@CECA@m_textParms?$AA@ 10078728     maprules.obj
 0003:00007734       ??_C@_0M@IEML@CRuleEntity?$AA@ 10078734     maprules.obj
 0003:00007740       ??_C@_06EOIE@points?$AA@   10078740     maprules.obj
 0003:00007748       ??_C@_09PMEN@CGameText?$AA@ 10078748     maprules.obj
 0003:00007754       ??_C@_06OFHG@fxtime?$AA@   10078754     maprules.obj
 0003:0000775c       ??_C@_07FOED@fadeout?$AA@  1007875c     maprules.obj
 0003:00007764       ??_C@_06DKEJ@fadein?$AA@   10078764     maprules.obj
 0003:0000776c       ??_C@_06DAMC@color2?$AA@   1007876c     maprules.obj
 0003:00007774       ??_C@_06JOBA@effect?$AA@   10078774     maprules.obj
 0003:0000777c       ??_C@_01KAHP@y?$AA@        1007877c     maprules.obj
 0003:00007780       ??_C@_01KOI@x?$AA@         10078780     maprules.obj
 0003:00007784       ??_C@_07FCIA@channel?$AA@  10078784     maprules.obj
 0003:0000778c       ??_C@_0N@IBE@triggerstate?$AA@ 1007878c     maprules.obj
 0003:0000779c       ??_C@_09GKFK@teamindex?$AA@ 1007879c     maprules.obj
 0003:000077a8       ??_C@_0BA@KBJD@CGamePlayerZone?$AA@ 100787a8     maprules.obj
 0003:000077b8       ??_C@_08BLHB@outcount?$AA@ 100787b8     maprules.obj
 0003:000077c4       ??_C@_07FHFJ@incount?$AA@  100787c4     maprules.obj
 0003:000077cc       ??_C@_09GEJO@outtarget?$AA@ 100787cc     maprules.obj
 0003:000077d8       ??_C@_08MBNC@intarget?$AA@ 100787d8     maprules.obj
 0003:000077e4       ??_C@_0BB@MMGN@game_team_master?$AA@ 100787e4     maprules.obj
 0003:000077f8       ?m_SaveData@CFuncMortarField@@2PAUTYPEDESCRIPTION@@A 100787f8     mortar.obj
 0003:00007858       ??_C@_0L@MOLH@m_fControl?$AA@ 10078858     mortar.obj
 0003:00007864       ??_C@_08EAJH@m_iCount?$AA@ 10078864     mortar.obj
 0003:00007870       ??_C@_0L@KBJF@m_flSpread?$AA@ 10078870     mortar.obj
 0003:0000787c       ??_C@_0BB@JHEG@m_iszYController?$AA@ 1007887c     mortar.obj
 0003:00007890       ??_C@_0BB@HNMJ@m_iszXController?$AA@ 10078890     mortar.obj
 0003:000078a4       ??_C@_0BB@BAJ@CFuncMortarField?$AA@ 100788a4     mortar.obj
 0003:000078b8       ??_C@_0BG@DJAM@weapons?1mortarhit?4wav?$AA@ 100788b8     mortar.obj
 0003:000078d0       ??_C@_0BD@LNF@weapons?1mortar?4wav?$AA@ 100788d0     mortar.obj
 0003:000078e4       ??_C@_0P@BCPF@monster_mortar?$AA@ 100788e4     mortar.obj
 0003:000078f4       ??_C@_0BD@HODM@models?1w_9mmAR?4mdl?$AA@ 100788f4     mp5.obj
 0003:00007908       ??_C@_0BH@OIFN@weapons?1glauncher2?4wav?$AA@ 10078908     mp5.obj
 0003:00007920       ??_C@_0BG@BCAJ@weapons?1glauncher?4wav?$AA@ 10078920     mp5.obj
 0003:00007938       ??_C@_0BB@HFHM@weapons?1hks3?4wav?$AA@ 10078938     mp5.obj
 0003:0000794c       ??_C@_0BB@NFFJ@weapons?1hks2?4wav?$AA@ 1007894c     mp5.obj
 0003:00007960       ??_C@_0BB@DFDG@weapons?1hks1?4wav?$AA@ 10078960     mp5.obj
 0003:00007974       ??_C@_0BH@HCHF@items?1cliprelease1?4wav?$AA@ 10078974     mp5.obj
 0003:0000798c       ??_C@_0BG@PICO@items?1clipinsert1?4wav?$AA@ 1007898c     mp5.obj
 0003:000079a4       ??_C@_0BH@GGOB@models?1w_9mmARclip?4mdl?$AA@ 100789a4     mp5.obj
 0003:000079bc       ??_C@_0BD@OLJD@models?1p_9mmAR?4mdl?$AA@ 100789bc     mp5.obj
 0003:000079d0       ??_C@_0BD@JELD@models?1v_9mmAR?4mdl?$AA@ 100789d0     mp5.obj
 0003:000079e4       ??_C@_0L@GNNC@ARgrenades?$AA@ 100789e4     mp5.obj
 0003:000079f0       ??_C@_03KDID@mp5?$AA@      100789f0     mp5.obj
 0003:000079f4       ??_C@_0BH@DCNA@models?1w_ARgrenade?4mdl?$AA@ 100789f4     mp5.obj
 0003:00007d1c       ??_C@_0BE@MMMF@?$CFs?5can?8t?5assess?5?$CFs?6?$AA@ 10078d1c     mpstubb.obj
 0003:00007d30       ??_C@_0CF@DHKO@Executing?5listen?5server?5config?5f@ 10078d30     multiplay_gamerules.obj
 0003:00007d58       ??_C@_08KDJI@exec?5?$CFs?6?$AA@ 10078d58     multiplay_gamerules.obj
 0003:00007d64       ??_C@_0CI@DPHH@Executing?5dedicated?5server?5confi@ 10078d64     multiplay_gamerules.obj
 0003:00007d8c       ??_C@_0BP@EKFE@?$CC?$CFs?$DM?$CFi?$DO?$CC?5has?5entered?5the?5game?6?$AA@ 10078d8c     multiplay_gamerules.obj
 0003:00007dac       ??_C@_0BI@LCMN@?$CFs?5has?5joined?5the?5game?6?$AA@ 10078dac     multiplay_gamerules.obj
 0003:00007dc4       ??_C@_0M@PCGH@unconnected?$AA@ 10078dc4     multiplay_gamerules.obj
 0003:00007dd0       ??_C@_0BH@NNJC@?$CC?$CFs?$DM?$CFi?$DO?$CC?5disconnected?6?$AA@ 10078dd0     multiplay_gamerules.obj
 0003:00007de8       ??_C@_0BB@FGI@game_playerleave?$AA@ 10078de8     multiplay_gamerules.obj
 0003:00007dfc       ??_C@_0P@NAIF@weapon_crowbar?$AA@ 10078dfc     multiplay_gamerules.obj
 0003:00007e0c       ??_C@_0BC@PFFH@game_player_equip?$AA@ 10078e0c     multiplay_gamerules.obj
 0003:00007e20       ??_C@_0BA@PAEO@game_playerkill?$AA@ 10078e20     multiplay_gamerules.obj
 0003:00007e30       ??_C@_0P@FKMG@game_playerdie?$AA@ 10078e30     multiplay_gamerules.obj
 0003:00007e40       ??_C@_0CC@FHOL@?$CC?$CFs?$DM?$CFi?$DO?$CC?5killed?5by?5world?5with?5?$CFs@ 10078e40     multiplay_gamerules.obj
 0003:00007e64       ??_C@_0CC@PCNF@?$CC?$CFs?$DM?$CFi?$DO?$CC?5killed?5?$CC?$CFs?$DM?$CFi?$DO?$CC?5with?5?$CFs@ 10078e64     multiplay_gamerules.obj
 0003:00007e88       ??_C@_0BO@JFEL@?$CC?$CFs?$DM?$CFi?$DO?$CC?5killed?5self?5with?5?$CFs?6?$AA@ 10078e88     multiplay_gamerules.obj
 0003:00007ea8       ??_C@_0L@EPOB@tau_cannon?$AA@ 10078ea8     multiplay_gamerules.obj
 0003:00007eb4       ??_C@_09HCIF@gluon?5gun?$AA@ 10078eb4     multiplay_gamerules.obj
 0003:00007ec0       ??_C@_05CEIF@func_?$AA@    10078ec0     multiplay_gamerules.obj
 0003:00007ec8       ??_C@_08NIHN@monster_?$AA@ 10078ec8     multiplay_gamerules.obj
 0003:00007ed4       ??_C@_05MOPF@world?$AA@    10078ed4     multiplay_gamerules.obj
 0003:00007edc       ??_C@_0BC@CCFN@CHANGE?5LEVEL?3?5?$CFs?6?$AA@ 10078edc     multiplay_gamerules.obj
 0003:00007ef0       ??_C@_05LIDB@?5?$CF32s?$AA@ 10078ef0     multiplay_gamerules.obj
 0003:00007ef8       ??_C@_05BFEK@hldm1?$AA@    10078ef8     multiplay_gamerules.obj
 0003:00007f00       ??_C@_08BFJN@motd?4txt?$AA@ 10078f00     multiplay_gamerules.obj
 0003:00007f10       ?m_SaveData@CPathCorner@@2PAUTYPEDESCRIPTION@@A 10078f10     pathcorner.obj
 0003:00007f20       ?m_SaveData@CPathTrack@@2PAUTYPEDESCRIPTION@@A 10078f20     pathcorner.obj
 0003:00007f70       ??_C@_09IGPF@m_altName?$AA@ 10078f70     pathcorner.obj
 0003:00007f7c       ??_C@_0M@LLNC@m_pprevious?$AA@ 10078f7c     pathcorner.obj
 0003:00007f88       ??_C@_0L@ICLE@m_paltpath?$AA@ 10078f88     pathcorner.obj
 0003:00007f94       ??_C@_07GNPN@m_pnext?$AA@  10078f94     pathcorner.obj
 0003:00007f9c       ??_C@_08ECOL@m_length?$AA@ 10078f9c     pathcorner.obj
 0003:00007fa8       ??_C@_08LNBK@m_flWait?$AA@ 10078fa8     pathcorner.obj
 0003:00007fb4       ??_C@_0M@POHE@CPathCorner?$AA@ 10078fb4     pathcorner.obj
 0003:00007fc0       ??_C@_04OMDE@wait?$AA@     10078fc0     pathcorner.obj
 0003:00007fc8       ??_C@_0L@CCEO@CPathTrack?$AA@ 10078fc8     pathcorner.obj
 0003:00007fd4       ??_C@_07CDBI@altpath?$AA@  10078fd4     pathcorner.obj
 0003:00007fdc       ??_C@_0BC@HPAG@Dead?5end?5link?5?$CFs?6?$AA@ 10078fdc     pathcorner.obj
 0003:00007ff0       ??_C@_0CE@OAP@Bad?5sequence?5of?5path_tracks?5from@ 10078ff0     pathcorner.obj
 0003:00008014       ??_C@_0L@NGLK@path_track?$AA@ 10079014     pathcorner.obj
 0003:00008020       ?m_SaveData@CBasePlatTrain@@2PAUTYPEDESCRIPTION@@A 10079020     plats.obj
 0003:00008050       ?m_SaveData@CFuncPlatRot@@2PAUTYPEDESCRIPTION@@A 10079050     plats.obj
 0003:00008070       ?m_SaveData@CFuncTrain@@2PAUTYPEDESCRIPTION@@A 10079070     plats.obj
 0003:000080a0       ?m_SaveData@CFuncTrackTrain@@2PAUTYPEDESCRIPTION@@A 100790a0     plats.obj
 0003:00008160       ?m_SaveData@CFuncTrackChange@@2PAUTYPEDESCRIPTION@@A 10079160     plats.obj
 0003:000081f0       ?m_SaveData@CGunTarget@@2PAUTYPEDESCRIPTION@@A 100791f0     plats.obj
 0003:00008200       ??_C@_04BJEF@m_on?$AA@     10079200     plats.obj
 0003:00008208       ??_C@_05NIPN@m_use?$AA@    10079208     plats.obj
 0003:00008210       ??_C@_0O@BCOO@m_targetState?$AA@ 10079210     plats.obj
 0003:00008220       ??_C@_06HCNB@m_code?$AA@   10079220     plats.obj
 0003:00008228       ??_C@_0M@OFHE@m_trainName?$AA@ 10079228     plats.obj
 0003:00008234       ??_C@_0BC@NHGG@m_trackBottomName?$AA@ 10079234     plats.obj
 0003:00008248       ??_C@_0P@MEPM@m_trackTopName?$AA@ 10079248     plats.obj
 0003:00008258       ??_C@_07JLCO@m_train?$AA@  10079258     plats.obj
 0003:00008260       ??_C@_0O@DAKG@m_trackBottom?$AA@ 10079260     plats.obj
 0003:00008270       ??_C@_0L@EEBK@m_trackTop?$AA@ 10079270     plats.obj
 0003:0000827c       ??_C@_0L@FKGC@m_oldSpeed?$AA@ 1007927c     plats.obj
 0003:00008288       ??_C@_08JBFJ@m_flBank?$AA@ 10079288     plats.obj
 0003:00008294       ??_C@_0O@FDHI@m_controlMaxs?$AA@ 10079294     plats.obj
 0003:000082a4       ??_C@_0O@NOJL@m_controlMins?$AA@ 100792a4     plats.obj
 0003:000082b4       ??_C@_0N@IMGF@m_startSpeed?$AA@ 100792b4     plats.obj
 0003:000082c4       ??_C@_05KFLM@m_dir?$AA@    100792c4     plats.obj
 0003:000082cc       ??_C@_08DMBG@m_height?$AA@ 100792cc     plats.obj
 0003:000082d8       ??_C@_07DNJA@m_ppath?$AA@  100792d8     plats.obj
 0003:000082e0       ??_C@_0M@OADG@m_activated?$AA@ 100792e0     plats.obj
 0003:000082ec       ??_C@_0BD@OBAD@m_pevCurrentTarget?$AA@ 100792ec     plats.obj
 0003:00008300       ??_C@_08INAP@m_volume?$AA@ 10079300     plats.obj
 0003:0000830c       ??_C@_0P@FFMP@CBasePlatTrain?$AA@ 1007930c     plats.obj
 0003:0000831c       ??_C@_06FLOP@volume?$AA@   1007931c     plats.obj
 0003:00008324       ??_C@_08GHGA@rotation?$AA@ 10079324     plats.obj
 0003:00008330       ??_C@_0BE@JLEG@plats?1talkstop1?4wav?$AA@ 10079330     plats.obj
 0003:00008344       ??_C@_0BG@NIIH@plats?1squeekstop1?4wav?$AA@ 10079344     plats.obj
 0003:0000835c       ??_C@_0BE@JDNF@plats?1railstop1?4wav?$AA@ 1007935c     plats.obj
 0003:00008370       ??_C@_0BE@LNPL@plats?1rackstop1?4wav?$AA@ 10079370     plats.obj
 0003:00008384       ??_C@_0BF@CGKL@plats?1heavystop2?4wav?$AA@ 10079384     plats.obj
 0003:0000839c       ??_C@_0BH@IFJO@plats?1freightstop1?4wav?$AA@ 1007939c     plats.obj
 0003:000083b4       ??_C@_0BD@BIMH@plats?1bigstop2?4wav?$AA@ 100793b4     plats.obj
 0003:000083c8       ??_C@_0BD@PIKI@plats?1bigstop1?4wav?$AA@ 100793c8     plats.obj
 0003:000083dc       ??_C@_0BE@PBPE@plats?1talkmove2?4wav?$AA@ 100793dc     plats.obj
 0003:000083f0       ??_C@_0BE@BBJL@plats?1talkmove1?4wav?$AA@ 100793f0     plats.obj
 0003:00008404       ??_C@_0BG@FCFK@plats?1squeekmove1?4wav?$AA@ 10079404     plats.obj
 0003:0000841c       ??_C@_0BE@BJAI@plats?1railmove1?4wav?$AA@ 1007941c     plats.obj
 0003:00008430       ??_C@_0BE@DHCG@plats?1rackmove1?4wav?$AA@ 10079430     plats.obj
 0003:00008444       ??_C@_0BF@EMBJ@plats?1heavymove1?4wav?$AA@ 10079444     plats.obj
 0003:0000845c       ??_C@_0BH@OPCM@plats?1freightmove2?4wav?$AA@ 1007945c     plats.obj
 0003:00008474       ??_C@_0BH@PED@plats?1freightmove1?4wav?$AA@ 10079474     plats.obj
 0003:0000848c       ??_C@_0BE@CPHK@plats?1elevmove3?4wav?$AA@ 1007948c     plats.obj
 0003:000084a0       ??_C@_0BE@IPFP@plats?1elevmove2?4wav?$AA@ 100794a0     plats.obj
 0003:000084b4       ??_C@_0BE@GPDA@plats?1elevmove1?4wav?$AA@ 100794b4     plats.obj
 0003:000084c8       ??_C@_0BD@JCBK@plats?1bigmove2?4wav?$AA@ 100794c8     plats.obj
 0003:000084dc       ??_C@_0BD@HCHF@plats?1bigmove1?4wav?$AA@ 100794dc     plats.obj
 0003:000084f0       ??_C@_0BC@MENN@?$CFs?5Blocked?5by?5?$CFs?6?$AA@ 100794f0     plats.obj
 0003:00008504       ??_C@_0N@GBFP@CFuncPlatRot?$AA@ 10079504     plats.obj
 0003:00008514       ??_C@_0L@GCNI@CFuncTrain?$AA@ 10079514     plats.obj
 0003:00008520       ??_C@_0BJ@OJNB@Train?5?$CFs?5speed?5to?5?$CF4?42f?6?$AA@ 10079520     plats.obj
 0003:0000853c       ??_C@_0BJ@DGBI@FuncTrain?5with?5no?5target?$AA@ 1007953c     plats.obj
 0003:00008558       ??_C@_0BA@PNOC@CFuncTrackTrain?$AA@ 10079558     plats.obj
 0003:00008568       ??_C@_04MAHH@bank?$AA@     10079568     plats.obj
 0003:00008570       ??_C@_0L@DAPE@startspeed?$AA@ 10079570     plats.obj
 0003:0000857c       ??_C@_06MALF@wheels?$AA@   1007957c     plats.obj
 0003:00008584       ??_C@_0CF@OGMH@TRAIN?$CI?$CFs?$CJ?3?5Blocked?5by?5?$CFs?5?$CIdmg?3?$CF?4@ 10079584     plats.obj
 0003:000085ac       ??_C@_0BK@NHEJ@TRAIN?$CI?$CFs?$CJ?0?5speed?5to?5?$CF?42f?6?$AA@ 100795ac     plats.obj
 0003:000085c8       ??_C@_0BI@LCPH@plats?1ttrain_brake1?4wav?$AA@ 100795c8     plats.obj
 0003:000085e0       ??_C@_0BI@DAGB@plats?1ttrain_start1?4wav?$AA@ 100795e0     plats.obj
 0003:000085f8       ??_C@_0BO@DMIH@TrackTrain?5?$CFs?5speed?5to?5?$CF4?42f?6?$AA@ 100795f8     plats.obj
 0003:00008618       ??_C@_0BG@FNFN@TRAIN?$CI?$CFs?$CJ?3?5Lost?5path?6?$AA@ 10079618     plats.obj
 0003:00008630       ??_C@_0BH@LMCO@TRAIN?$CI?$CFs?$CJ?3?5Speed?5is?50?6?$AA@ 10079630     plats.obj
 0003:00008648       ??_C@_06BLHP@at?5?$CFs?6?$AA@ 10079648     plats.obj
 0003:00008650       ??_C@_0BF@LGCC@TRAIN?$CI?$CFs?$CJ?3?5Dead?5end?5?$AA@ 10079650     plats.obj
 0003:00008668       ??_C@_0DC@CPIB@func_track_train?5must?5be?5on?5a?5pa@ 10079668     plats.obj
 0003:0000869c       ??_C@_0CA@BCAL@TRAIN?3?5?$CFs?0?5Nearest?5track?5is?5?$CFs?6?$AA@ 1007969c     plats.obj
 0003:000086bc       ??_C@_0BP@EIGK@Can?8t?5find?5a?5nearby?5track?5?$CB?$CB?$CB?6?$AA@ 100796bc     plats.obj
 0003:000086dc       ??_C@_0BA@KOLE@func_tracktrain?$AA@ 100796dc     plats.obj
 0003:000086ec       ??_C@_0BC@GFHD@plats?1ttrain7?4wav?$AA@ 100796ec     plats.obj
 0003:00008700       ??_C@_0BC@MFFG@plats?1ttrain6?4wav?$AA@ 10079700     plats.obj
 0003:00008714       ??_C@_0BC@IFBM@plats?1ttrain4?4wav?$AA@ 10079714     plats.obj
 0003:00008728       ??_C@_0BC@OFOG@plats?1ttrain3?4wav?$AA@ 10079728     plats.obj
 0003:0000873c       ??_C@_0BC@EFMD@plats?1ttrain2?4wav?$AA@ 1007973c     plats.obj
 0003:00008750       ??_C@_0BC@KFKM@plats?1ttrain1?4wav?$AA@ 10079750     plats.obj
 0003:00008764       ??_C@_0N@PEHF@No?5train?5?$CFs?6?$AA@ 10079764     plats.obj
 0003:00008774       ??_C@_0BB@MCNO@CFuncTrackChange?$AA@ 10079774     plats.obj
 0003:00008788       ??_C@_0M@DPJA@bottomtrack?$AA@ 10079788     plats.obj
 0003:00008794       ??_C@_08DIO@toptrack?$AA@  10079794     plats.obj
 0003:000087a0       ??_C@_05HLPG@train?$AA@    100797a0     plats.obj
 0003:000087a8       ??_C@_0CL@JAGN@Can?8t?5find?5top?5track?5for?5track?5c@ 100797a8     plats.obj
 0003:000087d4       ??_C@_0CO@CHAO@Can?8t?5find?5bottom?5track?5for?5trac@ 100797d4     plats.obj
 0003:00008804       ??_C@_0CH@MHNP@Can?8t?5find?5train?5for?5track?5chang@ 10079804     plats.obj
 0003:0000882c       ??_C@_0L@CLNG@CGunTarget?$AA@ 1007982c     plats.obj
 0003:00008838       ?gInitHUD@@3HA             10079838     player.obj
 0003:00008840       ?m_playerSaveData@CBasePlayer@@2PAUTYPEDESCRIPTION@@A 10079840     player.obj
 0003:00008aa0       ?m_szPoses@CDeadHEV@@2PAPADA 10079aa0     player.obj
 0003:00008ab0       ?m_SaveData@CRevertSaved@@2PAUTYPEDESCRIPTION@@A 10079ab0     player.obj
 0003:00008ad0       ??_C@_0L@KMKM@m_loadTime?$AA@ 10079ad0     player.obj
 0003:00008adc       ??_C@_0O@DAMF@m_messageTime?$AA@ 10079adc     player.obj
 0003:00008aec       ??_C@_09DHBC@deadtable?$AA@ 10079aec     player.obj
 0003:00008af8       ??_C@_0M@JAIB@deadstomach?$AA@ 10079af8     player.obj
 0003:00008b04       ??_C@_0M@HFON@deadsitting?$AA@ 10079b04     player.obj
 0003:00008b10       ??_C@_08DADH@deadback?$AA@ 10079b10     player.obj
 0003:00008b1c       ??_C@_06MNED@m_iFOV?$AA@   10079b1c     player.obj
 0003:00008b24       ??_C@_0L@EKEP@m_iHideHUD?$AA@ 10079b24     player.obj
 0003:00008b30       ??_C@_09LNGJ@m_tbdPrev?$AA@ 10079b30     player.obj
 0003:00008b3c       ??_C@_0L@GEOO@m_fInitHUD?$AA@ 10079b3c     player.obj
 0003:00008b48       ??_C@_0M@LMLC@m_fLongJump?$AA@ 10079b48     player.obj
 0003:00008b54       ??_C@_0P@GNJF@m_iWeaponFlash?$AA@ 10079b54     player.obj
 0003:00008b64       ??_C@_0BD@CDKK@m_iExtraSoundTypes?$AA@ 10079b64     player.obj
 0003:00008b78       ??_C@_0BA@CMBG@m_iWeaponVolume?$AA@ 10079b78     player.obj
 0003:00008b88       ??_C@_0BA@CGPL@m_iTargetVolume?$AA@ 10079b88     player.obj
 0003:00008b98       ??_C@_0BB@DAFJ@m_flFallVelocity?$AA@ 10079b98     player.obj
 0003:00008bac       ??_C@_0BA@CDPM@m_bitsHUDDamage?$AA@ 10079bac     player.obj
 0003:00008bbc       ??_C@_08ENBA@m_iTrain?$AA@ 10079bbc     player.obj
 0003:00008bc8       ??_C@_0M@GLKA@m_tSneaking?$AA@ 10079bc8     player.obj
 0003:00008bd4       ??_C@_0BB@BBMB@m_idrownrestored?$AA@ 10079bd4     player.obj
 0003:00008be8       ??_C@_0M@ILIP@m_idrowndmg?$AA@ 10079be8     player.obj
 0003:00008bf4       ??_C@_08FKCE@m_rgAmmo?$AA@ 10079bf4     player.obj
 0003:00008c00       ??_C@_0M@CFPO@m_pLastItem?$AA@ 10079c00     player.obj
 0003:00008c0c       ??_C@_0O@KJCH@m_pActiveItem?$AA@ 10079c0c     player.obj
 0003:00008c1c       ??_C@_0BB@EEJP@m_rgpPlayerItems?$AA@ 10079c1c     player.obj
 0003:00008c30       ??_C@_0BD@HNKI@m_lastDamageAmount?$AA@ 10079c30     player.obj
 0003:00008c44       ??_C@_0BH@LLEI@m_rgflSuitNoRepeatTime?$AA@ 10079c44     player.obj
 0003:00008c5c       ??_C@_0BC@OGJN@m_rgiSuitNoRepeat?$AA@ 10079c5c     player.obj
 0003:00008c70       ??_C@_0BA@HPB@m_iSuitPlayNext?$AA@ 10079c70     player.obj
 0003:00008c80       ??_C@_0BB@EFMO@m_rgSuitPlayList?$AA@ 10079c80     player.obj
 0003:00008c94       ??_C@_0P@NJHH@m_flSuitUpdate?$AA@ 10079c94     player.obj
 0003:00008ca4       ??_C@_0BB@OEFN@m_flWallJumpTime?$AA@ 10079ca4     player.obj
 0003:00008cb8       ??_C@_0N@BPHG@m_flDuckTime?$AA@ 10079cb8     player.obj
 0003:00008cc8       ??_C@_0N@HOOD@m_flSwimTime?$AA@ 10079cc8     player.obj
 0003:00008cd8       ??_C@_0BD@BHFE@m_flTimeWeaponIdle?$AA@ 10079cd8     player.obj
 0003:00008cec       ??_C@_0BC@BDEP@m_flTimeStepSound?$AA@ 10079cec     player.obj
 0003:00008d00       ??_C@_0BB@DCMP@m_afPhysicsFlags?$AA@ 10079d00     player.obj
 0003:00008d14       ??_C@_09KJJK@m_rgItems?$AA@ 10079d14     player.obj
 0003:00008d20       ??_C@_0BD@KFOL@m_afButtonReleased?$AA@ 10079d20     player.obj
 0003:00008d34       ??_C@_0BC@GBEG@m_afButtonPressed?$AA@ 10079d34     player.obj
 0003:00008d48       ??_C@_0P@MIOL@m_afButtonLast?$AA@ 10079d48     player.obj
 0003:00008d58       ??_C@_0BA@NBGK@m_iFlashBattery?$AA@ 10079d58     player.obj
 0003:00008d68       ??_C@_0BD@JMEP@m_flFlashLightTime?$AA@ 10079d68     player.obj
 0003:00008d7c       ??_C@_08LDNI@HEV_DEAD?$AA@ 10079d7c     player.obj
 0003:00008d88       ??_C@_0L@JJK@?$CBHEV_HLTH1?$AA@ 10079d88     player.obj
 0003:00008d94       ??_C@_09HODG@?$CBHEV_DMG7?$AA@ 10079d94     player.obj
 0003:00008da0       ??_C@_0L@PGCD@?$CBHEV_HLTH2?$AA@ 10079da0     player.obj
 0003:00008dac       ??_C@_0L@FMLE@?$CBHEV_HLTH3?$AA@ 10079dac     player.obj
 0003:00008db8       ??_C@_0L@JIKG@?$CBHEV_HEAL7?$AA@ 10079db8     player.obj
 0003:00008dc4       ??_C@_09CFMM@?$CBHEV_MED1?$AA@ 10079dc4     player.obj
 0003:00008dd0       ??_C@_09LPBO@?$CBHEV_DET2?$AA@ 10079dd0     player.obj
 0003:00008ddc       ??_C@_09OKDA@?$CBHEV_DET0?$AA@ 10079ddc     player.obj
 0003:00008de8       ??_C@_09EAKH@?$CBHEV_DET1?$AA@ 10079de8     player.obj
 0003:00008df4       ??_C@_09NEGK@?$CBHEV_DMG3?$AA@ 10079df4     player.obj
 0003:00008e00       ??_C@_09HOPN@?$CBHEV_DMG2?$AA@ 10079e00     player.obj
 0003:00008e0c       ??_C@_09CLND@?$CBHEV_DMG0?$AA@ 10079e0c     player.obj
 0003:00008e18       ??_C@_09IBEE@?$CBHEV_DMG1?$AA@ 10079e18     player.obj
 0003:00008e24       ??_C@_09NEKB@?$CBHEV_DMG6?$AA@ 10079e24     player.obj
 0003:00008e30       ??_C@_09CLBI@?$CBHEV_DMG5?$AA@ 10079e30     player.obj
 0003:00008e3c       ??_C@_09IBIP@?$CBHEV_DMG4?$AA@ 10079e3c     player.obj
 0003:00008e48       ??_C@_09KMAI@weaponbox?$AA@ 10079e48     player.obj
 0003:00008e54       ??_C@_09KCMO@deep_idle?$AA@ 10079e54     player.obj
 0003:00008e60       ??_C@_08GBMH@ref_aim_?$AA@ 10079e60     player.obj
 0003:00008e6c       ??_C@_0M@OOG@crouch_aim_?$AA@ 10079e6c     player.obj
 0003:00008e78       ??_C@_0L@FJK@ref_shoot_?$AA@ 10079e78     player.obj
 0003:00008e84       ??_C@_0O@KCNB@crouch_shoot_?$AA@ 10079e84     player.obj
 0003:00008e94       ??_C@_0BC@FEBM@info_intermission?$AA@ 10079e94     player.obj
 0003:00008ea8       ??_C@_0L@GHBP@?$CBHEV_HEAL4?$AA@ 10079ea8     player.obj
 0003:00008eb4       ??_C@_01PIHH@?$CB?$AA@     10079eb4     player.obj
 0003:00008eb8       ??_C@_0BN@DJPP@Client?5lost?5reserved?5sound?$CB?6?$AA@ 10079eb8     player.obj
 0003:00008ed8       ??_C@_0DB@HALC@PutClientInServer?3?5no?5info_playe@ 10079ed8     player.obj
 0003:00008f0c       ??_C@_0BH@MKJP@info_player_deathmatch?$AA@ 10079f0c     player.obj
 0003:00008f24       ??_C@_0BC@MCPA@info_player_start?$AA@ 10079f24     player.obj
 0003:00008f38       ??_C@_0BB@HJAP@info_player_coop?$AA@ 10079f38     player.obj
 0003:00008f4c       ??_C@_0CD@JFAD@Couldn?8t?5alloc?5player?5sound?5slot@ 10079f4c     player.obj
 0003:00008f70       ??_C@_05HDEE@AmmoX?$AA@    10079f70     player.obj
 0003:00008f78       ??_C@_0L@OBGK@ScreenFade?$AA@ 10079f78     player.obj
 0003:00008f84       ??_C@_0M@PCMK@ScreenShake?$AA@ 10079f84     player.obj
 0003:00008f90       ??_C@_08FEII@ShowMenu?$AA@ 10079f90     player.obj
 0003:00008f9c       ??_C@_06HLLA@SetFOV?$AA@   10079f9c     player.obj
 0003:00008fa4       ??_C@_0L@HFOM@HideWeapon?$AA@ 10079fa4     player.obj
 0003:00008fb0       ??_C@_0L@KPIL@ItemPickup?$AA@ 10079fb0     player.obj
 0003:00008fbc       ??_C@_0L@MCHE@WeapPickup?$AA@ 10079fbc     player.obj
 0003:00008fc8       ??_C@_0L@DJEN@AmmoPickup?$AA@ 10079fc8     player.obj
 0003:00008fd4       ??_C@_04PAEL@MOTD?$AA@     10079fd4     player.obj
 0003:00008fdc       ??_C@_08MAFF@GameMode?$AA@ 10079fdc     player.obj
 0003:00008fe8       ??_C@_09GODL@TeamScore?$AA@ 10079fe8     player.obj
 0003:00008ff4       ??_C@_08DBKP@TeamInfo?$AA@ 10079ff4     player.obj
 0003:00009000       ??_C@_09HCEC@ScoreInfo?$AA@ 1007a000     player.obj
 0003:0000900c       ??_C@_08FJPD@DeathMsg?$AA@ 1007a00c     player.obj
 0003:00009018       ??_C@_09KAAJ@GameTitle?$AA@ 1007a018     player.obj
 0003:00009024       ??_C@_07PHEM@InitHUD?$AA@  1007a024     player.obj
 0003:0000902c       ??_C@_08EHIO@ResetHUD?$AA@ 1007a02c     player.obj
 0003:00009038       ??_C@_0L@KAL@WeaponList?$AA@ 1007a038     player.obj
 0003:00009044       ??_C@_07FKFB@TextMsg?$AA@  1007a044     player.obj
 0003:0000904c       ??_C@_07MFFM@SayText?$AA@  1007a04c     player.obj
 0003:00009054       ??_C@_07EFI@HudText?$AA@   1007a054     player.obj
 0003:0000905c       ??_C@_05HPFM@Train?$AA@    1007a05c     player.obj
 0003:00009064       ??_C@_07EFDJ@Battery?$AA@  1007a064     player.obj
 0003:0000906c       ??_C@_06ILDP@Damage?$AA@   1007a06c     player.obj
 0003:00009074       ??_C@_06MACP@Health?$AA@   1007a074     player.obj
 0003:0000907c       ??_C@_08MMIN@FlashBat?$AA@ 1007a07c     player.obj
 0003:00009088       ??_C@_0L@PAOI@Flashlight?$AA@ 1007a088     player.obj
 0003:00009094       ??_C@_06BNLF@Geiger?$AA@   1007a094     player.obj
 0003:0000909c       ??_C@_09MOMN@CurWeapon?$AA@ 1007a09c     player.obj
 0003:000090a8       ??_C@_07OAGP@SelAmmo?$AA@  1007a0a8     player.obj
 0003:000090b0       ??_C@_0BH@OMEJ@?$CK?$CKGraph?5Pointers?5Set?$CB?6?$AA@ 1007a0b0     player.obj
 0003:000090c8       ??_C@_0CA@HLMG@?$CK?$CKGraph?5pointers?5were?5not?5set?$CB?6?$AA@ 1007a0c8     player.obj
 0003:000090e8       ??_C@_06BCGP@PLAYER?$AA@   1007a0e8     player.obj
 0003:000090f0       ??_C@_0BA@ILEC@No?5Landmark?3?$CFs?6?$AA@ 1007a0f0     player.obj
 0003:00009100       ??_C@_0BM@PIHH@NULL?5Ent?5in?5GiveNamedItem?$CB?6?$AA@ 1007a100     player.obj
 0003:0000911c       ??_C@_04OKCJ@Logo?$AA@     1007a11c     player.obj
 0003:00009124       ??_C@_03HMFC@?$CFd?6?$AA@  1007a124     player.obj
 0003:00009128       ??_C@_0BC@IDJE@node_viewer_human?$AA@ 1007a128     player.obj
 0003:0000913c       ??_C@_0BC@BACI@node_viewer_large?$AA@ 1007a13c     player.obj
 0003:00009150       ??_C@_0BA@ILEJ@node_viewer_fly?$AA@ 1007a150     player.obj
 0003:00009160       ??_C@_0N@HPKB@Texture?3?5?$CFs?6?$AA@ 1007a160     player.obj
 0003:00009170       ??_C@_0BA@GOEO@Globalname?3?5?$CFs?6?$AA@ 1007a170     player.obj
 0003:00009180       ??_C@_0L@MINB@Model?3?5?$CFs?6?$AA@ 1007a180     player.obj
 0003:0000918c       ??_C@_0BO@JLNH@?5?9?5TargetName?3?5No?5Targetname?6?$AA@ 1007a18c     player.obj
 0003:000091ac       ??_C@_0BD@NMFG@?5?9?5Targetname?3?5?$CFs?6?$AA@ 1007a1ac     player.obj
 0003:000091c0       ??_C@_0O@KOFM@Classname?3?5?$CFs?$AA@ 1007a1c0     player.obj
 0003:000091d0       ??_C@_0BC@IGLL@Player?5is?5silent?6?$AA@ 1007a1d0     player.obj
 0003:000091e4       ??_C@_0BD@GFEK@Player?5is?5audible?6?$AA@ 1007a1e4     player.obj
 0003:000091f8       ??_C@_0N@DDMO@weapon_gauss?$AA@ 1007a1f8     player.obj
 0003:00009208       ??_C@_0M@IOMI@weapon_egon?$AA@ 1007a208     player.obj
 0003:00009214       ??_C@_0CM@GFCL@You?5must?5now?5restart?5to?5use?5Grun@ 1007a214     player.obj
 0003:00009240       ??_C@_05EEDH@Empty?$AA@    1007a240     player.obj
 0003:00009248       ??_C@_0BB@DOHN@game_playerspawn?$AA@ 1007a248     player.obj
 0003:0000925c       ??_C@_0BA@CAEF@game_playerjoin?$AA@ 1007a25c     player.obj
 0003:0000926c       ??_C@_06MMCC@sv_aim?$AA@   1007a26c     player.obj
 0003:00009274       ??_C@_04JLAH@pose?$AA@     1007a274     player.obj
 0003:0000927c       ??_C@_0BM@FAED@Dead?5hevsuit?5with?5bad?5pose?6?$AA@ 1007a27c     player.obj
 0003:00009298       ??_C@_0N@PJHA@CRevertSaved?$AA@ 1007a298     player.obj
 0003:000092a8       ??_C@_08CLNM@loadtime?$AA@ 1007a2a8     player.obj
 0003:000092b4       ??_C@_0M@LJDP@messagetime?$AA@ 1007a2b4     player.obj
 0003:000092c0       ??_C@_03MIAK@357?$AA@      1007a2c0     python.obj
 0003:000092c4       ??_C@_0BB@FHNJ@models?1w_357?4mdl?$AA@ 1007a2c4     python.obj
 0003:000092d8       ??_C@_0BG@DKOO@weapons?1357_shot2?4wav?$AA@ 1007a2d8     python.obj
 0003:000092f0       ??_C@_0BG@NKIB@weapons?1357_shot1?4wav?$AA@ 1007a2f0     python.obj
 0003:00009308       ??_C@_0BI@JMMB@weapons?1357_reload1?4wav?$AA@ 1007a308     python.obj
 0003:00009320       ??_C@_0BI@GIKK@models?1w_357ammobox?4mdl?$AA@ 1007a320     python.obj
 0003:00009338       ??_C@_0BB@BICB@models?1p_357?4mdl?$AA@ 1007a338     python.obj
 0003:0000934c       ??_C@_0BB@JFJB@models?1v_357?4mdl?$AA@ 1007a34c     python.obj
 0003:00009360       ??_C@_06LGND@python?$AA@   1007a360     python.obj
 0003:00009368       ?m_SaveData@CRpg@@2PAUTYPEDESCRIPTION@@A 1007a368     rpg.obj
 0003:00009388       ?m_SaveData@CRpgRocket@@2PAUTYPEDESCRIPTION@@A 1007a388     rpg.obj
 0003:000093a8       ??_C@_0M@IANF@m_pLauncher?$AA@ 1007a3a8     rpg.obj
 0003:000093b4       ??_C@_0P@LAOK@m_flIgniteTime?$AA@ 1007a3b4     rpg.obj
 0003:000093c4       ??_C@_0BB@EPHI@m_cActiveRockets?$AA@ 1007a3c4     rpg.obj
 0003:000093d8       ??_C@_0O@OAPG@m_fSpotActive?$AA@ 1007a3d8     rpg.obj
 0003:000093e8       ??_C@_04IMAF@CRpg?$AA@     1007a3e8     rpg.obj
 0003:000093f0       ??_C@_0L@FNBF@laser_spot?$AA@ 1007a3f0     rpg.obj
 0003:000093fc       ??_C@_0BF@FKKF@sprites?1laserdot?4spr?$AA@ 1007a3fc     rpg.obj
 0003:00009414       ??_C@_0L@OCDJ@CRpgRocket?$AA@ 1007a414     rpg.obj
 0003:00009420       ??_C@_0BF@ECAE@models?1rpgrocket?4mdl?$AA@ 1007a420     rpg.obj
 0003:00009438       ??_C@_0BE@MOAO@weapons?1rocket1?4wav?$AA@ 1007a438     rpg.obj
 0003:0000944c       ??_C@_0BB@HMAM@models?1w_rpg?4mdl?$AA@ 1007a44c     rpg.obj
 0003:00009460       ??_C@_0BI@BOJG@weapons?1rocketfire1?4wav?$AA@ 1007a460     rpg.obj
 0003:00009478       ??_C@_0BB@DDPE@models?1p_rpg?4mdl?$AA@ 1007a478     rpg.obj
 0003:0000948c       ??_C@_0BB@LOEE@models?1v_rpg?4mdl?$AA@ 1007a48c     rpg.obj
 0003:000094a0       ??_C@_07DPNP@rockets?$AA@  1007a4a0     rpg.obj
 0003:000094a8       ??_C@_03PFKD@rpg?$AA@      1007a4a8     rpg.obj
 0003:000094ac       ??_C@_0BF@FJPG@models?1w_rpgammo?4mdl?$AA@ 1007a4ac     rpg.obj
 0003:000094c8       ?m_SaveData@CSatchel@@2PAUTYPEDESCRIPTION@@A 1007a4c8     satchel.obj
 0003:000094d8       ??_C@_0O@CJKI@m_chargeReady?$AA@ 1007a4d8     satchel.obj
 0003:000094e8       ??_C@_0BF@OLDF@models?1w_satchel?4mdl?$AA@ 1007a4e8     satchel.obj
 0003:00009500       ??_C@_0BG@DCFB@weapons?1g_bounce2?4wav?$AA@ 1007a500     satchel.obj
 0003:00009518       ??_C@_0BG@NCDO@weapons?1g_bounce1?4wav?$AA@ 1007a518     satchel.obj
 0003:00009530       ??_C@_08NGAB@CSatchel?$AA@ 1007a530     satchel.obj
 0003:0000953c       ??_C@_0BA@DNIC@monster_satchel?$AA@ 1007a53c     satchel.obj
 0003:0000954c       ??_C@_0BL@OIHN@models?1p_satchel_radio?4mdl?$AA@ 1007a54c     satchel.obj
 0003:00009568       ??_C@_0BF@FNDE@models?1p_satchel?4mdl?$AA@ 1007a568     satchel.obj
 0003:00009580       ??_C@_0BL@OMAB@models?1v_satchel_radio?4mdl?$AA@ 1007a580     satchel.obj
 0003:0000959c       ??_C@_0BF@LKFI@models?1v_satchel?4mdl?$AA@ 1007a59c     satchel.obj
 0003:000095b4       ??_C@_0P@MEAH@Satchel?5Charge?$AA@ 1007a5b4     satchel.obj
 0003:000095c4       ??_C@_04POMP@trip?$AA@     1007a5c4     satchel.obj
 0003:000095d0       ?m_SaveData@CShotgun@@2PAUTYPEDESCRIPTION@@A 1007a5d0     shotgun.obj
 0003:00009610       ??_C@_0N@IOPE@m_flPumpTime?$AA@ 1007a610     shotgun.obj
 0003:00009620       ??_C@_0M@CDPA@m_fInReload?$AA@ 1007a620     shotgun.obj
 0003:0000962c       ??_C@_0P@BFCG@m_flNextReload?$AA@ 1007a62c     shotgun.obj
 0003:0000963c       ??_C@_08LDHM@CShotgun?$AA@ 1007a63c     shotgun.obj
 0003:00009648       ??_C@_0BF@LHND@models?1w_shotgun?4mdl?$AA@ 1007a648     shotgun.obj
 0003:00009660       ??_C@_0BD@FGMO@weapons?1scock1?4wav?$AA@ 1007a660     shotgun.obj
 0003:00009674       ??_C@_0BE@HCIF@weapons?1reload3?4wav?$AA@ 1007a674     shotgun.obj
 0003:00009688       ??_C@_0BE@DCMP@weapons?1reload1?4wav?$AA@ 1007a688     shotgun.obj
 0003:0000969c       ??_C@_0BF@MGAA@weapons?1sbarrel1?4wav?$AA@ 1007a69c     shotgun.obj
 0003:000096b4       ??_C@_0BF@BJDN@weapons?1dbarrel1?4wav?$AA@ 1007a6b4     shotgun.obj
 0003:000096cc       ??_C@_0BI@MEKG@models?1shotgunshell?4mdl?$AA@ 1007a6cc     shotgun.obj
 0003:000096e4       ??_C@_0BF@BNC@models?1p_shotgun?4mdl?$AA@ 1007a6e4     shotgun.obj
 0003:000096fc       ??_C@_0BF@OGLO@models?1v_shotgun?4mdl?$AA@ 1007a6fc     shotgun.obj
 0003:00009714       ??_C@_08NGBJ@buckshot?$AA@ 1007a714     shotgun.obj
 0003:00009720       ??_C@_07LCBO@shotgun?$AA@  1007a720     shotgun.obj
 0003:00009728       ??_C@_0BF@DNNJ@models?1w_shotbox?4mdl?$AA@ 1007a728     shotgun.obj
 0003:00009740       ??_C@_0CJ@JAJ@?6?6?$CK?$CK?5GetSkillCVar?5Got?5a?5zero?5for@ 1007a740     skill.obj
 0003:0000976c       ??_C@_04MOFI@?$CFs?$CFd?$AA@ 1007a76c     skill.obj
 0003:00009778       ?rgdpvpreset@@3PAUdynpitchvol@@A 1007a778     sound.obj
 0003:0000a208       ?m_SaveData@CAmbientGeneric@@2PAUTYPEDESCRIPTION@@A 1007b208     sound.obj
 0003:0000a248       ?m_SaveData@CEnvSound@@2PAUTYPEDESCRIPTION@@A 1007b248     sound.obj
 0003:0000a268       ?m_SaveData@CSpeaker@@2PAUTYPEDESCRIPTION@@A 1007b268     sound.obj
 0003:0000a278       ??_C@_08IGAG@m_preset?$AA@ 1007b278     sound.obj
 0003:0000a284       ??_C@_0N@MOCP@m_flRoomtype?$AA@ 1007b284     sound.obj
 0003:0000a294       ??_C@_0L@IPB@m_flRadius?$AA@ 1007b294     sound.obj
 0003:0000a2a0       ??_C@_05MGLH@m_dpv?$AA@    1007b2a0     sound.obj
 0003:0000a2a8       ??_C@_0L@LMNA@m_fLooping?$AA@ 1007b2a8     sound.obj
 0003:0000a2b4       ??_C@_09BMHH@m_fActive?$AA@ 1007b2b4     sound.obj
 0003:0000a2c0       ??_C@_0BA@NFEK@CAmbientGeneric?$AA@ 1007b2c0     sound.obj
 0003:0000a2d0       ??_C@_0BO@HCGM@EMPTY?5AMBIENT?5AT?3?5?$CFf?0?5?$CFf?0?5?$CFf?6?$AA@ 1007b2d0     sound.obj
 0003:0000a2f0       ??_C@_07HOJA@cspinup?$AA@  1007b2f0     sound.obj
 0003:0000a2f8       ??_C@_09KJLL@lfomodvol?$AA@ 1007b2f8     sound.obj
 0003:0000a304       ??_C@_0M@HCFK@lfomodpitch?$AA@ 1007b304     sound.obj
 0003:0000a310       ??_C@_07LIPA@lforate?$AA@  1007b310     sound.obj
 0003:0000a318       ??_C@_07IMGJ@lfotype?$AA@  1007b318     sound.obj
 0003:0000a320       ??_C@_08FJGI@volstart?$AA@ 1007b320     sound.obj
 0003:0000a32c       ??_C@_08EIAJ@spindown?$AA@ 1007b32c     sound.obj
 0003:0000a338       ??_C@_06HKPC@spinup?$AA@   1007b338     sound.obj
 0003:0000a340       ??_C@_0L@KOLG@pitchstart?$AA@ 1007b340     sound.obj
 0003:0000a34c       ??_C@_06FAOG@preset?$AA@   1007b34c     sound.obj
 0003:0000a354       ??_C@_09HBNP@CEnvSound?$AA@ 1007b354     sound.obj
 0003:0000a360       ??_C@_08JLPP@roomtype?$AA@ 1007b360     sound.obj
 0003:0000a36c       ??_C@_0BL@GEEN@No?5such?5sentence?5group?5?$CFs?6?$AA@ 1007b36c     sound.obj
 0003:0000a388       ??_C@_0CM@LDAL@Too?5many?5sentence?5groups?5in?5sent@ 1007b388     sound.obj
 0003:0000a3b4       ??_C@_0CG@DGLM@Too?5many?5sentences?5in?5sentences?4@ 1007b3b4     sound.obj
 0003:0000a3dc       ??_C@_0CE@NHFB@Sentence?5?$CFs?5longer?5than?5?$CFd?5lette@ 1007b3dc     sound.obj
 0003:0000a400       ??_C@_0BE@HEJL@sound?1sentences?4txt?$AA@ 1007b400     sound.obj
 0003:0000a414       ??_C@_0CE@HOCG@Unable?5to?5find?5?$CFs?5in?5sentences?4t@ 1007b414     sound.obj
 0003:0000a438       ??_C@_0L@CIEP@suitvolume?$AA@ 1007b438     sound.obj
 0003:0000a444       ??_C@_0BE@BFKO@sound?1materials?4txt?$AA@ 1007b444     sound.obj
 0003:0000a458       ??_C@_0P@KFIJ@func_breakable?$AA@ 1007b458     sound.obj
 0003:0000a468       ??_C@_0BI@HLHD@weapons?1bullet_hit2?4wav?$AA@ 1007b468     sound.obj
 0003:0000a480       ??_C@_0BI@JLBM@weapons?1bullet_hit1?4wav?$AA@ 1007b480     sound.obj
 0003:0000a498       ??_C@_08FPG@CSpeaker?$AA@  1007b498     sound.obj
 0003:0000a4a4       ??_C@_0DA@LKBA@SPEAKER?5with?5no?5Level?1Sentence?$CB?5@ 1007b4a4     sound.obj
 0003:0000a4d4       ??_C@_0DN@CCLF@Level?5Design?5Error?$CB?6SPEAKER?5has?5@ 1007b4d4     sound.obj
 0003:0000a514       ??_C@_05DBFB@C3A2_?$AA@    1007b514     sound.obj
 0003:0000a51c       ??_C@_05KKO@C3A1_?$AA@     1007b51c     sound.obj
 0003:0000a524       ??_C@_05HFFG@C2A5_?$AA@    1007b524     sound.obj
 0003:0000a52c       ??_C@_05GDPM@C2A4_?$AA@    1007b52c     sound.obj
 0003:0000a534       ??_C@_05CKJ@C2A3_?$AA@     1007b534     sound.obj
 0003:0000a53c       ??_C@_05BEAD@C2A2_?$AA@    1007b53c     sound.obj
 0003:0000a544       ??_C@_05CPPM@C2A1_?$AA@    1007b544     sound.obj
 0003:0000a54c       ??_C@_05MAK@C1A4_?$AA@     1007b54c     sound.obj
 0003:0000a554       ??_C@_05GNFP@C1A3_?$AA@    1007b554     sound.obj
 0003:0000a55c       ??_C@_05HLPF@C1A2_?$AA@    1007b55c     sound.obj
 0003:0000a564       ??_C@_05EAAK@C1A1_?$AA@    1007b564     sound.obj
 0003:0000a56c       ??_C@_05FGKA@C1A0_?$AA@    1007b56c     sound.obj
 0003:0000a574       ??_C@_0BK@OBPO@Soundlist?3?5?$CFd?5?1?5?$CFd?5?5?$CI?$CFd?$CJ?6?$AA@ 1007b574     soundent.obj
 0003:0000a590       ??_C@_0BK@DJHI@Free?5Sound?5List?5is?5full?$CB?6?$AA@ 1007b590     soundent.obj
 0003:0000a5ac       ??_C@_0DA@HCJE@Could?5not?5AllocSound?$CI?$CJ?5for?5Inser@ 1007b5ac     soundent.obj
 0003:0000a5dc       ??_C@_0DC@BGAM@Could?5not?5AllocSound?$CI?$CJ?5for?5Clien@ 1007b5dc     soundent.obj
 0003:0000a610       ??_C@_0BK@IJPP@Unknown?5Sound?5List?5Type?$CB?6?$AA@ 1007b610     soundent.obj
 0003:0000a62c       ??_C@_0CF@FMDM@SoundPointerForIndex?$CI?$CJ?5?9?5Index?5?$DM@ 1007b62c     soundent.obj
 0003:0000a654       ??_C@_0CL@IKAM@SoundPointerForIndex?$CI?$CJ?5?9?5Index?5t@ 1007b654     soundent.obj
 0003:0000a680       ??_C@_0BO@NGPG@Could?5not?5find?5a?5spawn?5spot?4?6?$AA@ 1007b680     spectator.obj
 0003:0000a6a0       ??_C@_0BL@GOGD@Unknown?5spectator?5impulse?6?$AA@ 1007b6a0     spectator.obj
 0003:0000a6c0       ?m_SaveData@CSqueakGrenade@@0PAUTYPEDESCRIPTION@@A 1007b6c0     squeakgrenade.obj
 0003:0000a720       ??_C@_08BNAE@m_hOwner?$AA@ 1007b720     squeakgrenade.obj
 0003:0000a72c       ??_C@_09LLB@m_posPrev?$AA@ 1007b72c     squeakgrenade.obj
 0003:0000a738       ??_C@_0M@CGIK@m_flNextHit?$AA@ 1007b738     squeakgrenade.obj
 0003:0000a744       ??_C@_0N@CGAH@m_flNextHunt?$AA@ 1007b744     squeakgrenade.obj
 0003:0000a754       ??_C@_0M@LNGH@m_vecTarget?$AA@ 1007b754     squeakgrenade.obj
 0003:0000a760       ??_C@_07IKPE@m_flDie?$AA@  1007b760     squeakgrenade.obj
 0003:0000a768       ??_C@_0P@LCIN@CSqueakGrenade?$AA@ 1007b768     squeakgrenade.obj
 0003:0000a778       ??_C@_0BE@BJKE@models?1w_squeak?4mdl?$AA@ 1007b778     squeakgrenade.obj
 0003:0000a78c       ??_C@_0BH@OOCF@squeek?1sqk_deploy1?4wav?$AA@ 1007b78c     squeakgrenade.obj
 0003:0000a7a4       ??_C@_0BF@OPIA@squeek?1sqk_hunt3?4wav?$AA@ 1007b7a4     squeakgrenade.obj
 0003:0000a7bc       ??_C@_0BF@EPKF@squeek?1sqk_hunt2?4wav?$AA@ 1007b7bc     squeakgrenade.obj
 0003:0000a7d4       ??_C@_0BF@KPMK@squeek?1sqk_hunt1?4wav?$AA@ 1007b7d4     squeakgrenade.obj
 0003:0000a7ec       ??_C@_0BE@JGPG@squeek?1sqk_die1?4wav?$AA@ 1007b7ec     squeakgrenade.obj
 0003:0000a800       ??_C@_0BG@CKOO@squeek?1sqk_blast1?4wav?$AA@ 1007b800     squeakgrenade.obj
 0003:0000a818       ??_C@_0BF@IDBJ@models?1w_sqknest?4mdl?$AA@ 1007b818     squeakgrenade.obj
 0003:0000a830       ??_C@_0O@MMBK@monster_snark?$AA@ 1007b830     squeakgrenade.obj
 0003:0000a840       ??_C@_0BE@BIDB@models?1p_squeak?4mdl?$AA@ 1007b840     squeakgrenade.obj
 0003:0000a854       ??_C@_0BE@HEEO@models?1v_squeak?4mdl?$AA@ 1007b854     squeakgrenade.obj
 0003:0000a868       ??_C@_06IJPI@Snarks?$AA@   1007b868     squeakgrenade.obj
 0003:0000a870       ??_C@_06GENC@squeak?$AA@   1007b870     squeakgrenade.obj
 0003:0000a878       ?m_SaveData@CBaseDelay@@2PAUTYPEDESCRIPTION@@A 1007b878     subs.obj
 0003:0000a898       ?m_SaveData@CBaseToggle@@2PAUTYPEDESCRIPTION@@A 1007b898     subs.obj
 0003:0000a9c8       ??_C@_0BE@JMEF@m_bitsDamageInflict?$AA@ 1007b9c8     subs.obj
 0003:0000a9dc       ??_C@_09CGML@m_sMaster?$AA@ 1007b9dc     subs.obj
 0003:0000a9e8       ??_C@_0BA@OCBN@m_vecFinalAngle?$AA@ 1007b9e8     subs.obj
 0003:0000a9f8       ??_C@_0P@ONAG@m_vecFinalDest?$AA@ 1007b9f8     subs.obj
 0003:0000aa08       ??_C@_0BG@PJGK@m_pfnCallWhenMoveDone?$AA@ 1007ba08     subs.obj
 0003:0000aa20       ??_C@_0N@JCOP@m_hActivator?$AA@ 1007ba20     subs.obj
 0003:0000aa30       ??_C@_0L@HEHH@m_flHeight?$AA@ 1007ba30     subs.obj
 0003:0000aa3c       ??_C@_0BA@LKML@m_cTriggersLeft?$AA@ 1007ba3c     subs.obj
 0003:0000aa4c       ??_C@_0M@JMJC@m_vecAngle2?$AA@ 1007ba4c     subs.obj
 0003:0000aa58       ??_C@_0M@GDCL@m_vecAngle1?$AA@ 1007ba58     subs.obj
 0003:0000aa64       ??_C@_0P@JOIG@m_vecPosition2?$AA@ 1007ba64     subs.obj
 0003:0000aa74       ??_C@_0P@GBDP@m_vecPosition1?$AA@ 1007ba74     subs.obj
 0003:0000aa84       ??_C@_0M@NEEB@m_flTLength?$AA@ 1007ba84     subs.obj
 0003:0000aa90       ??_C@_0L@LHLJ@m_flTWidth?$AA@ 1007ba90     subs.obj
 0003:0000aa9c       ??_C@_07LDPK@m_flLip?$AA@  1007ba9c     subs.obj
 0003:0000aaa4       ??_C@_0BB@HEG@m_flMoveDistance?$AA@ 1007baa4     subs.obj
 0003:0000aab8       ??_C@_0BF@FOKM@m_flActivateFinished?$AA@ 1007bab8     subs.obj
 0003:0000aad0       ??_C@_0P@OELI@m_toggle_state?$AA@ 1007bad0     subs.obj
 0003:0000aae0       ??_C@_0BA@NONA@m_iszKillTarget?$AA@ 1007bae0     subs.obj
 0003:0000aaf0       ??_C@_0CN@DGDI@SUB_Remove?5called?5on?5entity?5with@ 1007baf0     subs.obj
 0003:0000ab20       ??_C@_0L@NDKN@CBaseDelay?$AA@ 1007bb20     subs.obj
 0003:0000ab2c       ??_C@_05BFAE@delay?$AA@    1007bb2c     subs.obj
 0003:0000ab34       ??_C@_0BI@DMFK@Found?3?5?$CFs?0?5firing?5?$CI?$CFs?$CJ?6?$AA@ 1007bb34     subs.obj
 0003:0000ab4c       ??_C@_0O@GDFL@Firing?3?5?$CI?$CFs?$CJ?6?$AA@ 1007bb4c     subs.obj
 0003:0000ab5c       ??_C@_0M@FOPL@killing?5?$CFs?6?$AA@ 1007bb5c     subs.obj
 0003:0000ab68       ??_C@_0BA@ODCC@KillTarget?3?5?$CFs?6?$AA@ 1007bb68     subs.obj
 0003:0000ab78       ??_C@_0L@HGKE@DelayedUse?$AA@ 1007bb78     subs.obj
 0003:0000ab84       ??_C@_0M@MPOC@CBaseToggle?$AA@ 1007bb84     subs.obj
 0003:0000ab90       ??_C@_0L@BKEM@menuselect?$AA@ 1007bb90     teamplay_gamerules.obj
 0003:0000ab9c       ??_C@_05LHJL@model?$AA@    1007bb9c     teamplay_gamerules.obj
 0003:0000aba4       ??_C@_0BH@MKAC@?$CK?5assigned?5to?5team?5?$CFs?6?$AA@ 1007bba4     teamplay_gamerules.obj
 0003:0000abbc       ??_C@_0BI@FOKH@?$CK?5you?5are?5on?5team?5?8?$CFs?8?6?$AA@ 1007bbbc     teamplay_gamerules.obj
 0003:0000abd4       ??_C@_04CJJD@team?$AA@     1007bbd4     teamplay_gamerules.obj
 0003:0000abdc       ??_C@_0BP@BOKO@?$CK?5Server?5limits?5teams?5to?5?8?$CFs?8?6?$AA@ 1007bbdc     teamplay_gamerules.obj
 0003:0000abfc       ??_C@_0BN@NCJB@?$CK?5Can?8t?5change?5team?5to?5?8?$CFs?8?6?$AA@ 1007bbfc     teamplay_gamerules.obj
 0003:0000ac1c       ??_C@_0BN@HKOM@?$CC?$CFs?$DM?$CFi?$DO?$CC?5changed?5to?5team?5?$CFs?6?$AA@ 1007bc1c     teamplay_gamerules.obj
 0003:0000ac3c       ??_C@_0BP@BPNO@?$CK?5?$CFs?5has?5changed?5to?5team?5?8?$CFs?8?6?$AA@ 1007bc3c     teamplay_gamerules.obj
 0003:0000ac5c       ??_C@_0CN@GBBL@?$CK?5Not?5allowed?5to?5change?5teams?5in@ 1007bc5c     teamplay_gamerules.obj
 0003:0000ac8c       ??_C@_08GDMJ@teammate?$AA@ 1007bc8c     teamplay_gamerules.obj
 0003:0000ac98       ??_C@_01FAJB@?$DL?$AA@     1007bc98     teamplay_gamerules.obj
 0003:0000ac9c       ??_C@_0M@FNHG@HL?5Teamplay?$AA@ 1007bc9c     teamplay_gamerules.obj
 0003:0000aca8       ?m_SaveData@CFrictionModifier@@2PAUTYPEDESCRIPTION@@A 1007bca8     triggers.obj
 0003:0000acb8       ?m_SaveData@CAutoTrigger@@2PAUTYPEDESCRIPTION@@A 1007bcb8     triggers.obj
 0003:0000acd8       ?m_SaveData@CTriggerRelay@@2PAUTYPEDESCRIPTION@@A 1007bcd8     triggers.obj
 0003:0000ace8       ?m_SaveData@CMultiManager@@2PAUTYPEDESCRIPTION@@A 1007bce8     triggers.obj
 0003:0000ad38       ?m_SaveData@CChangeLevel@@2PAUTYPEDESCRIPTION@@A 1007bd38     triggers.obj
 0003:0000ad78       ?m_SaveData@CTriggerChangeTarget@@2PAUTYPEDESCRIPTION@@A 1007bd78     triggers.obj
 0003:0000ad88       ?m_SaveData@CTriggerCamera@@2PAUTYPEDESCRIPTION@@A 1007bd88     triggers.obj
 0003:0000ae58       ??_C@_0P@EHGE@m_deceleration?$AA@ 1007be58     triggers.obj
 0003:0000ae68       ??_C@_0P@OCAE@m_acceleration?$AA@ 1007be68     triggers.obj
 0003:0000ae78       ??_C@_0P@NEEG@m_initialSpeed?$AA@ 1007be78     triggers.obj
 0003:0000ae88       ??_C@_0O@BJGI@m_targetSpeed?$AA@ 1007be88     triggers.obj
 0003:0000ae98       ??_C@_0P@KKOJ@m_moveDistance?$AA@ 1007be98     triggers.obj
 0003:0000aea8       ??_C@_0N@FDFC@m_flStopTime?$AA@ 1007bea8     triggers.obj
 0003:0000aeb8       ??_C@_0P@MOOO@m_flReturnTime?$AA@ 1007beb8     triggers.obj
 0003:0000aec8       ??_C@_07HHLN@m_sPath?$AA@  1007bec8     triggers.obj
 0003:0000aed0       ??_C@_0L@LJOA@m_pentPath?$AA@ 1007bed0     triggers.obj
 0003:0000aedc       ??_C@_09KHFA@m_hTarget?$AA@ 1007bedc     triggers.obj
 0003:0000aee8       ??_C@_09EIEH@m_hPlayer?$AA@ 1007bee8     triggers.obj
 0003:0000aef4       ??_C@_0P@NCOC@m_iszNewTarget?$AA@ 1007bef4     triggers.obj
 0003:0000af04       ??_C@_0BE@DEKM@m_changeTargetDelay?$AA@ 1007bf04     triggers.obj
 0003:0000af18       ??_C@_0P@NKCI@m_changeTarget?$AA@ 1007bf18     triggers.obj
 0003:0000af28       ??_C@_0BB@MMCP@m_szLandmarkName?$AA@ 1007bf28     triggers.obj
 0003:0000af3c       ??_C@_0M@JJBG@m_szMapName?$AA@ 1007bf3c     triggers.obj
 0003:0000af48       ??_C@_0BA@FEFM@m_flTargetDelay?$AA@ 1007bf48     triggers.obj
 0003:0000af58       ??_C@_0O@DCIE@m_iTargetName?$AA@ 1007bf58     triggers.obj
 0003:0000af68       ??_C@_0M@LFBN@m_startTime?$AA@ 1007bf68     triggers.obj
 0003:0000af74       ??_C@_07PBKI@m_index?$AA@  1007bf74     triggers.obj
 0003:0000af7c       ??_C@_0L@DMEJ@m_cTargets?$AA@ 1007bf7c     triggers.obj
 0003:0000af88       ??_C@_0M@FKBO@triggerType?$AA@ 1007bf88     triggers.obj
 0003:0000af94       ??_C@_0BD@IALG@m_frictionFraction?$AA@ 1007bf94     triggers.obj
 0003:0000afa8       ??_C@_0BC@GHBN@CFrictionModifier?$AA@ 1007bfa8     triggers.obj
 0003:0000afbc       ??_C@_08NHAM@modifier?$AA@ 1007bfbc     triggers.obj
 0003:0000afc8       ??_C@_0N@DCIF@CAutoTrigger?$AA@ 1007bfc8     triggers.obj
 0003:0000afd8       ??_C@_0O@DCLB@CTriggerRelay?$AA@ 1007bfd8     triggers.obj
 0003:0000afe8       ??_C@_0O@JPNM@CMultiManager?$AA@ 1007bfe8     triggers.obj
 0003:0000aff8       ??_C@_0L@LBME@damagetype?$AA@ 1007bff8     triggers.obj
 0003:0000b004       ??_C@_05HGHB@count?$AA@    1007c004     triggers.obj
 0003:0000b00c       ??_C@_0CI@OACM@TriggerCDAudio?5?9?5Track?5?$CFd?5out?5of@ 1007c00c     triggers.obj
 0003:0000b034       ??_C@_0N@JNM@cd?5play?5?$CF3d?6?$AA@ 1007c034     triggers.obj
 0003:0000b044       ??_C@_09HDMI@cd?5pause?6?$AA@ 1007c044     triggers.obj
 0003:0000b050       ??_C@_0O@JFIP@func_pushable?$AA@ 1007c050     triggers.obj
 0003:0000b060       ??_C@_0P@KBBJ@trigger_secret?$AA@ 1007c060     triggers.obj
 0003:0000b070       ??_C@_0BE@JMIP@Sequence?5completed?$CB?$AA@ 1007c070     triggers.obj
 0003:0000b084       ??_C@_0BF@MJOA@Only?51?5more?5to?5go?4?4?4?$AA@ 1007c084     triggers.obj
 0003:0000b09c       ??_C@_0BF@IOAA@Only?52?5more?5to?5go?4?4?4?$AA@ 1007c09c     triggers.obj
 0003:0000b0b4       ??_C@_0BF@EMKA@Only?53?5more?5to?5go?4?4?4?$AA@ 1007c0b4     triggers.obj
 0003:0000b0cc       ??_C@_0BI@EGGJ@There?5are?5more?5to?5go?4?4?4?$AA@ 1007c0cc     triggers.obj
 0003:0000b0e4       ??_C@_0L@JGGD@fireanddie?$AA@ 1007c0e4     triggers.obj
 0003:0000b0f0       ??_C@_0N@JHOJ@CChangeLevel?$AA@ 1007c0f0     triggers.obj
 0003:0000b100       ??_C@_0M@OJOO@changedelay?$AA@ 1007c100     triggers.obj
 0003:0000b10c       ??_C@_0CI@EDJ@Landmark?5name?5?8?$CFs?8?5too?5long?5?$CI32?5@ 1007c10c     triggers.obj
 0003:0000b134       ??_C@_08CCFJ@landmark?$AA@ 1007c134     triggers.obj
 0003:0000b140       ??_C@_0CD@FHEJ@Map?5name?5?8?$CFs?8?5too?5long?5?$CI32?5chars@ 1007c140     triggers.obj
 0003:0000b164       ??_C@_03HKIL@map?$AA@      1007c164     triggers.obj
 0003:0000b168       ??_C@_0DC@HAGG@trigger_changelevel?5to?5?$CFs?5doesn?8@ 1007c168     triggers.obj
 0003:0000b19c       ??_C@_0CJ@MCMH@a?5trigger_changelevel?5doesn?8t?5ha@ 1007c19c     triggers.obj
 0003:0000b1c8       ??_C@_0BI@DHPA@Can?8t?5find?5landmark?5?$CFs?6?$AA@ 1007c1c8     triggers.obj
 0003:0000b1e0       ??_C@_0BF@BBK@CHANGE?5LEVEL?3?5?$CFs?5?$CFs?6?$AA@ 1007c1e0     triggers.obj
 0003:0000b1f8       ??_C@_0DE@FLHB@Player?5isn?8t?5in?5the?5transition?5v@ 1007c1f8     triggers.obj
 0003:0000b22c       ??_C@_0BD@GEBN@trigger_transition?$AA@ 1007c22c     triggers.obj
 0003:0000b240       ??_C@_0CH@EOLB@Too?5many?5entities?5across?5a?5trans@ 1007c240     triggers.obj
 0003:0000b268       ??_C@_0BE@BFAJ@trigger_changelevel?$AA@ 1007c268     triggers.obj
 0003:0000b27c       ??_C@_05IIAE@start?$AA@    1007c27c     triggers.obj
 0003:0000b284       ??_C@_09EMKC@autosave?6?$AA@ 1007c284     triggers.obj
 0003:0000b290       ??_C@_07NDOK@section?$AA@  1007c290     triggers.obj
 0003:0000b298       ??_C@_0BF@CIH@CTriggerChangeTarget?$AA@ 1007c298     triggers.obj
 0003:0000b2b0       ??_C@_0P@EDBB@CTriggerCamera?$AA@ 1007c2b0     triggers.obj
 0003:0000b2c0       ??_C@_0N@KEH@deceleration?$AA@ 1007c2c0     triggers.obj
 0003:0000b2d0       ??_C@_0N@KPCH@acceleration?$AA@ 1007c2d0     triggers.obj
 0003:0000b2e0       ??_C@_06MOLC@moveto?$AA@   1007c2e0     triggers.obj
 0003:0000b2e8       ?m_SaveData@CTripmineGrenade@@0PAUTYPEDESCRIPTION@@A 1007c2e8     tripmine.obj
 0003:0000b378       ??_C@_0N@NMBD@m_pRealOwner?$AA@ 1007c378     tripmine.obj
 0003:0000b388       ??_C@_0N@JBIB@m_angleOwner?$AA@ 1007c388     tripmine.obj
 0003:0000b398       ??_C@_0L@OJDC@m_posOwner?$AA@ 1007c398     tripmine.obj
 0003:0000b3a4       ??_C@_0P@OEHD@m_flBeamLength?$AA@ 1007c3a4     tripmine.obj
 0003:0000b3b4       ??_C@_08OOJG@m_vecEnd?$AA@ 1007c3b4     tripmine.obj
 0003:0000b3c0       ??_C@_08ILNH@m_vecDir?$AA@ 1007c3c0     tripmine.obj
 0003:0000b3cc       ??_C@_0M@GGJM@m_flPowerUp?$AA@ 1007c3cc     tripmine.obj
 0003:0000b3d8       ??_C@_0BB@OJBG@CTripmineGrenade?$AA@ 1007c3d8     tripmine.obj
 0003:0000b3ec       ??_C@_0BI@GENG@weapons?1mine_charge?4wav?$AA@ 1007c3ec     tripmine.obj
 0003:0000b404       ??_C@_0BI@IMBG@weapons?1mine_deploy?4wav?$AA@ 1007c404     tripmine.obj
 0003:0000b41c       ??_C@_0BG@HOJK@models?1v_tripmine?4mdl?$AA@ 1007c41c     tripmine.obj
 0003:0000b434       ??_C@_0BK@BNEA@weapons?1mine_activate?4wav?$AA@ 1007c434     tripmine.obj
 0003:0000b450       ??_C@_0CO@CGFN@WARNING?3Tripmine?5at?5?$CF?40f?0?5?$CF?40f?0?5@ 1007c450     tripmine.obj
 0003:0000b480       ??_C@_0BB@LJEC@monster_tripmine?$AA@ 1007c480     tripmine.obj
 0003:0000b494       ??_C@_0BG@LPHN@models?1p_tripmine?4mdl?$AA@ 1007c494     tripmine.obj
 0003:0000b4ac       ??_C@_09INEP@Trip?5Mine?$AA@ 1007c4ac     tripmine.obj
 0003:0000b4b8       ?gEntvarsDescription@@3PAUTYPEDESCRIPTION@@A 1007c4b8     util.obj
 0003:0000ba60       ??_C@_0BB@EEEM@radsuit_finished?$AA@ 1007ca60     util.obj
 0003:0000ba74       ??_C@_0O@PFJE@pain_finished?$AA@ 1007ca74     util.obj
 0003:0000ba84       ??_C@_0N@CILC@air_finished?$AA@ 1007ca84     util.obj
 0003:0000ba94       ??_C@_05PHJK@speed?$AA@    1007ca94     util.obj
 0003:0000ba9c       ??_C@_06LGBH@noise3?$AA@   1007ca9c     util.obj
 0003:0000baa4       ??_C@_06BMIA@noise2?$AA@   1007caa4     util.obj
 0003:0000baac       ??_C@_06ODDJ@noise1?$AA@   1007caac     util.obj
 0003:0000bab4       ??_C@_05DOHE@noise?$AA@    1007cab4     util.obj
 0003:0000babc       ??_C@_07FIJI@dmgtime?$AA@  1007cabc     util.obj
 0003:0000bac4       ??_C@_03KLED@dmg?$AA@      1007cac4     util.obj
 0003:0000bac8       ??_C@_08CDPA@dmg_save?$AA@ 1007cac8     util.obj
 0003:0000bad4       ??_C@_08EKLD@dmg_take?$AA@ 1007cad4     util.obj
 0003:0000bae0       ??_C@_07NPGL@message?$AA@  1007cae0     util.obj
 0003:0000bae8       ??_C@_07JLIF@netname?$AA@  1007cae8     util.obj
 0003:0000baf0       ??_C@_09HKJM@watertype?$AA@ 1007caf0     util.obj
 0003:0000bafc       ??_C@_0L@FCEP@waterlevel?$AA@ 1007cafc     util.obj
 0003:0000bb08       ??_C@_0L@BJIA@armorvalue?$AA@ 1007cb08     util.obj
 0003:0000bb14       ??_C@_09LMBH@armortype?$AA@ 1007cb14     util.obj
 0003:0000bb20       ??_C@_0O@PHMK@teleport_time?$AA@ 1007cb20     util.obj
 0003:0000bb30       ??_C@_0L@JHPC@max_health?$AA@ 1007cb30     util.obj
 0003:0000bb3c       ??_C@_08MMPG@colormap?$AA@ 1007cb3c     util.obj
 0003:0000bb48       ??_C@_05KGBM@flags?$AA@    1007cb48     util.obj
 0003:0000bb50       ??_C@_0L@CANC@spawnflags?$AA@ 1007cb50     util.obj
 0003:0000bb5c       ??_C@_0N@JBFP@groundentity?$AA@ 1007cb5c     util.obj
 0003:0000bb6c       ??_C@_05LOEC@owner?$AA@    1007cb6c     util.obj
 0003:0000bb74       ??_C@_06BFHC@aiment?$AA@   1007cb74     util.obj
 0003:0000bb7c       ??_C@_05NNBK@enemy?$AA@    1007cb7c     util.obj
 0003:0000bb84       ??_C@_0O@ILBD@dmg_inflictor?$AA@ 1007cb84     util.obj
 0003:0000bb94       ??_C@_05CMEM@chain?$AA@    1007cb94     util.obj
 0003:0000bb9c       ??_C@_07ENEF@impulse?$AA@  1007cb9c     util.obj
 0003:0000bba4       ??_C@_06LPKL@button?$AA@   1007cba4     util.obj
 0003:0000bbac       ??_C@_08PACB@view_ofs?$AA@ 1007cbac     util.obj
 0003:0000bbb8       ??_C@_08PMDH@deadflag?$AA@ 1007cbb8     util.obj
 0003:0000bbc4       ??_C@_0L@JJOE@takedamage?$AA@ 1007cbc4     util.obj
 0003:0000bbd0       ??_C@_07LLGA@weapons?$AA@  1007cbd0     util.obj
 0003:0000bbd8       ??_C@_05GEB@frags?$AA@     1007cbd8     util.obj
 0003:0000bbe0       ??_C@_06HECL@health?$AA@   1007cbe0     util.obj
 0003:0000bbe8       ??_C@_08HAHO@renderfx?$AA@ 1007cbe8     util.obj
 0003:0000bbf4       ??_C@_0M@GPPJ@rendercolor?$AA@ 1007cbf4     util.obj
 0003:0000bc00       ??_C@_09FILE@renderamt?$AA@ 1007cc00     util.obj
 0003:0000bc0c       ??_C@_0L@MGOP@rendermode?$AA@ 1007cc0c     util.obj
 0003:0000bc18       ??_C@_08IFOB@blending?$AA@ 1007cc18     util.obj
 0003:0000bc24       ??_C@_0L@GCHJ@controller?$AA@ 1007cc24     util.obj
 0003:0000bc30       ??_C@_09EAGC@framerate?$AA@ 1007cc30     util.obj
 0003:0000bc3c       ??_C@_08CAKH@animtime?$AA@ 1007cc3c     util.obj
 0003:0000bc48       ??_C@_08MNMF@sequence?$AA@ 1007cc48     util.obj
 0003:0000bc54       ??_C@_05IMHO@scale?$AA@    1007cc54     util.obj
 0003:0000bc5c       ??_C@_05MIEC@frame?$AA@    1007cc5c     util.obj
 0003:0000bc64       ??_C@_0M@IPMA@light_level?$AA@ 1007cc64     util.obj
 0003:0000bc70       ??_C@_08LIGO@friction?$AA@ 1007cc70     util.obj
 0003:0000bc7c       ??_C@_07CAPN@gravity?$AA@  1007cc7c     util.obj
 0003:0000bc84       ??_C@_07BOHH@effects?$AA@  1007cc84     util.obj
 0003:0000bc8c       ??_C@_04NIOK@body?$AA@     1007cc8c     util.obj
 0003:0000bc94       ??_C@_08MDCC@movetype?$AA@ 1007cc94     util.obj
 0003:0000bca0       ??_C@_05FPMI@solid?$AA@    1007cca0     util.obj
 0003:0000bca8       ??_C@_09KHHA@nextthink?$AA@ 1007cca8     util.obj
 0003:0000bcb4       ??_C@_05MGHL@ltime?$AA@    1007ccb4     util.obj
 0003:0000bcbc       ??_C@_04PAMH@maxs?$AA@     1007ccbc     util.obj
 0003:0000bcc4       ??_C@_04HNCE@mins?$AA@     1007ccc4     util.obj
 0003:0000bccc       ??_C@_06OODK@absmax?$AA@   1007cccc     util.obj
 0003:0000bcd4       ??_C@_06NGM@absmin?$AA@    1007ccd4     util.obj
 0003:0000bcdc       ??_C@_0M@JDFN@weaponmodel?$AA@ 1007ccdc     util.obj
 0003:0000bce8       ??_C@_09EPPK@viewmodel?$AA@ 1007cce8     util.obj
 0003:0000bcf4       ??_C@_0L@LLJL@modelindex?$AA@ 1007ccf4     util.obj
 0003:0000bd00       ??_C@_09LOEC@yaw_speed?$AA@ 1007cd00     util.obj
 0003:0000bd0c       ??_C@_09JEON@ideal_yaw?$AA@ 1007cd0c     util.obj
 0003:0000bd18       ??_C@_0M@NG@pitch_speed?$AA@ 1007cd18     util.obj
 0003:0000bd24       ??_C@_0L@IEHC@idealpitch?$AA@ 1007cd24     util.obj
 0003:0000bd30       ??_C@_08OG@fixangle?$AA@   1007cd30     util.obj
 0003:0000bd3c       ??_C@_07LGAN@v_angle?$AA@  1007cd3c     util.obj
 0003:0000bd44       ??_C@_0L@PCAN@punchangle?$AA@ 1007cd44     util.obj
 0003:0000bd50       ??_C@_09PGOE@avelocity?$AA@ 1007cd50     util.obj
 0003:0000bd5c       ??_C@_06MFB@angles?$AA@    1007cd5c     util.obj
 0003:0000bd64       ??_C@_07NHCF@movedir?$AA@  1007cd64     util.obj
 0003:0000bd6c       ??_C@_0N@JPNN@basevelocity?$AA@ 1007cd6c     util.obj
 0003:0000bd7c       ??_C@_08OPKC@velocity?$AA@ 1007cd7c     util.obj
 0003:0000bd88       ??_C@_09PKPB@oldorigin?$AA@ 1007cd88     util.obj
 0003:0000bd94       ??_C@_06NOHF@origin?$AA@   1007cd94     util.obj
 0003:0000bd9c       ??_C@_0CC@HONL@Master?5was?5null?5or?5not?5a?5master?$CB@ 1007cd9c     util.obj
 0003:0000bdc0       ??_C@_0BA@FEK@violence_ablood?$AA@ 1007cdc0     util.obj
 0003:0000bdd0       ??_C@_0BA@DNOL@violence_hblood?$AA@ 1007cdd0     util.obj
 0003:0000bde0       ??_C@_0CA@LCCD@NULL?5Ent?5in?5UTIL_PrecacheOther?6?$AA@ 1007cde0     util.obj
 0003:0000be00       ??_C@_0DG@JDBL@CSaveRestoreBuffer?5?3?3?5TokenHash?$CI@ 1007ce00     util.obj
 0003:0000be38       ??_C@_0CE@ECNH@Invalid?5function?5pointer?5in?5enti@ 1007ce38     util.obj
 0003:0000be5c       ??_C@_0BH@DPBM@Bad?5field?5in?5entity?$CB?$CB?6?$AA@ 1007ce5c     util.obj
 0003:0000be74       ??_C@_0BA@JAEO@Bad?5field?5type?6?$AA@ 1007ce74     util.obj
 0003:0000be84       ??_C@_0DB@CMHE@Can?8t?5save?5more?5than?5?$CFd?5entities@ 1007ce84     util.obj
 0003:0000beb8       ??_C@_0DI@FDNF@CSave?5?3?3?5BufferHeader?$CI?$CJ?5size?5par@ 1007ceb8     util.obj
 0003:0000bef0       ??_C@_0BH@HNMI@Save?1Restore?5overflow?$CB?$AA@ 1007cef0     util.obj
 0003:0000bf08       ??_C@_0BC@JJGF@Restore?5overflow?$CB?$AA@ 1007cf08     util.obj
 0003:0000bf20       ?g_pModelNameLaser@@3PBDB  1007cf20     weapons.obj
 0003:0000bf28       ?m_SaveData@CBasePlayerItem@@2PAUTYPEDESCRIPTION@@A 1007cf28     weapons.obj
 0003:0000bf58       ?m_SaveData@CBasePlayerWeapon@@2PAUTYPEDESCRIPTION@@A 1007cf58     weapons.obj
 0003:0000bfc8       ?m_SaveData@CWeaponBox@@2PAUTYPEDESCRIPTION@@A 1007cfc8     weapons.obj
 0003:0000c008       ??_C@_0N@CBH@m_cAmmoTypes?$AA@ 1007d008     weapons.obj
 0003:0000c018       ??_C@_0M@KBMA@m_rgiszAmmo?$AA@ 1007d018     weapons.obj
 0003:0000c024       ??_C@_0P@MHCP@m_iDefaultAmmo?$AA@ 1007d024     weapons.obj
 0003:0000c034       ??_C@_07OKJD@m_iClip?$AA@  1007d034     weapons.obj
 0003:0000c03c       ??_C@_0BF@FEDC@m_iSecondaryAmmoType?$AA@ 1007d03c     weapons.obj
 0003:0000c054       ??_C@_0BD@ONPI@m_iPrimaryAmmoType?$AA@ 1007d054     weapons.obj
 0003:0000c068       ??_C@_0BI@LOCF@m_flNextSecondaryAttack?$AA@ 1007d068     weapons.obj
 0003:0000c080       ??_C@_0BG@ENP@m_flNextPrimaryAttack?$AA@ 1007d080     weapons.obj
 0003:0000c098       ??_C@_05KMBF@m_iId?$AA@    1007d098     weapons.obj
 0003:0000c0a0       ??_C@_07MHLP@m_pNext?$AA@  1007d0a0     weapons.obj
 0003:0000c0a8       ??_C@_09NFLA@m_pPlayer?$AA@ 1007d0a8     weapons.obj
 0003:0000c0b4       ??_C@_0CI@NEIH@MaxAmmoCarry?$CI?$CJ?5doesn?8t?5recognize@ 1007d0b4     weapons.obj
 0003:0000c0dc       ??_C@_0CG@DDME@NULL?5Ent?5in?5UTIL_PrecacheOtherWe@ 1007d0dc     weapons.obj
 0003:0000c104       ??_C@_0BG@MANB@items?1weapondrop1?4wav?$AA@ 1007d104     weapons.obj
 0003:0000c11c       ??_C@_0BF@KPF@sprites?1explode1?4spr?$AA@ 1007d11c     weapons.obj
 0003:0000c134       ??_C@_0BC@KCPC@sprites?1blood?4spr?$AA@ 1007d134     weapons.obj
 0003:0000c148       ??_C@_0BH@PJF@sprites?1bloodspray?4spr?$AA@ 1007d148     weapons.obj
 0003:0000c160       ??_C@_0BD@HPGE@sprites?1steam1?4spr?$AA@ 1007d160     weapons.obj
 0003:0000c174       ??_C@_0BD@MLBD@sprites?1WXplo1?4spr?$AA@ 1007d174     weapons.obj
 0003:0000c188       ??_C@_0BI@KGNL@sprites?1zerogxplode?4spr?$AA@ 1007d188     weapons.obj
 0003:0000c1a0       ??_C@_09CNCM@ammo_m4a1?$AA@ 1007d1a0     weapons.obj
 0003:0000c1ac       ??_C@_0M@DJOF@weapon_m4a1?$AA@ 1007d1ac     weapons.obj
 0003:0000c1b8       ??_C@_0O@ODAO@item_longjump?$AA@ 1007d1b8     weapons.obj
 0003:0000c1c8       ??_C@_0BA@PKCE@CBasePlayerItem?$AA@ 1007d1c8     weapons.obj
 0003:0000c1d8       ??_C@_0BC@BICG@CBasePlayerWeapon?$AA@ 1007d1d8     weapons.obj
 0003:0000c1ec       ??_C@_0BO@LDNI@Respawn?5failed?5to?5create?5?$CFs?$CB?6?$AA@ 1007d1ec     weapons.obj
 0003:0000c20c       ??_C@_0L@MHAM@CWeaponBox?$AA@ 1007d20c     weapons.obj
 0003:0000c218       ??_C@_0CP@LAJG@WeaponBox?5too?5full?$CB?5only?5?$CFd?5ammo@ 1007d218     weapons.obj
 0003:0000c248       ??_C@_0BK@LEBC@NULL?5String?5in?5PackAmmo?$CB?6?$AA@ 1007d248     weapons.obj
 0003:0000c264       ??_C@_0BJ@IJKC@out?5of?5named?5ammo?5slots?6?$AA@ 1007d264     weapons.obj
 0003:0000c280       ?gDecals@@3PAUDLL_DECALLIST@@A 1007d280     world.obj
 0003:0000c3e0       ?m_SaveData@CGlobalState@@2PAUTYPEDESCRIPTION@@A 1007d3e0     world.obj
 0003:0000c3f0       ?gGlobalEntitySaveData@@3PAUTYPEDESCRIPTION@@A 1007d3f0     world.obj
 0003:0000c420       ??_C@_05PMBM@state?$AA@    1007d420     world.obj
 0003:0000c428       ??_C@_09JMD@levelName?$AA@ 1007d428     world.obj
 0003:0000c434       ??_C@_0M@LDAD@m_listCount?$AA@ 1007d434     world.obj
 0003:0000c440       ??_C@_04CINP@Dead?$AA@     1007d440     world.obj
 0003:0000c448       ??_C@_02CCEO@On?$AA@       1007d448     world.obj
 0003:0000c44c       ??_C@_03KLCE@Off?$AA@      1007d44c     world.obj
 0003:0000c450       ??_C@_0L@IFAI@?$HLmommablob?$AA@ 1007d450     world.obj
 0003:0000c45c       ??_C@_0L@HJBP@?$HLsmscorch3?$AA@ 1007d45c     world.obj
 0003:0000c468       ??_C@_0L@NDII@?$HLsmscorch2?$AA@ 1007d468     world.obj
 0003:0000c474       ??_C@_0L@CMDB@?$HLsmscorch1?$AA@ 1007d474     world.obj
 0003:0000c480       ??_C@_0L@NPPG@?$HLgargstomp?$AA@ 1007d480     world.obj
 0003:0000c48c       ??_C@_08GIMN@?$HLbproof1?$AA@ 1007d48c     world.obj
 0003:0000c498       ??_C@_06DFFK@?$HLspit2?$AA@ 1007d498     world.obj
 0003:0000c4a0       ??_C@_06MKOD@?$HLspit1?$AA@ 1007d4a0     world.obj
 0003:0000c4a8       ??_C@_09EKCB@?$HLbigshot5?$AA@ 1007d4a8     world.obj
 0003:0000c4b4       ??_C@_09OALG@?$HLbigshot4?$AA@ 1007d4b4     world.obj
 0003:0000c4c0       ??_C@_09LFFD@?$HLbigshot3?$AA@ 1007d4c0     world.obj
 0003:0000c4cc       ??_C@_09BPME@?$HLbigshot2?$AA@ 1007d4cc     world.obj
 0003:0000c4d8       ??_C@_09OAHN@?$HLbigshot1?$AA@ 1007d4d8     world.obj
 0003:0000c4e4       ??_C@_07PPI@?$HLbreak3?$AA@ 1007d4e4     world.obj
 0003:0000c4ec       ??_C@_07KFGP@?$HLbreak2?$AA@ 1007d4ec     world.obj
 0003:0000c4f4       ??_C@_07FKNG@?$HLbreak1?$AA@ 1007d4f4     world.obj
 0003:0000c4fc       ??_C@_08EMNG@?$HLyblood6?$AA@ 1007d4fc     world.obj
 0003:0000c508       ??_C@_08LDGP@?$HLyblood5?$AA@ 1007d508     world.obj
 0003:0000c514       ??_C@_08BJPI@?$HLyblood4?$AA@ 1007d514     world.obj
 0003:0000c520       ??_C@_08EMBN@?$HLyblood3?$AA@ 1007d520     world.obj
 0003:0000c52c       ??_C@_08OGIK@?$HLyblood2?$AA@ 1007d52c     world.obj
 0003:0000c538       ??_C@_08BJDD@?$HLyblood1?$AA@ 1007d538     world.obj
 0003:0000c544       ??_C@_07EGE@?$HLblood6?$AA@ 1007d544     world.obj
 0003:0000c54c       ??_C@_07PLNN@?$HLblood5?$AA@ 1007d54c     world.obj
 0003:0000c554       ??_C@_07FBEK@?$HLblood4?$AA@ 1007d554     world.obj
 0003:0000c55c       ??_C@_07EKP@?$HLblood3?$AA@ 1007d55c     world.obj
 0003:0000c564       ??_C@_07KODI@?$HLblood2?$AA@ 1007d564     world.obj
 0003:0000c56c       ??_C@_07FBIB@?$HLblood1?$AA@ 1007d56c     world.obj
 0003:0000c574       ??_C@_08ECHJ@?$HLscorch2?$AA@ 1007d574     world.obj
 0003:0000c580       ??_C@_08LNMA@?$HLscorch1?$AA@ 1007d580     world.obj
 0003:0000c58c       ??_C@_09CHIC@?$HLlambda06?$AA@ 1007d58c     world.obj
 0003:0000c598       ??_C@_09NIDL@?$HLlambda05?$AA@ 1007d598     world.obj
 0003:0000c5a4       ??_C@_09HCKM@?$HLlambda04?$AA@ 1007d5a4     world.obj
 0003:0000c5b0       ??_C@_09CHEJ@?$HLlambda03?$AA@ 1007d5b0     world.obj
 0003:0000c5bc       ??_C@_09INNO@?$HLlambda02?$AA@ 1007d5bc     world.obj
 0003:0000c5c8       ??_C@_09HCGH@?$HLlambda01?$AA@ 1007d5c8     world.obj
 0003:0000c5d4       ??_C@_06PDHJ@?$HLshot5?$AA@ 1007d5d4     world.obj
 0003:0000c5dc       ??_C@_06FJOO@?$HLshot4?$AA@ 1007d5dc     world.obj
 0003:0000c5e4       ??_C@_06MAL@?$HLshot3?$AA@ 1007d5e4     world.obj
 0003:0000c5ec       ??_C@_06KGJM@?$HLshot2?$AA@ 1007d5ec     world.obj
 0003:0000c5f4       ??_C@_06FJCF@?$HLshot1?$AA@ 1007d5f4     world.obj
 0003:0000c5fc       ??_C@_0BF@OCBD@Can?8t?5find?5decal?5?$CFs?6?$AA@ 1007d5fc     world.obj
 0003:0000c614       ??_C@_0N@GCDN@?$CFs?3?5?$CFs?5?$CI?$CFs?$CJ?6?$AA@ 1007d614     world.obj
 0003:0000c624       ??_C@_0P@JPBG@?9?9?5Globals?5?9?9?6?$AA@ 1007d624     world.obj
 0003:0000c634       ??_C@_04PPDP@GENT?$AA@     1007d634     world.obj
 0003:0000c63c       ??_C@_06EKIF@GLOBAL?$AA@   1007d63c     world.obj
 0003:0000c644       ??_C@_09CPMK@sv_cheats?$AA@ 1007d644     world.obj
 0003:0000c650       ??_C@_06LNC@v_dark?$AA@    1007d650     world.obj
 0003:0000c658       ??_C@_0M@HJFK@env_message?$AA@ 1007d658     world.obj
 0003:0000c664       ??_C@_0BD@OKJE@Chapter?5title?3?5?$CFs?6?$AA@ 1007d664     world.obj
 0003:0000c678       ??_C@_07JJMH@sv_zmax?$AA@  1007d678     world.obj
 0003:0000c680       ??_C@_0BB@JGHF@?6?$CKGraph?5Loaded?$CB?6?$AA@ 1007d680     world.obj
 0003:0000c694       ??_C@_0BK@CHGC@?$CKError?5opening?5?4NOD?5file?6?$AA@ 1007d694     world.obj
 0003:0000c6b0       ??_C@_0O@NNIA@mmnnmmnnnmmnn?$AA@ 1007d6b0     world.obj
 0003:0000c6c0       ??_C@_0CF@KCME@abcdefghijklmnopqrrqponmlkjihgfe@ 1007d6c0     world.obj
 0003:0000c6e8       ??_C@_0BK@CINK@mmamammmmammamamaaamammma?$AA@ 1007d6e8     world.obj
 0003:0000c704       ??_C@_0BB@INDJ@aaaaaaaazzzzzzzz?$AA@ 1007d704     world.obj
 0003:0000c718       ??_C@_0CL@INLP@mmmaaammmaaammmabcdefaaaammmmabc@ 1007d718     world.obj
 0003:0000c744       ??_C@_0BN@NNNF@mmmaaaabcdefgmmmmaaaammmaamm?$AA@ 1007d744     world.obj
 0003:0000c764       ??_C@_0BC@LBBO@nmonqnmomnmomomno?$AA@ 1007d764     world.obj
 0003:0000c778       ??_C@_0CC@LHDJ@jklmnopqrstuvwxyzyxwvutsrqponmlk@ 1007d778     world.obj
 0003:0000c79c       ??_C@_0N@PODM@mamamamamama?$AA@ 1007d79c     world.obj
 0003:0000c7ac       ??_C@_0CD@IDOE@mmmmmaaaaammmmmaaaaaabcdefgabcde@ 1007d7ac     world.obj
 0003:0000c7d0       ??_C@_0DE@EDOG@abcdefghijklmnopqrstuvwxyzyxwvut@ 1007d7d0     world.obj
 0003:0000c804       ??_C@_0BI@LDFL@mmnmmommommnonmmonqnmmo?$AA@ 1007d804     world.obj
 0003:0000c81c       ??_C@_0M@GKMC@sv_language?$AA@ 1007d81c     world.obj
 0003:0000c828       ??_C@_0BF@GJND@common?1bodydrop4?4wav?$AA@ 1007d828     world.obj
 0003:0000c840       ??_C@_0BF@JCJ@common?1bodydrop3?4wav?$AA@ 1007d840     world.obj
 0003:0000c858       ??_C@_0BP@KPNN@?$CK?$CKCOULD?5NOT?5CREATE?5SOUNDENT?$CK?$CK?6?$AA@ 1007d858     world.obj
 0003:0000c878       ??_C@_09CGBP@room_type?$AA@ 1007d878     world.obj
 0003:0000c884       ??_C@_0M@IBOF@sv_stepsize?$AA@ 1007d884     world.obj
 0003:0000c890       ??_C@_02GHJ@18?$AA@        1007d890     world.obj
 0003:0000c894       ??_C@_03LHGB@800?$AA@      1007d894     world.obj
 0003:0000c898       ??_C@_07IAGC@bodyque?$AA@  1007d898     world.obj
 0003:0000c8a0       ??_C@_0M@HLKE@defaultteam?$AA@ 1007d8a0     world.obj
 0003:0000c8ac       ??_C@_08ILBB@mapteams?$AA@ 1007d8ac     world.obj
 0003:0000c8b8       ??_C@_09ONKG@gametitle?$AA@ 1007d8b8     world.obj
 0003:0000c8c4       ??_C@_0L@DKEA@sv_newunit?$AA@ 1007d8c4     world.obj
 0003:0000c8d0       ??_C@_07BMDE@newunit?$AA@  1007d8d0     world.obj
 0003:0000c8d8       ??_C@_09PEIE@startdark?$AA@ 1007d8d8     world.obj
 0003:0000c8e4       ??_C@_0N@PKMM@chaptertitle?$AA@ 1007d8e4     world.obj
 0003:0000c8f4       ??_C@_08JCCI@MaxRange?$AA@ 1007d8f4     world.obj
 0003:0000c900       ??_C@_0M@CGCB@sv_wateramp?$AA@ 1007d900     world.obj
 0003:0000c90c       ??_C@_0L@EFJO@sv_skyname?$AA@ 1007d90c     world.obj
 0003:0000c918       ??_C@_07GDOK@skyname?$AA@  1007d918     world.obj
 0003:0000c920       ?m_SaveData@CActAnimating@@2PAUTYPEDESCRIPTION@@A 1007d920     xen.obj
 0003:0000c930       ?m_SaveData@CXenPLight@@2PAUTYPEDESCRIPTION@@A 1007d930     xen.obj
 0003:0000c940       ?m_SaveData@CXenTree@@2PAUTYPEDESCRIPTION@@A 1007d940     xen.obj
 0003:0000c950       ?pAttackHitSounds@CXenTree@@2PAPBDA 1007d950     xen.obj
 0003:0000c95c       ?pAttackMissSounds@CXenTree@@2PAPBDA 1007d95c     xen.obj
 0003:0000c964       ?pModelNames@CXenSpore@@2PAPBDA 1007d964     xen.obj
 0003:0000c970       ??_C@_0BJ@HMDO@models?1fungus?$CIlarge?$CJ?4mdl?$AA@ 1007d970     xen.obj
 0003:0000c98c       ??_C@_0BC@CNEC@models?1fungus?4mdl?$AA@ 1007d98c     xen.obj
 0003:0000c9a0       ??_C@_0BJ@CPAO@models?1fungus?$CIsmall?$CJ?4mdl?$AA@ 1007d9a0     xen.obj
 0003:0000c9bc       ??_C@_0BG@CPHF@zombie?1claw_miss2?4wav?$AA@ 1007d9bc     xen.obj
 0003:0000c9d4       ??_C@_0BG@MPBK@zombie?1claw_miss1?4wav?$AA@ 1007d9d4     xen.obj
 0003:0000c9ec       ??_C@_0BI@NMAI@zombie?1claw_strike3?4wav?$AA@ 1007d9ec     xen.obj
 0003:0000ca04       ??_C@_0BI@HMCN@zombie?1claw_strike2?4wav?$AA@ 1007da04     xen.obj
 0003:0000ca1c       ??_C@_0BI@JMEC@zombie?1claw_strike1?4wav?$AA@ 1007da1c     xen.obj
 0003:0000ca34       ??_C@_0L@BDJI@m_pTrigger?$AA@ 1007da34     xen.obj
 0003:0000ca40       ??_C@_07POJL@m_pGlow?$AA@  1007da40     xen.obj
 0003:0000ca48       ??_C@_0L@IIPI@m_Activity?$AA@ 1007da48     xen.obj
 0003:0000ca54       ??_C@_0O@LE@CActAnimating?$AA@ 1007da54     xen.obj
 0003:0000ca64       ??_C@_0L@EKKH@CXenPLight?$AA@ 1007da64     xen.obj
 0003:0000ca70       ??_C@_0BD@FCFN@sprites?1flare3?4spr?$AA@ 1007da70     xen.obj
 0003:0000ca84       ??_C@_0BB@FDGL@models?1light?4mdl?$AA@ 1007da84     xen.obj
 0003:0000ca98       ??_C@_0BA@INNO@models?1hair?4mdl?$AA@ 1007da98     xen.obj
 0003:0000caa8       ??_C@_0N@LFGG@xen_ttrigger?$AA@ 1007daa8     xen.obj
 0003:0000cab8       ??_C@_08CKKH@CXenTree?$AA@ 1007dab8     xen.obj
 0003:0000cac4       ??_C@_0BA@GNDD@models?1tree?4mdl?$AA@ 1007dac4     xen.obj
 0003:0000cad4       ??_C@_0BB@FFG@monster_bigmomma?$AA@ 1007dad4     xen.obj
 0003:0000cae8       ??_C@_08PJCL@xen_hull?$AA@ 1007dae8     xen.obj
 0003:0000caf4       __fltused                  1007daf4     LIBCMT:fpinit.obj
 0003:0000caf8       __ldused                   1007daf8     LIBCMT:fpinit.obj
 0003:0000cafc       __FPinit                   1007dafc     LIBCMT:fpinit.obj
 0003:0000cb00       __FPmtinit                 1007db00     LIBCMT:fpinit.obj
 0003:0000cb04       __FPmtterm                 1007db04     LIBCMT:fpinit.obj
 0003:0000cb08       __NLG_Destination          1007db08     LIBCMT:exsup.obj
 0003:0000cb20       __OP_FMODjmptab            1007db20     LIBCMT:87fmod.obj
 0003:0000cb70       __half                     1007db70     LIBCMT:pow.obj
 0003:0000cb80       __aexit_rtn                1007db80     LIBCMT:dllcrt0.obj
 0003:0000cb84       __cfltcvt_tab              1007db84     LIBCMT:cmiscdat.obj
 0003:0000cba0       __pctype                   1007dba0     LIBCMT:ctype.obj
 0003:0000cba4       __pwctype                  1007dba4     LIBCMT:ctype.obj
 0003:0000cba8       __ctype                    1007dba8     LIBCMT:ctype.obj
 0003:0000cdac       ___mb_cur_max              1007ddac     LIBCMT:nlsdata1.obj
 0003:0000cdb0       ___decimal_point           1007ddb0     LIBCMT:nlsdata1.obj
 0003:0000cdb4       ___decimal_point_length    1007ddb4     LIBCMT:nlsdata1.obj
 0003:0000cdd0       ___tlsindex                1007ddd0     LIBCMT:tidtable.obj
 0003:0000cdd4       ?__pInconsistency@@3P6AXXZA 1007ddd4     LIBCMT:hooks.obj
 0003:0000cdd8       ___nullstring              1007ddd8     LIBCMT:output.obj
 0003:0000cddc       ___wnullstring             1007dddc     LIBCMT:output.obj
 0003:0000cde0       __indefinite               1007dde0     LIBCMT:87disp.obj
 0003:0000cdea       __piby2                    1007ddea     LIBCMT:87disp.obj
 0003:0000cf80       __infinity                 1007df80     LIBCMT:87tran.obj
 0003:0000cf8a       __minfinity                1007df8a     LIBCMT:87tran.obj
 0003:0000cf94       __logemax                  1007df94     LIBCMT:87tran.obj
 0003:0000cfba       __OP_EXPjmptab             1007dfba     LIBCMT:87tran.obj
 0003:0000cfe0       __locktable                1007dfe0     LIBCMT:mlock.obj
 0003:0000d1b0       ___lc_category             1007e1b0     LIBCMT:setlocal.obj
 0003:0000d200       __amblksiz                 1007e200     LIBCMT:heapinit.obj
 0003:0000d204       ___sbh_threshold           1007e204     LIBCMT:sbheap.obj
 0003:0000d208       ___badioinfo               1007e208     LIBCMT:ioinit.obj
 0003:0000d2f0       __XcptActTab               1007e2f0     LIBCMT:winxfltr.obj
 0003:0000d368       __First_FPE_Indx           1007e368     LIBCMT:winxfltr.obj
 0003:0000d36c       __Num_FPE                  1007e36c     LIBCMT:winxfltr.obj
 0003:0000d370       __XcptActTabSize           1007e370     LIBCMT:winxfltr.obj
 0003:0000d374       __XcptActTabCount          1007e374     LIBCMT:winxfltr.obj
 0003:0000d378       __iob                      1007e378     LIBCMT:_file.obj
 0003:0000d600       __d_inf                    1007e600     LIBCMT:util.obj
 0003:0000d608       __d_ind                    1007e608     LIBCMT:util.obj
 0003:0000d610       __d_max                    1007e610     LIBCMT:util.obj
 0003:0000d618       __d_min                    1007e618     LIBCMT:util.obj
 0003:0000d620       __d_mzero                  1007e620     LIBCMT:util.obj
 0003:0000d630       ___rgLocInfo               1007e630     LIBCMT:getqloc.obj
 0003:0000dad4       ___rglangidNotDefault      1007ead4     LIBCMT:getqloc.obj
 0003:0000dae8       ___rg_country              1007eae8     LIBCMT:getqloc.obj
 0003:0000dba0       ___rg_language             1007eba0     LIBCMT:getqloc.obj
 0003:0000e0e0       __matherr_flag             1007f0e0     LIBCMT:matherr.obj
 0003:0000e0fc       ___lc_time_curr            1007f0fc     LIBCMT:strftime.obj
 0003:0000e100       ___lc_time_c               1007f100     LIBCMT:strftime.obj
 0003:0000e1b0       ___lconv_static_decimal    1007f1b0     LIBCMT:lconv.obj
 0003:0000e1b8       ___lconv_c                 1007f1b8     LIBCMT:lconv.obj
 0003:0000e1e8       ___lconv                   1007f1e8     LIBCMT:lconv.obj
 0003:0000e1f0       __pow10pos                 1007f1f0     LIBCMT:constpow.obj
 0003:0000e350       __pow10neg                 1007f350     LIBCMT:constpow.obj
 0003:0000e4ac       __timezone                 1007f4ac     LIBCMT:timeset.obj
 0003:0000e4b0       __daylight                 1007f4b0     LIBCMT:timeset.obj
 0003:0000e4b4       __dstbias                  1007f4b4     LIBCMT:timeset.obj
 0003:0000e538       __tzname                   1007f538     LIBCMT:timeset.obj
 0003:0000e55c       __lpdays                   1007f55c     LIBCMT:days.obj
 0003:0000e590       __days                     1007f590     LIBCMT:days.obj
 0003:0000e5c8       ??_C@_00A@?$AA@            1007f5c8     airtank.obj
 0003:0000e5cc       ?gTouchDisabled@@3HA       1007f5cc     cbase.obj
 0003:0000e614       ?g_pGameRules@@3PAVCGameRules@@A 1007f614     gamerules.obj
 0003:0000e618       ?gDisplayTitle@@3HA        1007f618     globals.obj
 0003:0000e61c       ?g_ulModelIndexPlayer@@3KA 1007f61c     globals.obj
 0003:0000e620       ?g_fGameOver@@3HA          1007f620     globals.obj
 0003:0000e628       ?g_vecZero@@3VVector@@B    1007f628     globals.obj
 0003:0000e634       ?g_ulModelIndexEyes@@3KA   1007f634     globals.obj
 0003:0000e638       ?g_Language@@3HA           1007f638     globals.obj
 0003:0000e63c       ?g_ulFrameCount@@3KA       1007f63c     globals.obj
 0003:0000e640       ?g_iSkillLevel@@3HA        1007f640     globals.obj
 0003:0000e648       ?g_vecAttackDir@@3VVector@@A 1007f648     globals.obj
 0003:0000e654       ?g_fDrawLines@@3HA         1007f654     h_ai.obj
 0003:0000e658       ?g_engfuncs@@3Uenginefuncs_s@@A 1007f658     h_export.obj
 0003:0000e828       ?gpGlobals@@3PAUglobalvars_t@@A 1007f828     h_export.obj
 0003:0000e82c       ?iHornetTrail@@3HA         1007f82c     hornet.obj
 0003:0000e830       ?iHornetPuff@@3HA          1007f830     hornet.obj
 0003:0000e838       ?WorldGraph@@3VCGraph@@A   1007f838     mpstubb.obj
 0003:0000e848       ?g_talkWaitTime@CTalkMonster@@2MA 1007f848     mpstubb.obj
 0003:0000e84c       ?g_pevLastInflictor@@3PAUentvars_t@@A 1007f84c     player.obj
 0003:0000e850       ?gEvilImpulse101@@3HA      1007f850     player.obj
 0003:0000e854       ?g_pLastSpawn@@3PAVCBaseEntity@@A 1007f854     player.obj
 0003:0000e858       ?gmsgGeigerRange@@3HA      1007f858     player.obj
 0003:0000e85c       ?giPrecacheGrunt@@3HA      1007f85c     player.obj
 0003:0000e860       ?gmsgShake@@3HA            1007f860     player.obj
 0003:0000e864       ?gmsgFade@@3HA             1007f864     player.obj
 0003:0000e868       ?gmsgSelAmmo@@3HA          1007f868     player.obj
 0003:0000e86c       ?gmsgFlashlight@@3HA       1007f86c     player.obj
 0003:0000e870       ?gmsgFlashBattery@@3HA     1007f870     player.obj
 0003:0000e874       ?gmsgResetHUD@@3HA         1007f874     player.obj
 0003:0000e878       ?gmsgInitHUD@@3HA          1007f878     player.obj
 0003:0000e87c       ?gmsgShowGameTitle@@3HA    1007f87c     player.obj
 0003:0000e880       ?gmsgCurWeapon@@3HA        1007f880     player.obj
 0003:0000e884       ?gmsgHealth@@3HA           1007f884     player.obj
 0003:0000e888       ?gmsgDamage@@3HA           1007f888     player.obj
 0003:0000e88c       ?gmsgBattery@@3HA          1007f88c     player.obj
 0003:0000e890       ?gmsgTrain@@3HA            1007f890     player.obj
 0003:0000e894       ?gmsgLogo@@3HA             1007f894     player.obj
 0003:0000e898       ?gmsgWeaponList@@3HA       1007f898     player.obj
 0003:0000e89c       ?gmsgAmmoX@@3HA            1007f89c     player.obj
 0003:0000e8a0       ?gmsgHudText@@3HA          1007f8a0     player.obj
 0003:0000e8a4       ?gmsgDeathMsg@@3HA         1007f8a4     player.obj
 0003:0000e8a8       ?gmsgScoreInfo@@3HA        1007f8a8     player.obj
 0003:0000e8ac       ?gmsgTeamInfo@@3HA         1007f8ac     player.obj
 0003:0000e8b0       ?gmsgTeamScore@@3HA        1007f8b0     player.obj
 0003:0000e8b4       ?gmsgGameMode@@3HA         1007f8b4     player.obj
 0003:0000e8b8       ?gmsgMOTD@@3HA             1007f8b8     player.obj
 0003:0000e8bc       ?gmsgAmmoPickup@@3HA       1007f8bc     player.obj
 0003:0000e8c0       ?gmsgWeapPickup@@3HA       1007f8c0     player.obj
 0003:0000e8c4       ?gmsgItemPickup@@3HA       1007f8c4     player.obj
 0003:0000e8c8       ?gmsgHideWeapon@@3HA       1007f8c8     player.obj
 0003:0000e8cc       ?gmsgSetCurWeap@@3HA       1007f8cc     player.obj
 0003:0000e8d0       ?gmsgSayText@@3HA          1007f8d0     player.obj
 0003:0000e8d4       ?gmsgTextMsg@@3HA          1007f8d4     player.obj
 0003:0000e8d8       ?gmsgSetFOV@@3HA           1007f8d8     player.obj
 0003:0000e8dc       ?gmsgShowMenu@@3HA         1007f8dc     player.obj
 0003:0000e8f0       ?gSkillData@@3Uskilldata_t@@A 1007f8f0     skill.obj
 0003:0000ea48       ?rgsentenceg@@3PAUsentenceg@@A 1007fa48     sound.obj
 0003:000112e8       ?gszallsentencenames@@3PAY0BA@DA 100822e8     sound.obj
 0003:000172e8       ?grgszTextureName@@3PAY0N@DA 100882e8     sound.obj
 0003:00018ce8       ?grgchTextureType@@3PADA   10089ce8     sound.obj
 0003:00018ee8       ?fSentencesInit@@3HA       10089ee8     sound.obj
 0003:00018eec       ?gcallsentences@@3HA       10089eec     sound.obj
 0003:00018ef0       ?fTextureTypeInit@@3HA     10089ef0     sound.obj
 0003:00018ef4       ?gcTextures@@3HA           10089ef4     sound.obj
 0003:00018ef8       ?pSoundEnt@@3PAVCSoundEnt@@A 10089ef8     soundent.obj
 0003:00018f00       ?m_flNextBounceSoundTime@CSqueakGrenade@@0MA 10089f00     squeakgrenade.obj
 0003:000199e8       ?g_sModelIndexWExplosion@@3FA 1008a9e8     weapons.obj
 0003:000199ea       ?g_sModelIndexSmoke@@3FA   1008a9ea     weapons.obj
 0003:000199ec       ?g_sModelIndexBloodDrop@@3FA 1008a9ec     weapons.obj
 0003:000199f0       ?gMultiDamage@@3UMULTIDAMAGE@@A 1008a9f0     weapons.obj
 0003:000199fc       ?g_sModelIndexFireball@@3FA 1008a9fc     weapons.obj
 0003:000199fe       ?g_sModelIndexLaser@@3FA   1008a9fe     weapons.obj
 0003:00019a00       ?g_sModelIndexBloodSpray@@3FA 1008aa00     weapons.obj
 0003:00019a08       ?AmmoInfoArray@CBasePlayerItem@@2PAUAmmoInfo@@A 1008aa08     weapons.obj
 0003:00019b08       ?g_sModelIndexLaserDot@@3FA 1008ab08     weapons.obj
 0003:00019b10       ?ItemInfoArray@CBasePlayerItem@@2PAUItemInfo@@A 1008ab10     weapons.obj
 0003:0001a090       ?g_sModelIndexBubbles@@3FA 1008b090     weapons.obj
 0003:0001a094       ?giAmmoIndex@@3HA          1008b094     weapons.obj
 0003:0001a098       ?g_pBodyQueueHead@@3PAUedict_s@@A 1008b098     world.obj
 0003:0001a0a0       ?gGlobalState@@3VCGlobalState@@A 1008b0a0     world.obj
 0003:0001a0a8       ?g_flWeaponCheat@@3MA      1008b0a8     world.obj
 0003:0001a0b0       ?m_hullSizes@CXenSporeLarge@@0QBVVector@@B 1008b0b0     xen.obj
 0003:0001a0ec       ___fastflag                1008b0ec     LIBCMT:fpinit.obj
 0003:0001a0f0       __adjust_fdiv              1008b0f0     LIBCMT:fpinit.obj
 0003:0001a0f8       __aenvptr                  1008b0f8     LIBCMT:dllcrt0.obj
 0003:0001a0fc       __wenvptr                  1008b0fc     LIBCMT:dllcrt0.obj
 0003:0001a100       ___error_mode              1008b100     LIBCMT:dllcrt0.obj
 0003:0001a104       ___app_type                1008b104     LIBCMT:dllcrt0.obj
 0003:0001a168       ___lc_handle               1008b168     LIBCMT:nlsdata2.obj
 0003:0001a180       ___lc_codepage             1008b180     LIBCMT:nlsdata2.obj
 0003:0001a184       ___lc_collate_cp           1008b184     LIBCMT:nlsdata2.obj
 0003:0001a198       ?_pnhHeap@@3P6AHI@ZA       1008b198     LIBCMT:handler.obj
 0003:0001a19c       __newmode                  1008b19c     LIBCMT:_newmode.obj
 0003:0001a1a0       __umaskval                 1008b1a0     LIBCMT:crt0dat.obj
 0003:0001a1a4       __osver                    1008b1a4     LIBCMT:crt0dat.obj
 0003:0001a1a8       __winver                   1008b1a8     LIBCMT:crt0dat.obj
 0003:0001a1ac       __winmajor                 1008b1ac     LIBCMT:crt0dat.obj
 0003:0001a1b0       __winminor                 1008b1b0     LIBCMT:crt0dat.obj
 0003:0001a1b4       ___argc                    1008b1b4     LIBCMT:crt0dat.obj
 0003:0001a1b8       ___argv                    1008b1b8     LIBCMT:crt0dat.obj
 0003:0001a1bc       ___wargv                   1008b1bc     LIBCMT:crt0dat.obj
 0003:0001a1c0       __environ                  1008b1c0     LIBCMT:crt0dat.obj
 0003:0001a1c4       ___initenv                 1008b1c4     LIBCMT:crt0dat.obj
 0003:0001a1c8       __wenviron                 1008b1c8     LIBCMT:crt0dat.obj
 0003:0001a1cc       ___winitenv                1008b1cc     LIBCMT:crt0dat.obj
 0003:0001a1d0       __pgmptr                   1008b1d0     LIBCMT:crt0dat.obj
 0003:0001a1d4       __wpgmptr                  1008b1d4     LIBCMT:crt0dat.obj
 0003:0001a1d8       __exitflag                 1008b1d8     LIBCMT:crt0dat.obj
 0003:0001a1dc       __C_Termination_Done       1008b1dc     LIBCMT:crt0dat.obj
 0003:0001a1e0       __C_Exit_Done              1008b1e0     LIBCMT:crt0dat.obj
 0003:0001a2ec       __adbgmsg                  1008b2ec     LIBCMT:crt0msg.obj
 0003:0001a2f8       __cflush                   1008b2f8     LIBCMT:_file.obj
 0003:0001a2fc       ___lc_time_intl            1008b2fc     LIBCMT:inittime.obj
 0003:0001a318       ___lc_id                   1008b318     LIBCMT:nlsdata3.obj
 0003:0001a38c       ___lconv_static_null       1008b38c     LIBCMT:lconv.obj
 0003:0001a460       ___alternate_form          1008b460     <common>
 0003:0001a464       ___no_lead_zeros           1008b464     <common>
 0003:0001a468       ___mbcodepage              1008b468     <common>
 0003:0001a470       ___mbulinfo                1008b470     <common>
 0003:0001a47c       ___ismbcodepage            1008b47c     <common>
 0003:0001a480       __mbcasemap                1008b480     <common>
 0003:0001a580       __mbctype                  1008b580     <common>
 0003:0001a684       ___mblcid                  1008b684     <common>
 0003:0001a688       ___piob                    1008b688     <common>
 0003:0001a6a0       __bufin                    1008b6a0     <common>
 0003:0001b6a0       __nstream                  1008c6a0     <common>
 0003:0001b6c0       ___pioinfo                 1008c6c0     <common>
 0003:0001b7c0       __nhandle                  1008c7c0     <common>
 0003:0001b7c4       ___env_initialized         1008c7c4     <common>
 0003:0001b7c8       ___mbctype_initialized     1008c7c8     <common>
 0003:0001b7cc       ___onexitend               1008c7cc     <common>
 0003:0001b7d0       ___onexitbegin             1008c7d0     <common>
 0003:0001b7d4       ___sbh_sizeHeaderList      1008c7d4     <common>
 0003:0001b7d8       ___sbh_indGroupDefer       1008c7d8     <common>
 0003:0001b7dc       ___sbh_pHeaderScan         1008c7dc     <common>
 0003:0001b7e0       ___sbh_pHeaderDefer        1008c7e0     <common>
 0003:0001b7e4       ___sbh_cntHeaderList       1008c7e4     <common>
 0003:0001b7e8       ___sbh_pHeaderList         1008c7e8     <common>
 0003:0001b7ec       __crtheap                  1008c7ec     <common>
 0003:0001b7f0       ___setlc_active            1008c7f0     <common>
 0003:0001b7f4       ___unguarded_readlc_active 1008c7f4     <common>
 0003:0001b7f8       __acmdln                   1008c7f8     <common>
 0003:0001b7fc       __pRawDllMain              1008c7fc     <common>
 0004:00000000       __IMPORT_DESCRIPTOR_KERNEL32 1008d000     kernel32:KERNEL32.dll
 0004:00000014       __NULL_IMPORT_DESCRIPTOR   1008d014     kernel32:KERNEL32.dll
 0004:00000154       __imp__RtlUnwind@16        1008d154     kernel32:KERNEL32.dll
 0004:00000158       __imp__InterlockedDecrement@4 1008d158     kernel32:KERNEL32.dll
 0004:0000015c       __imp__InterlockedIncrement@4 1008d15c     kernel32:KERNEL32.dll
 0004:00000160       __imp__HeapAlloc@12        1008d160     kernel32:KERNEL32.dll
 0004:00000164       __imp__HeapFree@12         1008d164     kernel32:KERNEL32.dll
 0004:00000168       __imp__GetCommandLineA@0   1008d168     kernel32:KERNEL32.dll
 0004:0000016c       __imp__GetVersion@0        1008d16c     kernel32:KERNEL32.dll
 0004:00000170       __imp__GetProcAddress@8    1008d170     kernel32:KERNEL32.dll
 0004:00000174       __imp__GetModuleHandleA@4  1008d174     kernel32:KERNEL32.dll
 0004:00000178       __imp__GetCurrentThreadId@0 1008d178     kernel32:KERNEL32.dll
 0004:0000017c       __imp__TlsSetValue@8       1008d17c     kernel32:KERNEL32.dll
 0004:00000180       __imp__TlsAlloc@0          1008d180     kernel32:KERNEL32.dll
 0004:00000184       __imp__TlsFree@4           1008d184     kernel32:KERNEL32.dll
 0004:00000188       __imp__SetLastError@4      1008d188     kernel32:KERNEL32.dll
 0004:0000018c       __imp__TlsGetValue@4       1008d18c     kernel32:KERNEL32.dll
 0004:00000190       __imp__GetLastError@0      1008d190     kernel32:KERNEL32.dll
 0004:00000194       __imp__GetCurrentThread@0  1008d194     kernel32:KERNEL32.dll
 0004:00000198       __imp__InitializeCriticalSection@4 1008d198     kernel32:KERNEL32.dll
 0004:0000019c       __imp__DeleteCriticalSection@4 1008d19c     kernel32:KERNEL32.dll
 0004:000001a0       __imp__EnterCriticalSection@4 1008d1a0     kernel32:KERNEL32.dll
 0004:000001a4       __imp__LeaveCriticalSection@4 1008d1a4     kernel32:KERNEL32.dll
 0004:000001a8       __imp__ExitProcess@4       1008d1a8     kernel32:KERNEL32.dll
 0004:000001ac       __imp__FatalAppExitA@8     1008d1ac     kernel32:KERNEL32.dll
 0004:000001b0       __imp__Sleep@4             1008d1b0     kernel32:KERNEL32.dll
 0004:000001b4       __imp__WideCharToMultiByte@32 1008d1b4     kernel32:KERNEL32.dll
 0004:000001b8       __imp__MultiByteToWideChar@24 1008d1b8     kernel32:KERNEL32.dll
 0004:000001bc       __imp__LCMapStringA@24     1008d1bc     kernel32:KERNEL32.dll
 0004:000001c0       __imp__LCMapStringW@24     1008d1c0     kernel32:KERNEL32.dll
 0004:000001c4       __imp__HeapDestroy@4       1008d1c4     kernel32:KERNEL32.dll
 0004:000001c8       __imp__HeapCreate@12       1008d1c8     kernel32:KERNEL32.dll
 0004:000001cc       __imp__VirtualFree@12      1008d1cc     kernel32:KERNEL32.dll
 0004:000001d0       __imp__VirtualAlloc@16     1008d1d0     kernel32:KERNEL32.dll
 0004:000001d4       __imp__HeapReAlloc@16      1008d1d4     kernel32:KERNEL32.dll
 0004:000001d8       __imp__IsBadWritePtr@8     1008d1d8     kernel32:KERNEL32.dll
 0004:000001dc       __imp__TerminateProcess@8  1008d1dc     kernel32:KERNEL32.dll
 0004:000001e0       __imp__GetCurrentProcess@0 1008d1e0     kernel32:KERNEL32.dll
 0004:000001e4       __imp__SetHandleCount@4    1008d1e4     kernel32:KERNEL32.dll
 0004:000001e8       __imp__GetStdHandle@4      1008d1e8     kernel32:KERNEL32.dll
 0004:000001ec       __imp__GetFileType@4       1008d1ec     kernel32:KERNEL32.dll
 0004:000001f0       __imp__GetStartupInfoA@4   1008d1f0     kernel32:KERNEL32.dll
 0004:000001f4       __imp__GetModuleFileNameA@12 1008d1f4     kernel32:KERNEL32.dll
 0004:000001f8       __imp__FreeEnvironmentStringsA@4 1008d1f8     kernel32:KERNEL32.dll
 0004:000001fc       __imp__FreeEnvironmentStringsW@4 1008d1fc     kernel32:KERNEL32.dll
 0004:00000200       __imp__GetEnvironmentStrings@0 1008d200     kernel32:KERNEL32.dll
 0004:00000204       __imp__GetEnvironmentStringsW@0 1008d204     kernel32:KERNEL32.dll
 0004:00000208       __imp__WriteFile@20        1008d208     kernel32:KERNEL32.dll
 0004:0000020c       __imp__GetStringTypeA@20   1008d20c     kernel32:KERNEL32.dll
 0004:00000210       __imp__GetStringTypeW@16   1008d210     kernel32:KERNEL32.dll
 0004:00000214       __imp__SetUnhandledExceptionFilter@4 1008d214     kernel32:KERNEL32.dll
 0004:00000218       __imp__IsBadReadPtr@8      1008d218     kernel32:KERNEL32.dll
 0004:0000021c       __imp__IsBadCodePtr@4      1008d21c     kernel32:KERNEL32.dll
 0004:00000220       __imp__UnhandledExceptionFilter@4 1008d220     kernel32:KERNEL32.dll
 0004:00000224       __imp__SetFilePointer@16   1008d224     kernel32:KERNEL32.dll
 0004:00000228       __imp__GetCPInfo@8         1008d228     kernel32:KERNEL32.dll
 0004:0000022c       __imp__IsValidLocale@8     1008d22c     kernel32:KERNEL32.dll
 0004:00000230       __imp__IsValidCodePage@4   1008d230     kernel32:KERNEL32.dll
 0004:00000234       __imp__GetLocaleInfoA@16   1008d234     kernel32:KERNEL32.dll
 0004:00000238       __imp__EnumSystemLocalesA@8 1008d238     kernel32:KERNEL32.dll
 0004:0000023c       __imp__GetUserDefaultLCID@0 1008d23c     kernel32:KERNEL32.dll
 0004:00000240       __imp__GetVersionExA@4     1008d240     kernel32:KERNEL32.dll
 0004:00000244       __imp__GetACP@0            1008d244     kernel32:KERNEL32.dll
 0004:00000248       __imp__GetOEMCP@0          1008d248     kernel32:KERNEL32.dll
 0004:0000024c       __imp__LoadLibraryA@4      1008d24c     kernel32:KERNEL32.dll
 0004:00000250       __imp__SetConsoleCtrlHandler@8 1008d250     kernel32:KERNEL32.dll
 0004:00000254       __imp__SetStdHandle@8      1008d254     kernel32:KERNEL32.dll
 0004:00000258       __imp__RaiseException@16   1008d258     kernel32:KERNEL32.dll
 0004:0000025c       __imp__ReadFile@20         1008d25c     kernel32:KERNEL32.dll
 0004:00000260       __imp__FlushFileBuffers@4  1008d260     kernel32:KERNEL32.dll
 0004:00000264       __imp__GetTimeZoneInformation@4 1008d264     kernel32:KERNEL32.dll
 0004:00000268       __imp__GetLocaleInfoW@16   1008d268     kernel32:KERNEL32.dll
 0004:0000026c       __imp__CloseHandle@4       1008d26c     kernel32:KERNEL32.dll
 0004:00000270       __imp__CompareStringA@24   1008d270     kernel32:KERNEL32.dll
 0004:00000274       __imp__CompareStringW@24   1008d274     kernel32:KERNEL32.dll
 0004:00000278       __imp__SetEnvironmentVariableA@8 1008d278     kernel32:KERNEL32.dll
 0004:0000027c       \177KERNEL32_NULL_THUNK_DATA 1008d27c     kernel32:KERNEL32.dll

 entry point at        0001:000524ae

 Static symbols

 0001:00050be0       _$E18                      10051be0 f   xen.obj
 0001:00050bf0       _$E17                      10051bf0 f   xen.obj
 0001:0004ebb0       _$E17                      1004fbb0 f   world.obj
 0001:0004ebc0       _$E16                      1004fbc0 f   world.obj
 0001:0004f8a0       ?InitBodyQue@@YAXXZ        100508a0 f   world.obj
 0001:0004a240       ?FixedUnsigned16@@YAGMM@Z  1004b240 f   util.obj
 0001:0004a630       ?FixedSigned16@@YAFMM@Z    1004b630 f   util.obj
 0001:0003fce0       ?memfgets@@YAPADPAEHAAHPADH@Z 10040ce0 f   sound.obj
 0001:00035250       ?CheckPowerups@@YAXPAUentvars_t@@@Z 10036250 f   player.obj
 0001:0002c650       ?PlatSpawnInsideTrigger@@YAXPAUentvars_t@@@Z 1002d650 f   plats.obj
 0001:0002e640       ?FixupAngles@@YAXAAVVector@@@Z 1002f640 f   plats.obj
 0001:0002e670       ?Fix@@YAMM@Z               1002f670 f   plats.obj
 0001:0001ff20       _$E9                       10020f20 f   globals.obj
 0001:0001ff30       _$E8                       10020f30 f   globals.obj
 0001:0001ff40       _$E12                      10020f40 f   globals.obj
 0001:0001ff50       _$E11                      10020f50 f   globals.obj
 0001:000191a0       _$E18                      1001a1a0 f   func_tank.obj
 0001:000191b0       _$E17                      1001a1b0 f   func_tank.obj
 0001:00007390       ?SetObjectCollisionBox@@YAXPAUentvars_t@@@Z 10008390 f   cbase.obj
 0001:000609fe       _findenv                   100619fe f   LIBCMT:setenv.obj
 0001:00060a56       _copy_environ              10061a56 f   LIBCMT:setenv.obj
 0001:0006084c       _strncnt                   1006184c f   LIBCMT:a_cmp.obj
 0001:0005fbb4       __tzset_lk                 10060bb4 f   LIBCMT:tzset.obj
 0001:0005fe5c       __isindst_lk               10060e5c f   LIBCMT:tzset.obj
 0001:00060008       _cvtdate                   10061008 f   LIBCMT:tzset.obj
 0001:0005f814       _xtoa                      10060814 f   LIBCMT:xtoa.obj
 0001:0005f8e6       _x64toa@20                 100608e6 f   LIBCMT:xtoa.obj
 0001:0005ed47       __expandtime               1005fd47 f   LIBCMT:strftime.obj
 0001:0005f136       __store_str                10060136 f   LIBCMT:strftime.obj
 0001:0005f15d       __store_num                1006015d f   LIBCMT:strftime.obj
 0001:0005f1cc       __store_number             100601cc f   LIBCMT:strftime.obj
 0001:0005f215       __store_winword            10060215 f   LIBCMT:strftime.obj
 0001:0005e3cd       __get_fname                1005f3cd f   LIBCMT:fpexcept.obj
 0001:0005dbbe       _flsall                    1005ebbe f   LIBCMT:fflush.obj
 0001:0005cd6b       _ctrlevent_capture@4       1005dd6b f   LIBCMT:winsig.obj
 0001:0005cf4f       _siglookup                 1005df4f f   LIBCMT:winsig.obj
 0001:0005c909       _getSystemCP               1005d909 f   LIBCMT:mbctype.obj
 0001:0005c953       _CPtoLCID                  1005d953 f   LIBCMT:mbctype.obj
 0001:0005c986       _setSBCS                   1005d986 f   LIBCMT:mbctype.obj
 0001:0005c9af       _setSBUpLow                1005d9af f   LIBCMT:mbctype.obj
 0001:0005c032       _TranslateName             1005d032 f   LIBCMT:getqloc.obj
 0001:0005c08a       _GetLcidFromLangCountry    1005d08a f   LIBCMT:getqloc.obj
 0001:0005c111       _LangCountryEnumProc@4     1005d111 f   LIBCMT:getqloc.obj
 0001:0005c315       _GetLcidFromLanguage       1005d315 f   LIBCMT:getqloc.obj
 0001:0005c36b       _LanguageEnumProc@4        1005d36b f   LIBCMT:getqloc.obj
 0001:0005c428       _GetLcidFromCountry        1005d428 f   LIBCMT:getqloc.obj
 0001:0005c45f       _CountryEnumProc@4         1005d45f f   LIBCMT:getqloc.obj
 0001:0005c4e5       _GetLcidFromDefault        1005d4e5 f   LIBCMT:getqloc.obj
 0001:0005c4ff       _ProcessCodePage           1005d4ff f   LIBCMT:getqloc.obj
 0001:0005c565       _TestDefaultCountry        1005d565 f   LIBCMT:getqloc.obj
 0001:0005c584       _TestDefaultLanguage       1005d584 f   LIBCMT:getqloc.obj
 0001:0005c5e6       _IsThisWindowsNT           1005d5e6 f   LIBCMT:getqloc.obj
 0001:0005c61c       _crtGetLocaleInfoA@16      1005d61c f   LIBCMT:getqloc.obj
 0001:0005c702       _LcidFromHexString         1005d702 f   LIBCMT:getqloc.obj
 0001:0005c73b       _GetPrimaryLen             1005d73b f   LIBCMT:getqloc.obj
 0001:0005bbf0       LeadUp1                    1005cbf0 f   LIBCMT:memcpy.obj
 0001:0005bc1c       LeadUp2                    1005cc1c f   LIBCMT:memcpy.obj
 0001:0005bc40       LeadUp3                    1005cc40 f   LIBCMT:memcpy.obj
 0001:0005bcbf       UnwindUp0                  1005ccbf f   LIBCMT:memcpy.obj
 0001:0005bcac       UnwindUp1                  1005ccac f   LIBCMT:memcpy.obj
 0001:0005bca4       UnwindUp2                  1005cca4 f   LIBCMT:memcpy.obj
 0001:0005bc9c       UnwindUp3                  1005cc9c f   LIBCMT:memcpy.obj
 0001:0005bc94       UnwindUp4                  1005cc94 f   LIBCMT:memcpy.obj
 0001:0005bc8c       UnwindUp5                  1005cc8c f   LIBCMT:memcpy.obj
 0001:0005bc84       UnwindUp6                  1005cc84 f   LIBCMT:memcpy.obj
 0001:0005bc7c       UnwindUp7                  1005cc7c f   LIBCMT:memcpy.obj
 0001:0005bcd8       TrailUp0                   1005ccd8 f   LIBCMT:memcpy.obj
 0001:0005bce0       TrailUp1                   1005cce0 f   LIBCMT:memcpy.obj
 0001:0005bcec       TrailUp2                   1005ccec f   LIBCMT:memcpy.obj
 0001:0005bd00       TrailUp3                   1005cd00 f   LIBCMT:memcpy.obj
 0001:0005bd78       LeadDown1                  1005cd78 f   LIBCMT:memcpy.obj
 0001:0005bd98       LeadDown2                  1005cd98 f   LIBCMT:memcpy.obj
 0001:0005bdc0       LeadDown3                  1005cdc0 f   LIBCMT:memcpy.obj
 0001:0005be14       UnwindDown7                1005ce14 f   LIBCMT:memcpy.obj
 0001:0005be1c       UnwindDown6                1005ce1c f   LIBCMT:memcpy.obj
 0001:0005be24       UnwindDown5                1005ce24 f   LIBCMT:memcpy.obj
 0001:0005be2c       UnwindDown4                1005ce2c f   LIBCMT:memcpy.obj
 0001:0005be34       UnwindDown3                1005ce34 f   LIBCMT:memcpy.obj
 0001:0005be3c       UnwindDown2                1005ce3c f   LIBCMT:memcpy.obj
 0001:0005be44       UnwindDown1                1005ce44 f   LIBCMT:memcpy.obj
 0001:0005be57       UnwindDown0                1005ce57 f   LIBCMT:memcpy.obj
 0001:0005be70       TrailDown0                 1005ce70 f   LIBCMT:memcpy.obj
 0001:0005be78       TrailDown1                 1005ce78 f   LIBCMT:memcpy.obj
 0001:0005be88       TrailDown2                 1005ce88 f   LIBCMT:memcpy.obj
 0001:0005be9c       TrailDown3                 1005ce9c f   LIBCMT:memcpy.obj
 0001:0005b70e       __get_lc_lconv             1005c70e f   LIBCMT:initmon.obj
 0001:0005b830       _fix_grouping              1005c830 f   LIBCMT:initmon.obj
 0001:0005b867       __free_lc_lconv            1005c867 f   LIBCMT:initmon.obj
 0001:0005b60c       _fix_grouping              1005c60c f   LIBCMT:initnum.obj
 0001:0005af59       __get_lc_time              1005bf59 f   LIBCMT:inittime.obj
 0001:0005b2a7       __free_lc_time             1005c2a7 f   LIBCMT:inittime.obj
 0001:00059e42       _xcptlookup                1005ae42 f   LIBCMT:winxfltr.obj
 0001:000591c0       LeadUp1                    1005a1c0 f   LIBCMT:memmove.obj
 0001:000591ec       LeadUp2                    1005a1ec f   LIBCMT:memmove.obj
 0001:00059210       LeadUp3                    1005a210 f   LIBCMT:memmove.obj
 0001:0005928f       UnwindUp0                  1005a28f f   LIBCMT:memmove.obj
 0001:0005927c       UnwindUp1                  1005a27c f   LIBCMT:memmove.obj
 0001:00059274       UnwindUp2                  1005a274 f   LIBCMT:memmove.obj
 0001:0005926c       UnwindUp3                  1005a26c f   LIBCMT:memmove.obj
 0001:00059264       UnwindUp4                  1005a264 f   LIBCMT:memmove.obj
 0001:0005925c       UnwindUp5                  1005a25c f   LIBCMT:memmove.obj
 0001:00059254       UnwindUp6                  1005a254 f   LIBCMT:memmove.obj
 0001:0005924c       UnwindUp7                  1005a24c f   LIBCMT:memmove.obj
 0001:000592a8       TrailUp0                   1005a2a8 f   LIBCMT:memmove.obj
 0001:000592b0       TrailUp1                   1005a2b0 f   LIBCMT:memmove.obj
 0001:000592bc       TrailUp2                   1005a2bc f   LIBCMT:memmove.obj
 0001:000592d0       TrailUp3                   1005a2d0 f   LIBCMT:memmove.obj
 0001:00059348       LeadDown1                  1005a348 f   LIBCMT:memmove.obj
 0001:00059368       LeadDown2                  1005a368 f   LIBCMT:memmove.obj
 0001:00059390       LeadDown3                  1005a390 f   LIBCMT:memmove.obj
 0001:000593e4       UnwindDown7                1005a3e4 f   LIBCMT:memmove.obj
 0001:000593ec       UnwindDown6                1005a3ec f   LIBCMT:memmove.obj
 0001:000593f4       UnwindDown5                1005a3f4 f   LIBCMT:memmove.obj
 0001:000593fc       UnwindDown4                1005a3fc f   LIBCMT:memmove.obj
 0001:00059404       UnwindDown3                1005a404 f   LIBCMT:memmove.obj
 0001:0005940c       UnwindDown2                1005a40c f   LIBCMT:memmove.obj
 0001:00059414       UnwindDown1                1005a414 f   LIBCMT:memmove.obj
 0001:00059427       UnwindDown0                1005a427 f   LIBCMT:memmove.obj
 0001:00059440       TrailDown0                 1005a440 f   LIBCMT:memmove.obj
 0001:00059448       TrailDown1                 1005a448 f   LIBCMT:memmove.obj
 0001:00059458       TrailDown2                 1005a458 f   LIBCMT:memmove.obj
 0001:0005946c       TrailDown3                 1005a46c f   LIBCMT:memmove.obj
 0001:000588ea       __abstract_cw              100598ea f   LIBCMT:ieee87.obj
 0001:0005897c       __hw_cw                    1005997c f   LIBCMT:ieee87.obj
 0001:00058a05       __abstract_sw              10059a05 f   LIBCMT:ieee87.obj
 0001:000583aa       _parse_cmdline             100593aa f   LIBCMT:stdargv.obj
 0001:00057f77       _doexit                    10058f77 f   LIBCMT:crt0dat.obj
 0001:0005802e       __initterm                 1005902e f   LIBCMT:crt0dat.obj
 0001:00056e33       _strncnt                   10057e33 f   LIBCMT:a_map.obj
 0001:0005669a       __setlocale_set_cat        1005769a f   LIBCMT:setlocal.obj
 0001:000567b5       __setlocale_get_all        100577b5 f   LIBCMT:setlocal.obj
 0001:00055db1       fFEXP                      10056db1 f   LIBCMT:87tran.obj
 0001:00055ef1       _rtforexpinf               10056ef1 f   LIBCMT:87tran.obj
 0001:00055d0c       __hextodec                 10056d0c f   LIBCMT:input.obj
 0001:00055d43       __inc                      10056d43 f   LIBCMT:input.obj
 0001:00055d5d       __un_inc                   10056d5d f   LIBCMT:input.obj
 0001:00055d74       __whiteout                 10056d74 f   LIBCMT:input.obj
 0001:000545f4       label0                     100555f4 f   LIBCMT:adj_fdiv.obj
 0001:000545fa       label1                     100555fa f   LIBCMT:adj_fdiv.obj
 0001:000545ff       label2                     100555ff f   LIBCMT:adj_fdiv.obj
 0001:00054605       label3                     10055605 f   LIBCMT:adj_fdiv.obj
 0001:0005460a       label4                     1005560a f   LIBCMT:adj_fdiv.obj
 0001:00054610       label5                     10055610 f   LIBCMT:adj_fdiv.obj
 0001:00054616       label6                     10055616 f   LIBCMT:adj_fdiv.obj
 0001:0005461c       label7                     1005561c f   LIBCMT:adj_fdiv.obj
 0001:00054622       label8                     10055622 f   LIBCMT:adj_fdiv.obj
 0001:0005463e       label9                     1005563e f   LIBCMT:adj_fdiv.obj
 0001:00054643       label10                    10055643 f   LIBCMT:adj_fdiv.obj
 0001:00054659       label11                    10055659 f   LIBCMT:adj_fdiv.obj
 0001:0005465e       label12                    1005565e f   LIBCMT:adj_fdiv.obj
 0001:0005467a       label13                    1005567a f   LIBCMT:adj_fdiv.obj
 0001:0005468a       label14                    1005568a f   LIBCMT:adj_fdiv.obj
 0001:0005469e       label15                    1005569e f   LIBCMT:adj_fdiv.obj
 0001:000546ae       label16                    100556ae f   LIBCMT:adj_fdiv.obj
 0001:000546ce       label17                    100556ce f   LIBCMT:adj_fdiv.obj
 0001:000546d3       label18                    100556d3 f   LIBCMT:adj_fdiv.obj
 0001:000546ed       label19                    100556ed f   LIBCMT:adj_fdiv.obj
 0001:000546f2       label20                    100556f2 f   LIBCMT:adj_fdiv.obj
 0001:00054712       label21                    10055712 f   LIBCMT:adj_fdiv.obj
 0001:00054726       label22                    10055726 f   LIBCMT:adj_fdiv.obj
 0001:0005473e       label23                    1005573e f   LIBCMT:adj_fdiv.obj
 0001:00054752       label24                    10055752 f   LIBCMT:adj_fdiv.obj
 0001:00054772       label25                    10055772 f   LIBCMT:adj_fdiv.obj
 0001:00054777       label26                    10055777 f   LIBCMT:adj_fdiv.obj
 0001:00054791       label27                    10055791 f   LIBCMT:adj_fdiv.obj
 0001:00054796       label28                    10055796 f   LIBCMT:adj_fdiv.obj
 0001:000547b6       label29                    100557b6 f   LIBCMT:adj_fdiv.obj
 0001:000547ca       label30                    100557ca f   LIBCMT:adj_fdiv.obj
 0001:000547e2       label31                    100557e2 f   LIBCMT:adj_fdiv.obj
 0001:000547f6       label32                    100557f6 f   LIBCMT:adj_fdiv.obj
 0001:00054816       label33                    10055816 f   LIBCMT:adj_fdiv.obj
 0001:0005481b       label34                    1005581b f   LIBCMT:adj_fdiv.obj
 0001:00054835       label35                    10055835 f   LIBCMT:adj_fdiv.obj
 0001:0005483a       label36                    1005583a f   LIBCMT:adj_fdiv.obj
 0001:0005485a       label37                    1005585a f   LIBCMT:adj_fdiv.obj
 0001:0005486e       label38                    1005586e f   LIBCMT:adj_fdiv.obj
 0001:00054886       label39                    10055886 f   LIBCMT:adj_fdiv.obj
 0001:0005489a       label40                    1005589a f   LIBCMT:adj_fdiv.obj
 0001:000548ba       label41                    100558ba f   LIBCMT:adj_fdiv.obj
 0001:000548bf       label42                    100558bf f   LIBCMT:adj_fdiv.obj
 0001:000548d9       label43                    100558d9 f   LIBCMT:adj_fdiv.obj
 0001:000548de       label44                    100558de f   LIBCMT:adj_fdiv.obj
 0001:000548fe       label45                    100558fe f   LIBCMT:adj_fdiv.obj
 0001:00054912       label46                    10055912 f   LIBCMT:adj_fdiv.obj
 0001:0005492a       label47                    1005592a f   LIBCMT:adj_fdiv.obj
 0001:0005493e       label48                    1005593e f   LIBCMT:adj_fdiv.obj
 0001:0005495e       label49                    1005595e f   LIBCMT:adj_fdiv.obj
 0001:00054963       label50                    10055963 f   LIBCMT:adj_fdiv.obj
 0001:0005497d       label51                    1005597d f   LIBCMT:adj_fdiv.obj
 0001:00054982       label52                    10055982 f   LIBCMT:adj_fdiv.obj
 0001:000549a2       label53                    100559a2 f   LIBCMT:adj_fdiv.obj
 0001:000549b6       label54                    100559b6 f   LIBCMT:adj_fdiv.obj
 0001:000549ce       label55                    100559ce f   LIBCMT:adj_fdiv.obj
 0001:000549e2       label56                    100559e2 f   LIBCMT:adj_fdiv.obj
 0001:00054a02       label57                    10055a02 f   LIBCMT:adj_fdiv.obj
 0001:00054a07       label58                    10055a07 f   LIBCMT:adj_fdiv.obj
 0001:00054a21       label59                    10055a21 f   LIBCMT:adj_fdiv.obj
 0001:00054a26       label60                    10055a26 f   LIBCMT:adj_fdiv.obj
 0001:00054a46       label61                    10055a46 f   LIBCMT:adj_fdiv.obj
 0001:00054a5a       label62                    10055a5a f   LIBCMT:adj_fdiv.obj
 0001:00054a72       label63                    10055a72 f   LIBCMT:adj_fdiv.obj
 0001:00053eec       _write_char                10054eec f   LIBCMT:output.obj
 0001:00053f21       _write_multi_char          10054f21 f   LIBCMT:output.obj
 0001:00053f52       _write_string              10054f52 f   LIBCMT:output.obj
 0001:00053f8a       _get_int_arg               10054f8a f   LIBCMT:output.obj
 0001:00053f97       _get_int64_arg             10054f97 f   LIBCMT:output.obj
 0001:00053fa7       _get_short_arg             10054fa7 f   LIBCMT:output.obj
 0001:00052c5f       ?FindHandler@@YAXPAUEHExceptionRecord@@PAUEHRegistrationNode@@PAU_CONTEXT@@PAXPBU_s_FuncInfo@@EH1@Z 10053c5f f   LIBCMT:frame.obj
 0001:00052e12       ?FindHandlerForForeignException@@YAXPAUEHExceptionRecord@@PAUEHRegistrationNode@@PAU_CONTEXT@@PAXPBU_s_FuncInfo@@HH1@Z 10053e12 f   LIBCMT:frame.obj
 0001:00052ebc       ?TypeMatch@@YAHPBU_s_HandlerType@@PBU_s_CatchableType@@PBU_s_ThrowInfo@@@Z 10053ebc f   LIBCMT:frame.obj
 0001:00052fb7       ?FrameUnwindFilter@@YAHPAU_EXCEPTION_POINTERS@@@Z 10053fb7 f   LIBCMT:frame.obj
 0001:00052fcd       ?CatchIt@@YAXPAUEHExceptionRecord@@PAUEHRegistrationNode@@PAU_CONTEXT@@PAXPBU_s_FuncInfo@@PBU_s_HandlerType@@PBU_s_CatchableType@@PBU_s_TryBlockMapEntry@@H1E@Z 10053fcd f   LIBCMT:frame.obj
 0001:00053048       ?CallCatchBlock@@YAPAXPAUEHExceptionRecord@@PAUEHRegistrationNode@@PAU_CONTEXT@@PBU_s_FuncInfo@@PAXHK@Z 10054048 f   LIBCMT:frame.obj
 0001:00053163       ?ExFilterRethrow@@YAHPAU_EXCEPTION_POINTERS@@@Z 10054163 f   LIBCMT:frame.obj
 0001:0005318d       ?BuildCatchObject@@YAXPAUEHExceptionRecord@@PAUEHRegistrationNode@@PBU_s_HandlerType@@PBU_s_CatchableType@@@Z 1005418d f   LIBCMT:frame.obj
 0001:000533b8       ?AdjustPointer@@YAPAXPAXABUPMD@@@Z 100543b8 f   LIBCMT:frame.obj
 0001:00052756       __cftoe2                   10053756 f   LIBCMT:cvt.obj
 0001:0005286d       __cftof2                   1005386d f   LIBCMT:cvt.obj
 0001:000529f8       __shift                    100539f8 f   LIBCMT:cvt.obj
 0001:00051bb4       fFMOD                      10052bb4 f   LIBCMT:87fmod.obj
 0001:00051790       _gu_return                 10052790 f   LIBCMT:exsup.obj
 0001:00051798       __unwind_handler           10052798 f   LIBCMT:exsup.obj
 0001:000515aa       ?CatchGuardHandler@@YA?AW4_EXCEPTION_DISPOSITION@@PAUEHExceptionRecord@@PAUCatchGuardRN@@PAX2@Z 100525aa f   LIBCMT:trnsctrl.obj
 0001:00051685       ?TranslatorGuardHandler@@YA?AW4_EXCEPTION_DISPOSITION@@PAUEHExceptionRecord@@PAUTranslatorGuardRN@@PAX2@Z 10052685 f   LIBCMT:trnsctrl.obj

FIXUPS: 526cb 17 3c 48 fffffbd0 41 37 1f 45 2a fffffea5 24 c ffffff30 5
FIXUPS: 52250 be5 7 fffffe0d 13 ffffffce fffffff3 ffffff89 a 14 ffffffcb
FIXUPS: 528cb 2b 28 28 2b 2a 28 2b 2e 2e 2b 40 3d fffffd9e 1d fffffedf
FIXUPS: 524db 4d 24 4b 2f 84 d75 ffffff73 6 9 2b 10 ffffff5c 1d fffffeec
FIXUPS: 530d9 d 10 55 63 fffffe73 25 a 31 fffffc0d 14 1b 25 14 10 d 10
FIXUPS: 52d2e 3d 3b 14 60 7 b63 17 2b 16 13 19 b fffffbe0 ffffff96 fffffe67
FIXUPS: 53428 9 14 a 5 5 5 29 5 5 5 d 47 10 14 11 44 9 fffffe2d 6 d 7 f1a
FIXUPS: 542db e 18 c e c 7 1f 43 24 fffff7c6 fffffec0 24 fffffba3 1b ae
FIXUPS: 536e5 2a 28 12 35 3e 76 1f f 55 18 2e b 2a 22 557 3a 78 1b e 45
FIXUPS: 53fe8 17 11 21 e 43 b b b 21 2d 14 17 b 2e 7 93 12 1c 1e 12 16
FIXUPS: 54293 12 15 9 20f 1f 16 3e e e e e e 11 7 fffffe5c 22 fffff7b5
FIXUPS: 53bf9 58 2f 2e f 8 12 b 1e 32 49 42 1f 28 a c 20 1e e66 c 15 8
FIXUPS: 54d5e 12 96 16 1c 27 17 1e 18 5e 32 37 fffff782 b 29 3b 1b fffffe70
FIXUPS: 54600 21 5 b 8 56 fffffd9f 19 1f 1b 2807 46 e a 38 39 16 14 8 fffff4dd
FIXUPS: 56279 14 1d 6 9 ffffedf3 3d 5e 133 38 fffff5df 3f 99 19 68 89 d
FIXUPS: 54aae 25 d9 bf 3b 194c 1f 2c 37 2d 17 2f f0 1a 30 15 2a a6 1f 4f
FIXUPS: 5698b 2b 6f 33 27 c 19 2b 11 29 17 49 3d 1e 23 17 60 79a 16 8 fffffe5a
FIXUPS: 572da 13 29 fffffdc4 5e 7 fffffead fffffdf4 12 1d 5 55 3c 7 2f
FIXUPS: 56f8d 15 fffff384 25 8 b 12 53 f8 e a8 32 2c 110c 41 17 1a 35 23
FIXUPS: 577cb 28 1a d 1e 24 6a 12 13 1e 24 11 17 18 c 29 1e 26 18 5c 2b
FIXUPS: 57aa1 24 fffff8ce 4f e 104b 78b fffff358 ffffff9e 16 fffffdbf 7c
FIXUPS: 57dc1 fffffd54 d 10 59 5d fffff890 2c 53 40 e 20 21 17 22 15 29
FIXUPS: 5761f 13 26 d 16 9 39 17 1c50 35 f 10 17 fffffed7 19 14 14 12 f
FIXUPS: 592d6 9 17 fffffd61 e 86 156 fffffcdf f 11 11 f f a 6e 11 c 1b
FIXUPS: 59028 fffff2fb 109 1982 16 47 53 c 22 c 21 c fffff994 14 14 17
FIXUPS: 598b8 9 9 fffffde3 16 8a 15 13 1a 14 d 11 12 16 19 fffffdf9 23
FIXUPS: 59662 13 1416 fffffb4e 71 61 ec 4a 78 76 aa e fffffb01 ffffface
FIXUPS: 59f71 20 ffffff9f 9 fffffb76 17 5c f 151 12 16 c 1d 18 a c e 17
FIXUPS: 59d36 24 123c e 8 d b 55 b8 b 44 20 b fffffd73 e 8 d b 14 b 34
FIXUPS: 5ae7f 7 9 fffffe7c d ffffff6f d 11 2f 25 fffffe0a f ffffff69 e48
FIXUPS: 5b9cc 16 fffffdef d b 31 ffffff08 16 fffffe95 12 11 a5 fffffe8f
FIXUPS: 5b569 10 16 c fffffdb5 f 10 6c fffffe10 19 12 5b e 23 1f 33 1f
FIXUPS: 5b167 123b 8 8 e b b b b b b b b b b fffff642 1a 1e 20 f 4e 16
FIXUPS: 5bb51 23 a6 eb 1c 52 1c 2a e 21 6b 41b 14 17 1f 8 8 8 8 8 7 8 8
FIXUPS: 5c2ff 8 8 8 8 8 8 b 8 8 8 8 8 8 8 8 8 8 8 8 fffffc81 11 11 11 14
FIXUPS: 5c073 11 11 14 11 11 11 14 11 11 11 14 11 11 11 14 11 11 11 17
FIXUPS: 5c1dc 14 14 17 14 14 14 216 10 d 13 b b 31 d d 50 b b 19 25 7 25
FIXUPS: 5beda 13 b 6 15 b 1f b 48 11 11 11 14 11 e 11 64b 13 b 6 34 b 3d
FIXUPS: 5c6fd 35 10 10 10 13 a e 10 10 13 10 10 10 13 10 10 59 8 8 8 8
FIXUPS: 5c8a4 8 fffffbb1 ebf 27 33 41 34 e 36 3b 41 c 61 11 34 50 18 d
FIXUPS: 5d6ee fffff200 16 b d 9 a8 31 70 18 11 8 10 8 21 b d9e 39 2f 5
FIXUPS: 5d8fd 14d 24 28 ba fffff373 41 24 29 7 f 7 18 9a 41 30 18 36 3f
FIXUPS: 5d158 46 3f 1f 1a 64 2a 30 e d19 18 96 6 a 6 1b 4b fffffb1a 17
FIXUPS: 5dc6f c 41 56 8 6 42 11 2f 12 c 6c d 24 19 18 8 78 7f 9 fffff7d2
FIXUPS: 5d770 11d8 42 1a c b 11 21 3b 1b fffffc2d 2b d 20 d d 9 fffffddd
FIXUPS: 5e50f 41 10c fffffbc5 1d 4e 19 46 1d 26 9 d 9 fffffc82 14 13b6
FIXUPS: 5f3b6 c fffff745 a 6 8 13 18 3c 32 10 24 1f 1b 16 12 fffffe34 2a
FIXUPS: 5ead7 1b fffffc0d 38 1b 6c 42 8 72 b 74 b 39 d78 fffff5d9 a 13
FIXUPS: 5ecee a 13 1c 26 b 31 b f 1c 32 b 32 b f 102 110 ca 1a 22 107 8c
FIXUPS: 5f30a 1d 40 9 d 14 8b4 47 7f 17 162 14c 96 68 5c 4f 1a7 16 1a5
FIXUPS: 5f70a 1e 2e 48 1b 3e 3e 4e 2e 13 a fffffc15 e 8 d b 9e b 13 3e2
FIXUPS: 5f9cc 6 e 6 3c c 2c c 1f d 11 f f f 24 2a 6 15 6 3a 6 15 6 26 6
FIXUPS: 5fbdc 6 16 6 16 6 e15 23 fffffdb6 86 1b 34 3d 10 54 fffffd73 10
FIXUPS: 6075d 6a fffffd4c 22 f 1c f 15 11 e 1e 23 fffff316 9 17 1c 6 f
FIXUPS: 5f951 3a 9 138e 7 17 6 e 22 2e 2b 44 1e e 9 9 a5 4f 2f 15 fffffb85
FIXUPS: 60b1e 21 7 f a ffffff18 6 8 1d 8 8 19 ffffff36 24 a63 9 9 2a 1c
FIXUPS: 614ef 15 ffffff69 ffffff37 6 8 d b 14 17 9 c 1e 22 fffffec2 fffffee7
FIXUPS: 60b7c f d 9 5 7 19 20 11 110 15 e13 19 9 3b 9 a a 33 fffffcb0 2b
FIXUPS: 618d3 1b 1b 21 1c 1f 28 28 8 11 24 25 6c 10 12 fffffba9 17 10f
FIXUPS: 617e3 fffffdab 24 ffffff98 fffa0866 2b 39 29 165 fffff064 14 1d
FIXUPS: 104a 1d 82 d b1 26 7 1c 54 42 33 609de 7 d ffffff5f b 45 c d fffffe5b
FIXUPS: 61ae1 1a 6 1d fffa229d 189 156 23b ffffdeab 5f 59 395 32 2e 138
FIXUPS: 183a 1d 13 1d d7 80 30 29 3a a 5e de 2e 3e 2d 10 10 10 33 99 23
FIXUPS: 2fd6 9e 1dc 2a3 133 45 29 3c ba 10 1b 10 1b 10 7d 11 11 18a 29
FIXUPS: 3a53 f c4 78 5c 3c 14 1d 13 1d 4f 51 45 316f ffffbb0b 97 d 2c e
FIXUPS: 2ae7 31 30 2d f f a 19 12 a 61 1d 8c 1a 52 8 1f 77 e 46 1d 13 1d
FIXUPS: 2e96 54 5d 32c0 13 1d f 17 193 31 75 54 1f 48 28 22 11 b8 a f6
FIXUPS: 691b 18 19 fe 1d 13 1d f 10 130 1a9 77 87 d 3f ffffecdf 17 1b 49
FIXUPS: 5c41 8 7 e 46 e d 1b 18 36 7 11 7 16 d 6b 8 45 7 27 7 3a 8 c2 6b
FIXUPS: 5fdf 22 1e9 fffff113 8 51 8 51 1f 18 45 7 3d 1a 8 7 f 1f 19 54
FIXUPS: 5872 32 22 35 31 29 3e 29 29 64 33 4f a c d0 ffffebb6 13 1d f a2
FIXUPS: 4892 60 20 1c 39 13 1d 13 1d 13 1d f 23a ad 55 9c 8b 31 1d 13 1d
FIXUPS: 4f56 2e 2c7 8 51 8 2936 2f 11 5a2c2 a fffa5d93 50 10 ca 2e 24 2e
FIXUPS: 7eae a 9f 38 34 21 49 a 69 11 13b 88 18 2c 1a aa 1e9 ec 204 ffffbef5
FIXUPS: 7419 32 22e 30 5a7db a fffa5833 112 2c 23 26 4b 30 68 37 11 6f
FIXUPS: 7a13 20 54 49 14 5a3c3 b a fffa5c55 2d 31 25 11 5a31f a fffa6dcc
FIXUPS: 8d77 c9 44 7a a 4b a 65 8 14 11 58 a 10 48 a 13 20 c de 76 18 129
